
Neon3DSoftware.elf:     file format elf32-littlenios2
Neon3DSoftware.elf
architecture: nios2:r1, flags 0x00000112:
EXEC_P, HAS_SYMS, D_PAGED
start address 0x00000244

Program Header:
    LOAD off    0x00001000 vaddr 0x00000000 paddr 0x00000000 align 2**12
         filesz 0x00000020 memsz 0x00000020 flags r-x
    LOAD off    0x00001020 vaddr 0x00000020 paddr 0x00000020 align 2**12
         filesz 0x0001c014 memsz 0x0001c014 flags r-x
    LOAD off    0x0001d034 vaddr 0x0001c034 paddr 0x0001df28 align 2**12
         filesz 0x00001ef4 memsz 0x00001ef4 flags rw-
    LOAD off    0x0001fe1c vaddr 0x0001fe1c paddr 0x0001fe1c align 2**12
         filesz 0x00000000 memsz 0x000033f8 flags rw-

Sections:
Idx Name          Size      VMA       LMA       File off  Algn
  0 .entry        00000020  00000000  00000000  00001000  2**5
                  CONTENTS, ALLOC, LOAD, READONLY, CODE
  1 .exceptions   00000224  00000020  00000020  00001020  2**2
                  CONTENTS, ALLOC, LOAD, READONLY, CODE
  2 .text         0001b448  00000244  00000244  00001244  2**2
                  CONTENTS, ALLOC, LOAD, READONLY, CODE
  3 .rodata       000009a8  0001b68c  0001b68c  0001c68c  2**2
                  CONTENTS, ALLOC, LOAD, READONLY, DATA
  4 .rwdata       00001ef4  0001c034  0001df28  0001d034  2**2
                  CONTENTS, ALLOC, LOAD, DATA, SMALL_DATA
  5 .bss          000033f8  0001fe1c  0001fe1c  0001fe1c  2**2
                  ALLOC, SMALL_DATA
  6 .SDRAM        00000000  00023214  00023214  0001ef28  2**0
                  CONTENTS
  7 .Flash_flash_data 00000000  0c000000  0c000000  0001ef28  2**0
                  CONTENTS
  8 .comment      00000023  00000000  00000000  0001ef28  2**0
                  CONTENTS, READONLY
  9 .debug_aranges 00000e38  00000000  00000000  0001ef50  2**3
                  CONTENTS, READONLY, DEBUGGING
 10 .debug_info   000232a1  00000000  00000000  0001fd88  2**0
                  CONTENTS, READONLY, DEBUGGING
 11 .debug_abbrev 00008b64  00000000  00000000  00043029  2**0
                  CONTENTS, READONLY, DEBUGGING
 12 .debug_line   0000c4b7  00000000  00000000  0004bb8d  2**0
                  CONTENTS, READONLY, DEBUGGING
 13 .debug_frame  000033b0  00000000  00000000  00058044  2**2
                  CONTENTS, READONLY, DEBUGGING
 14 .debug_str    000051ce  00000000  00000000  0005b3f4  2**0
                  CONTENTS, READONLY, DEBUGGING
 15 .debug_loc    00016462  00000000  00000000  000605c2  2**0
                  CONTENTS, READONLY, DEBUGGING
 16 .debug_alt_sim_info 00000020  00000000  00000000  00076a24  2**2
                  CONTENTS, READONLY, DEBUGGING
 17 .debug_ranges 00001438  00000000  00000000  00076a48  2**3
                  CONTENTS, READONLY, DEBUGGING
 18 .thread_model 00000006  00000000  00000000  0007d06e  2**0
                  CONTENTS, READONLY
 19 .cpu          00000005  00000000  00000000  0007d074  2**0
                  CONTENTS, READONLY
 20 .qsys         00000001  00000000  00000000  0007d079  2**0
                  CONTENTS, READONLY
 21 .simulation_enabled 00000001  00000000  00000000  0007d07a  2**0
                  CONTENTS, READONLY
 22 .sysid_hash   00000004  00000000  00000000  0007d07b  2**0
                  CONTENTS, READONLY
 23 .sysid_base   00000004  00000000  00000000  0007d07f  2**0
                  CONTENTS, READONLY
 24 .sysid_time   00000004  00000000  00000000  0007d083  2**0
                  CONTENTS, READONLY
 25 .stderr_dev   00000009  00000000  00000000  0007d087  2**0
                  CONTENTS, READONLY
 26 .stdin_dev    00000009  00000000  00000000  0007d090  2**0
                  CONTENTS, READONLY
 27 .stdout_dev   00000009  00000000  00000000  0007d099  2**0
                  CONTENTS, READONLY
 28 .sopc_system_name 0000000b  00000000  00000000  0007d0a2  2**0
                  CONTENTS, READONLY
 29 .quartus_project_dir 0000005e  00000000  00000000  0007d0ad  2**0
                  CONTENTS, READONLY
 30 .jdi          0000abc5  00000000  00000000  0007d10b  2**0
                  CONTENTS, READONLY
 31 .sopcinfo     001878b7  00000000  00000000  00087cd0  2**0
                  CONTENTS, READONLY
SYMBOL TABLE:
00000000 l    d  .entry	00000000 .entry
00000020 l    d  .exceptions	00000000 .exceptions
00000244 l    d  .text	00000000 .text
0001b68c l    d  .rodata	00000000 .rodata
0001c034 l    d  .rwdata	00000000 .rwdata
0001fe1c l    d  .bss	00000000 .bss
00023214 l    d  .SDRAM	00000000 .SDRAM
0c000000 l    d  .Flash_flash_data	00000000 .Flash_flash_data
00000000 l    d  .comment	00000000 .comment
00000000 l    d  .debug_aranges	00000000 .debug_aranges
00000000 l    d  .debug_info	00000000 .debug_info
00000000 l    d  .debug_abbrev	00000000 .debug_abbrev
00000000 l    d  .debug_line	00000000 .debug_line
00000000 l    d  .debug_frame	00000000 .debug_frame
00000000 l    d  .debug_str	00000000 .debug_str
00000000 l    d  .debug_loc	00000000 .debug_loc
00000000 l    d  .debug_alt_sim_info	00000000 .debug_alt_sim_info
00000000 l    d  .debug_ranges	00000000 .debug_ranges
00000000 l    df *ABS*	00000000 C:/Users/Eldin/Documents/GitHub/Neon3D/FPGA/Software/Neon3DSoftware_bsp//obj/HAL/src/crt0.o
0000027c l       .text	00000000 alt_after_alt_main
00000000 l    df *ABS*	00000000 alt_irq_handler.c
00000000 l    df *ABS*	00000000 alt_instruction_exception_entry.c
00000000 l    df *ABS*	00000000 hello_ucosii.c
00000000 l    df *ABS*	00000000 s_cos.c
00000000 l    df *ABS*	00000000 s_sin.c
00000000 l    df *ABS*	00000000 e_rem_pio2.c
0001b928 l     O .rodata	00000108 two_over_pi
0001b8a8 l     O .rodata	00000080 npio2_hw
00000000 l    df *ABS*	00000000 k_cos.c
00000000 l    df *ABS*	00000000 k_rem_pio2.c
0001ba70 l     O .rodata	00000010 init_jk
0001ba30 l     O .rodata	00000040 PIo2
00000000 l    df *ABS*	00000000 k_sin.c
00000000 l    df *ABS*	00000000 s_fabs.c
00000000 l    df *ABS*	00000000 s_floor.c
00000000 l    df *ABS*	00000000 s_scalbn.c
00000000 l    df *ABS*	00000000 s_copysign.c
00000000 l    df *ABS*	00000000 lib2-divmod.c
00004cb0 l     F .text	0000006c udivmodsi4
00000000 l    df *ABS*	00000000 floatsisf.c
00000000 l    df *ABS*	00000000 adddf3.c
00000000 l    df *ABS*	00000000 divdf3.c
00000000 l    df *ABS*	00000000 eqdf2.c
00000000 l    df *ABS*	00000000 gedf2.c
00000000 l    df *ABS*	00000000 ledf2.c
00000000 l    df *ABS*	00000000 muldf3.c
00000000 l    df *ABS*	00000000 subdf3.c
00000000 l    df *ABS*	00000000 fixdfsi.c
00000000 l    df *ABS*	00000000 floatsidf.c
00000000 l    df *ABS*	00000000 extendsfdf2.c
00000000 l    df *ABS*	00000000 libgcc2.c
00000000 l    df *ABS*	00000000 libgcc2.c
00000000 l    df *ABS*	00000000 memcpy.c
00000000 l    df *ABS*	00000000 sprintf.c
00000000 l    df *ABS*	00000000 vfprintf.c
0001bbc2 l     O .rodata	00000010 zeroes.4240
0001bbd2 l     O .rodata	00000010 blanks.4239
00000000 l    df *ABS*	00000000 dtoa.c
00009708 l     F .text	00000200 quorem
00000000 l    df *ABS*	00000000 impure.c
0001c034 l     O .rwdata	00000424 impure_data
00000000 l    df *ABS*	00000000 locale.c
0001c478 l     O .rwdata	00000020 lc_ctype_charset
0001c458 l     O .rwdata	00000020 lc_message_charset
0001c498 l     O .rwdata	00000038 lconv
00000000 l    df *ABS*	00000000 mallocr.c
00000000 l    df *ABS*	00000000 memchr.c
00000000 l    df *ABS*	00000000 mprec.c
0001bc04 l     O .rodata	0000000c p05.2710
00000000 l    df *ABS*	00000000 s_fpclassify.c
00000000 l    df *ABS*	00000000 sbrkr.c
00000000 l    df *ABS*	00000000 strcmp.c
00000000 l    df *ABS*	00000000 strlen.c
00000000 l    df *ABS*	00000000 vfprintf.c
0001bd28 l     O .rodata	00000010 zeroes.4184
0001bd38 l     O .rodata	00000010 blanks.4183
00000000 l    df *ABS*	00000000 mallocr.c
00000000 l    df *ABS*	00000000 mallocr.c
00000000 l    df *ABS*	00000000 int_errno.c
00000000 l    df *ABS*	00000000 memmove.c
00000000 l    df *ABS*	00000000 memset.c
00000000 l    df *ABS*	00000000 mallocr.c
00000000 l    df *ABS*	00000000 libgcc2.c
00000000 l    df *ABS*	00000000 libgcc2.c
00000000 l    df *ABS*	00000000 floatunsidf.c
00000000 l    df *ABS*	00000000 alt_load.c
0000f5fc l     F .text	00000064 alt_load_section
00000000 l    df *ABS*	00000000 alt_main.c
00000000 l    df *ABS*	00000000 alt_sbrk.c
0001de84 l     O .rwdata	00000004 heap_end
00000000 l    df *ABS*	00000000 alt_env_lock.c
0001de88 l     O .rwdata	00000004 lockid
0001fe54 l     O .bss	00000004 locks
00000000 l    df *ABS*	00000000 alt_malloc_lock.c
0001de8c l     O .rwdata	00000004 lockid
0001fe5c l     O .bss	00000004 locks
00000000 l    df *ABS*	00000000 os_core.c
00011150 l     F .text	00000044 OS_InitMisc
00011194 l     F .text	00000068 OS_InitRdyList
000112f4 l     F .text	000000e0 OS_InitTCBList
00011074 l     F .text	000000dc OS_InitEventList
000111fc l     F .text	0000007c OS_InitTaskIdle
00011278 l     F .text	0000007c OS_InitTaskStat
00011554 l     F .text	00000070 OS_SchedNew
00000000 l    df *ABS*	00000000 os_dbg.c
00000000 l    df *ABS*	00000000 os_flag.c
00013358 l     F .text	00000110 OS_FlagTaskRdy
000130b0 l     F .text	000001c4 OS_FlagBlock
00000000 l    df *ABS*	00000000 os_mem.c
00000000 l    df *ABS*	00000000 os_q.c
00000000 l    df *ABS*	00000000 os_sem.c
00000000 l    df *ABS*	00000000 os_task.c
00000000 l    df *ABS*	00000000 os_time.c
00000000 l    df *ABS*	00000000 alt_sys_init.c
00017800 l     F .text	00000038 alt_dev_reg
0001c8d8 l     O .rwdata	0000106c JTAG_UART
0001d944 l     O .rwdata	00000030 AV_Config
0001d974 l     O .rwdata	00000030 Audio_Subsystem_Audio
0001d9a4 l     O .rwdata	0000002c Char_LCD_16x2
0001d9d0 l     O .rwdata	0000002c IrDA
0001d9fc l     O .rwdata	0000002c Expansion_JP5
0001da28 l     O .rwdata	0000002c Green_LEDs
0001da54 l     O .rwdata	0000002c HEX3_HEX0
0001da80 l     O .rwdata	0000002c HEX7_HEX4
0001daac l     O .rwdata	0000002c Pushbuttons
0001dad8 l     O .rwdata	0000002c Red_LEDs
0001db04 l     O .rwdata	0000002c Slider_Switches
0001db30 l     O .rwdata	00000038 PS2_Port
0001db68 l     O .rwdata	00000038 PS2_Port_Dual
0001dba0 l     O .rwdata	0000002c Serial_Port
0001dbcc l     O .rwdata	00000034 USB
0001dc00 l     O .rwdata	00000048 VGA_Subsystem_VGA_Char_Buffer
0001dc48 l     O .rwdata	00000054 VGA_Subsystem_VGA_Pixel_DMA
0001dc9c l     O .rwdata	0000002c SD_Card
00000000 l    df *ABS*	00000000 altera_avalon_jtag_uart_fd.c
00000000 l    df *ABS*	00000000 altera_avalon_jtag_uart_init.c
00017ee8 l     F .text	000002a8 altera_avalon_jtag_uart_irq
00018190 l     F .text	00000110 altera_avalon_jtag_uart_timeout
00000000 l    df *ABS*	00000000 altera_avalon_jtag_uart_ioctl.c
00000000 l    df *ABS*	00000000 altera_avalon_jtag_uart_read.c
00000000 l    df *ABS*	00000000 altera_avalon_jtag_uart_write.c
00000000 l    df *ABS*	00000000 altera_avalon_timer_sc.c
00018968 l     F .text	00000078 alt_avalon_timer_sc_irq
00000000 l    df *ABS*	00000000 altera_up_avalon_character_lcd.c
00000000 l    df *ABS*	00000000 altera_up_avalon_irda.c
00000000 l    df *ABS*	00000000 altera_up_avalon_ps2.c
00000000 l    df *ABS*	00000000 altera_up_avalon_rs232.c
00000000 l    df *ABS*	00000000 altera_up_avalon_video_character_buffer_with_dma.c
00000000 l    df *ABS*	00000000 alt_alarm_start.c
00000000 l    df *ABS*	00000000 alt_close.c
0001a128 l     F .text	00000050 alt_get_errno
00000000 l    df *ABS*	00000000 alt_dcache_flush_all.c
00000000 l    df *ABS*	00000000 alt_dev.c
0001a264 l     F .text	0000002c alt_dev_null_write
00000000 l    df *ABS*	00000000 alt_dev_llist_insert.c
0001a290 l     F .text	00000050 alt_get_errno
00000000 l    df *ABS*	00000000 alt_do_ctors.c
00000000 l    df *ABS*	00000000 alt_do_dtors.c
00000000 l    df *ABS*	00000000 alt_errno.c
00000000 l    df *ABS*	00000000 alt_find_dev.c
00000000 l    df *ABS*	00000000 alt_icache_flush_all.c
00000000 l    df *ABS*	00000000 alt_io_redirect.c
0001a4fc l     F .text	000000c0 alt_open_fd
00000000 l    df *ABS*	00000000 alt_irq_register.c
00000000 l    df *ABS*	00000000 alt_irq_vars.c
00000000 l    df *ABS*	00000000 alt_open.c
0001a7e4 l     F .text	00000050 alt_get_errno
0001a834 l     F .text	000000cc alt_file_locked
00000000 l    df *ABS*	00000000 alt_release_fd.c
00000000 l    df *ABS*	00000000 alt_tick.c
00000000 l    df *ABS*	00000000 altera_nios2_gen2_irq.c
00000000 l    df *ABS*	00000000 os_cpu_a.o
00000040 l       *ABS*	00000000 OSCtxSw_SWITCH_PC
00000000 l    df *ABS*	00000000 os_cpu_c.c
00000014 l       *ABS*	00000000 OSTCBNext_OFFSET
00000032 l       *ABS*	00000000 OSTCBPrio_OFFSET
00000000 l       *ABS*	00000000 OSTCBStkPtr_OFFSET
00000000 l    df *ABS*	00000000 alt_find_file.c
00000000 l    df *ABS*	00000000 alt_get_fd.c
00000000 l    df *ABS*	00000000 alt_icache_flush.c
00000000 l    df *ABS*	00000000 atexit.c
00000000 l    df *ABS*	00000000 exit.c
00000000 l    df *ABS*	00000000 memcmp.c
00000000 l    df *ABS*	00000000 __atexit.c
00000000 l    df *ABS*	00000000 __call_atexit.c
00000000 l    df *ABS*	00000000 alt_exit.c
0001fec4 g     O .bss	00000004 alt_instruction_exception_handler
0000c7c8 g     F .text	00000074 _mprec_log10
0001deda g     O .rwdata	00000002 OSTaskNameSize
0000c8b4 g     F .text	0000008c __any_on
0001bc10 g     O .rodata	00000028 __mprec_tinytens
0000f6e0 g     F .text	000000d4 alt_main
00023114 g     O .bss	00000100 alt_irq
00019504 g     F .text	0000005c alt_up_ps2_disable_read_interrupt
000048c0 g     F .text	00000014 fabs
00013bbc g     F .text	000000d0 OS_MemInit
0001df28 g       *ABS*	00000000 __flash_rwdata_start
0001779c g     F .text	00000064 OSTimeSet
00018ad4 g     F .text	0000003c alt_up_character_lcd_send_cmd
00006078 g     F .text	00000084 .hidden __eqdf2
0000fdcc g     F .text	00000610 OSEventPendMulti
00023214 g       *ABS*	00000000 __alt_heap_start
0001aea0 g     F .text	00000020 OSTaskCreateHook
0001deb2 g     O .rwdata	00000002 OSMboxEn
00010430 g     F .text	0000007c OSIntEnter
00019e8c g     F .text	00000100 alt_up_char_buffer_string
00019324 g     F .text	00000034 read_CE_bit
0001dec2 g     O .rwdata	00000002 OSQEn
0000b030 g     F .text	0000007c _setlocale_r
0000faa0 g     F .text	000000d0 __malloc_unlock
0001aefc g     F .text	0000001c OSTaskStatHook
000196a8 g     F .text	000000a4 alt_up_ps2_read_data_byte_timeout
00019b9c g     F .text	00000090 alt_up_rs232_read_fd
0001fe64 g     O .bss	00000001 OSLockNesting
00002650 g     F .text	00000068 LCD_cursor
0001df00 g     O .rwdata	00000002 OSDataSize
0001fe65 g     O .bss	00000001 OSRunning
00019dc0 g     F .text	000000cc alt_up_char_buffer_draw
0000e220 g     F .text	0000015c memmove
0001af34 g     F .text	0000001c OSInitHookBegin
0001def8 g     O .rwdata	00000002 OSTmrSize
0000b9a0 g     F .text	000000a8 _Balloc
0001fe68 g     O .bss	00000004 OSIdleCtr
000060fc g     F .text	000000e0 .hidden __gtdf2
0001ac54 g     F .text	00000020 altera_nios2_gen2_irq_init
0001ad20 g       .text	00000000 OSStartTsk
00000000  w      *UND*	00000000 __errno
00018a60 g     F .text	00000074 get_DDRAM_addr
0001188c g     F .text	000002d4 OS_TCBInit
00000000 g     F .entry	0000001c __reset
0001defe g     O .rwdata	00000002 OSTmrWheelTblSize
00000020 g       *ABS*	00000000 __flash_exceptions_start
0001de9e g     O .rwdata	00000002 OSEventSize
0001fe6c g     O .bss	00000001 OSPrioHighRdy
0001aec0 g     F .text	00000020 OSTaskDelHook
0001fe44 g     O .bss	00000004 errno
000048d4 g     F .text	000001f4 floor
0001ad00 g       .text	00000000 OSStartHighRdy
000160a0 g     F .text	000001ec OSTaskCreateExt
0000cd10 g     F .text	00001038 ___svfiprintf_internal_r
00012bfc g     F .text	00000068 OSFlagPendGetFlagsRdy
0001dede g     O .rwdata	00000002 OSTaskStatStkSize
00011cec g     F .text	00000308 OSFlagAccept
00014290 g     F .text	000000b8 OSQFlush
00013c8c g     F .text	00000140 OSQAccept
0001fe4c g     O .bss	00000004 alt_argv
00025e70 g       *ABS*	00000000 _gp
00015ee4 g     F .text	000001bc OSTaskCreate
000159a4 g     F .text	00000540 OSTaskChangePrio
0001fe60 g     O .bss	00000004 alt_heapsem
00011b60 g     F .text	0000018c OSDebugInit
0001628c g     F .text	000003e0 OSTaskDel
0001dcf0 g     O .rwdata	00000180 alt_fd_list
0001fef0 g     O .bss	00000370 OSFlagTbl
00002c90 g     F .text	0000079c __ieee754_rem_pio2
00010e60 g     F .text	000000b4 OS_EventTaskRemove
0001a43c g     F .text	00000090 alt_find_dev
0000757c g     F .text	00000138 memcpy
0001dec8 g     O .rwdata	00000002 OSRdyTblSize
00018c70 g     F .text	00000050 alt_up_character_lcd_write_fd
0001fe28 g     O .bss	00000004 previousYRotation
00019f8c g     F .text	0000005c alt_up_char_buffer_clear
00007338 g     F .text	000000d0 .hidden __floatsidf
0001a5bc g     F .text	00000078 alt_io_redirect
000061dc g     F .text	000000e0 .hidden __ltdf2
0001b68c g       *ABS*	00000000 __DTOR_END__
000191f0 g     F .text	00000090 alt_up_irda_write_fd
00019b28 g     F .text	00000074 alt_up_rs232_read_data
0001b244 g     F .text	0000009c alt_exception_cause_generated_bad_addr
0000fb70 g     F .text	00000120 OSEventNameGet
0001deac g     O .rwdata	00000002 OSFlagMax
0000c940 g     F .text	00000074 __fpclassifyd
0000c724 g     F .text	000000a4 __ratio
000104ac g     F .text	000000f4 OSIntExit
0001dee6 g     O .rwdata	00000002 OSTCBSize
0001fe6d g     O .bss	00000001 OSPrioCur
00018fec g     F .text	00000040 alt_up_irda_get_used_space_in_read_FIFO
000183f4 g     F .text	000002b4 altera_avalon_jtag_uart_read
00000000  w      *UND*	00000000 malloc
000026b8 g     F .text	00000068 LCD_text
00004dcc g     F .text	00000008 .hidden __udivsi3
0001decc g     O .rwdata	00000002 OSStkWidth
0001bc60 g     O .rodata	000000c8 __mprec_tens
0001dec0 g     O .rwdata	00000002 OSPtrSize
0000b0ac g     F .text	0000000c __locale_charset
0000342c g     F .text	000004a4 __kernel_cos
0001dea0 g     O .rwdata	00000002 OSEventTblSize
00018f90 g     F .text	0000005c alt_up_irda_disable_read_interrupt
0001ac74 g       .text	00000000 OSCtxSw
0001b1b8 g     F .text	0000008c alt_icache_flush
0001fe40 g     O .bss	00000004 __malloc_top_pad
0001fe70 g     O .bss	00000004 OSTCBList
0001feb4 g     O .bss	00000004 alt_fd_list_lock
0001de78 g     O .rwdata	00000004 __mb_cur_max
0000b0dc g     F .text	0000000c _localeconv_r
0000bdac g     F .text	0000003c __i2b
00020260 g     O .bss	00000c30 OSMemTbl
0001fe74 g     O .bss	00000001 OSTickStepState
0000c9b4 g     F .text	00000054 _sbrk_r
0001dec4 g     O .rwdata	00000002 OSQMax
00020e90 g     O .bss	00000800 OSTaskStatStk
000137ec g     F .text	000000f8 OSMemNameGet
000002f0 g     F .text	00000064 removePixel
0001dea4 g     O .rwdata	00000002 OSFlagEn
0001deea g     O .rwdata	00000002 OSTimeTickHookEn
000147b0 g     F .text	00000168 OSQPost
00013468 g     F .text	000000a0 OS_FlagUnlink
0001df14 g     O .rwdata	00000004 alt_max_fd
00019aa4 g     F .text	00000044 alt_up_rs232_check_parity
00011424 g     F .text	00000064 OS_MemCopy
00011488 g     F .text	000000cc OS_Sched
000136fc g     F .text	000000f0 OSMemGet
0001696c g     F .text	000001c0 OSTaskNameSet
00019358 g     F .text	00000030 read_num_bytes_available
0001fe3c g     O .bss	00000004 __malloc_max_sbrked_mem
0001fe78 g     O .bss	00000004 OSCtxSwCtr
0001af18 g     F .text	0000001c OSTimeTickHook
0001a634 g     F .text	000001b0 alt_irq_register
0001deae g     O .rwdata	00000002 OSFlagNameSize
000192c0 g     F .text	00000034 read_RI_bit
000045f8 g     F .text	000002c8 __kernel_sin
00007408 g     F .text	00000110 .hidden __extendsfdf2
00010f14 g     F .text	000000fc OS_EventTaskRemoveMulti
00004f10 g     F .text	0000089c .hidden __adddf3
00010d14 g     F .text	0000014c OS_EventTaskWaitMulti
0000c4cc g     F .text	0000011c __b2d
0001dec6 g     O .rwdata	00000002 OSQSize
0000efc8 g     F .text	00000590 .hidden __umoddi3
000152b4 g     F .text	00000268 OSSemPend
0001de70 g     O .rwdata	00000004 _global_impure_ptr
0000e4a0 g     F .text	00000568 _realloc_r
0001deb0 g     O .rwdata	00000002 OSLowestPrio
00023214 g       *ABS*	00000000 __bss_end
0001af88 g     F .text	00000020 OSTCBInitHook
0001def6 g     O .rwdata	00000002 OSTmrCfgTicksPerSec
0001ab50 g     F .text	00000104 alt_tick
0000ea08 g     F .text	000005c0 .hidden __udivdi3
0001de98 g     O .rwdata	00000002 OSEventEn
0001bc38 g     O .rodata	00000028 __mprec_bigtens
0000bb90 g     F .text	00000104 __s2b
0001def2 g     O .rwdata	00000002 OSTmrCfgNameSize
0000f558 g     F .text	000000a4 .hidden __floatunsidf
0000c274 g     F .text	00000060 __mcmp
0c000000 g       *ABS*	00000000 __alt_mem_Flash_flash_data
000193bc g     F .text	0000002c read_data_byte
000029ec g     F .text	000000c8 check_KEYs
00013274 g     F .text	000000e4 OS_FlagInit
0001aab8 g     F .text	00000098 alt_alarm_stop
000192f4 g     F .text	00000030 read_RE_bit
0001ded4 g     O .rwdata	00000002 OSTaskIdleStkSize
0001feb8 g     O .bss	00000004 alt_irq_active
00014e9c g     F .text	000000b0 OSSemAccept
00002754 g     F .text	00000090 VGA_text
000139fc g     F .text	000000d8 OSMemPut
00013508 g     F .text	000001f4 OSMemCreate
0001fe7c g     O .bss	00000004 OSIdleCtrMax
0001902c g     F .text	0000003c alt_up_irda_get_available_space_in_write_FIFO
000000fc g     F .exceptions	000000d4 alt_irq_handler
0001dcc8 g     O .rwdata	00000028 alt_dev_null
0001dee8 g     O .rwdata	00000002 OSTicksPerSec
000038d0 g     F .text	00000d28 __kernel_rem_pio2
00018f04 g     F .text	00000034 alt_up_character_lcd_cursor_blink_on
0001ac74 g       .text	00000000 OSIntCtxSw
00019560 g     F .text	00000074 alt_up_ps2_write_data_byte
0001a248 g     F .text	0000001c alt_dcache_flush_all
0000bc94 g     F .text	00000068 __hi0bits
000072b0 g     F .text	00000088 .hidden __fixdfsi
0001fe80 g     O .bss	00000004 OSTCBFreeList
0001df28 g       *ABS*	00000000 __ram_rwdata_end
0001551c g     F .text	0000016c OSSemPendAbort
0001df0c g     O .rwdata	00000008 alt_dev_list
0001deec g     O .rwdata	00000002 OSVersionNbr
0001c034 g       *ABS*	00000000 __ram_rodata_end
00019c2c g     F .text	00000094 alt_up_rs232_write_fd
00000000 g       *ABS*	00000000 __alt_mem_SDRAM
000061dc g     F .text	000000e0 .hidden __ledf2
0001de94 g     O .rwdata	00000004 OSEndiannessTest
0000bfe4 g     F .text	00000140 __pow5mult
0001fe34 g     O .bss	00000004 __nlocale_changed
00004dd4 g     F .text	00000008 .hidden __umodsi3
0001dea6 g     O .rwdata	00000002 OSFlagGrpSize
0001fe24 g     O .bss	00000004 previousXRotation
00023214 g       *ABS*	00000000 end
0001989c g     F .text	00000098 alt_up_ps2_write_fd
00019068 g     F .text	00000044 alt_up_irda_check_parity
00019d00 g     F .text	00000080 alt_up_char_buffer_init
00017da8 g     F .text	00000140 altera_avalon_jtag_uart_init
000116e8 g     F .text	000000dc OS_TaskStat
000001d0 g     F .exceptions	00000074 alt_instruction_exception_entry
0001b68c g       *ABS*	00000000 __CTOR_LIST__
04000000 g       *ABS*	00000000 __alt_stack_pointer
00002898 g     F .text	00000154 HEX_PS2
000189e0 g     F .text	00000080 alt_avalon_timer_sc_init
00007518 g     F .text	00000064 .hidden __clzsi2
000186a8 g     F .text	000002c0 altera_avalon_jtag_uart_write
00002ab4 g     F .text	000000ec cos
0000b8b8 g     F .text	000000e8 memchr
000113d4 g     F .text	00000050 OS_MemClr
00018b84 g     F .text	00000078 alt_up_character_lcd_write
0001ad44 g     F .text	0000015c OSTaskStkInit
000076b4 g     F .text	00000058 _sprintf_r
0000df30 g     F .text	000002f0 _free_r
0000b0b8 g     F .text	00000010 __locale_mb_cur_max
00010a70 g     F .text	00000198 OS_EventTaskRdy
0001b4bc g     F .text	00000194 __call_exitprocs
0001fe84 g     O .bss	00000001 OSCPUUsage
0001fe30 g     O .bss	00000004 __mlocale_changed
0001de7c g     O .rwdata	00000004 __malloc_sbrk_base
00000244 g     F .text	0000003c _start
0001febc g     O .bss	00000004 _alt_tick_rate
00014348 g     F .text	000002fc OSQPend
00002ba0 g     F .text	000000f0 sin
00017298 g     F .text	00000148 OSTimeDly
0000c124 g     F .text	00000150 __lshift
0001fec0 g     O .bss	00000004 _alt_nticks
0001786c g     F .text	000003d8 alt_sys_init
00018dbc g     F .text	00000088 alt_up_character_lcd_shift_display
00004ddc g     F .text	00000134 .hidden __floatsisf
0000cb44 g     F .text	000001cc __ssprint_r
0001b3a8 g     F .text	00000114 __register_exitproc
0001fe85 g     O .bss	00000001 OSTaskCtr
0001fe1c g     O .bss	00000008 prevousZoomScreenBR
000197bc g     F .text	00000054 alt_up_ps2_clear_fifo
00019a68 g     F .text	0000003c alt_up_rs232_get_available_space_in_write_FIFO
000027e4 g     F .text	000000b4 VGA_box
000173e0 g     F .text	00000168 OSTimeDlyHMSM
0000bde8 g     F .text	000001fc __multiply
00018e44 g     F .text	0000008c alt_up_character_lcd_erase_pos
000182a0 g     F .text	00000068 altera_avalon_jtag_uart_close
0001c034 g       *ABS*	00000000 __ram_rwdata_start
0001b68c g       *ABS*	00000000 __ram_rodata_start
0001fec8 g     O .bss	00000028 __malloc_current_mallinfo
0001de9a g     O .rwdata	00000002 OSEventMax
0000c5e8 g     F .text	0000013c __d2b
00015688 g     F .text	00000110 OSSemPost
00010628 g     F .text	000000d8 OSSchedUnlock
00017c44 g     F .text	00000060 altera_avalon_jtag_uart_read_fd
0001b0bc g     F .text	000000fc alt_get_fd
0001fe88 g     O .bss	00000004 OSMemFreeList
0001076c g     F .text	000000ac OSStatInit
00012fec g     F .text	000000c4 OSFlagQuery
000009ac g     F .text	0000165c drawNodesAndBeams
0001ded0 g     O .rwdata	00000002 OSTaskCreateExtEn
0001b32c g     F .text	0000007c memcmp
00010a54 g     F .text	0000001c OS_Dummy
00017d04 g     F .text	00000050 altera_avalon_jtag_uart_close_fd
00023214 g       *ABS*	00000000 __alt_stack_base
00017d54 g     F .text	00000054 altera_avalon_jtag_uart_ioctl_fd
00018f38 g     F .text	00000058 alt_up_irda_enable_read_interrupt
00021690 g     O .bss	000001e0 OSQTbl
000057ac g     F .text	000008cc .hidden __divdf3
0000c83c g     F .text	00000078 __copybits
0001c4d0 g     O .rwdata	00000408 __malloc_av_
0001fe8c g     O .bss	00000004 OSTCBHighRdy
000062bc g     F .text	00000724 .hidden __muldf3
0001fe90 g     O .bss	00000004 OSQFreeList
000199cc g     F .text	0000005c alt_up_rs232_disable_read_interrupt
0001afa8 g     F .text	00000114 alt_find_file
0001a2e0 g     F .text	000000a4 alt_dev_llist_insert
0000f980 g     F .text	00000120 __malloc_lock
0000f7b4 g     F .text	000000b0 sbrk
00007778 g     F .text	00001f90 ___svfprintf_internal_r
0000fc90 g     F .text	0000013c OSEventNameSet
0000dd48 g     F .text	000000c4 _calloc_r
0001fe94 g     O .bss	00000001 OSRdyGrp
0001fe1c g       *ABS*	00000000 __bss_start
0000e37c g     F .text	00000124 memset
00002008 g     F .text	00000648 main
0001fe50 g     O .bss	00000004 alt_envp
0001fe38 g     O .bss	00000004 __malloc_max_total_mem
00019d80 g     F .text	00000040 alt_up_char_buffer_open_dev
00017ca4 g     F .text	00000060 altera_avalon_jtag_uart_write_fd
0001bd58 g     O .rodata	00000100 OSUnMapTbl
0001deca g     O .rwdata	00000002 OSSemEn
00002720 g     F .text	00000034 LCD_cursor_off
00018d34 g     F .text	00000088 alt_up_character_lcd_shift_cursor
00012c64 g     F .text	00000388 OSFlagPost
04000000 g       *ABS*	00000000 __alt_heap_limit
00010c08 g     F .text	0000010c OS_EventTaskWait
0001974c g     F .text	00000070 alt_up_ps2_read_data_byte
000117c4 g     F .text	000000c8 OS_TaskStatStkChk
0001666c g     F .text	00000158 OSTaskDelReq
00009908 g     F .text	00001728 _dtoa_r
0000b110 g     F .text	000007a8 _malloc_r
0001df18 g     O .rwdata	00000004 alt_errno
00010700 g     F .text	0000006c OSStart
0000f924 g     F .text	0000005c __env_unlock
00016b2c g     F .text	000001f8 OSTaskResume
00013ad4 g     F .text	000000e8 OSMemQuery
0001dedc g     O .rwdata	00000002 OSTaskStatEn
000190ac g     F .text	00000040 alt_up_irda_write_data
0001deb6 g     O .rwdata	00000002 OSMemMax
00014918 g     F .text	00000170 OSQPostFront
00019934 g     F .text	00000040 alt_up_ps2_open_dev
00004d1c g     F .text	00000054 .hidden __divsi3
0001fe95 g     O .bss	00000003 OSRdyTbl
0001de90 g     O .rwdata	00000002 OSDebugEn
00018b44 g     F .text	00000040 alt_up_character_lcd_open_dev
0000de0c g     F .text	00000124 _malloc_trim_r
000194ac g     F .text	00000058 alt_up_ps2_enable_read_interrupt
0001b68c g       *ABS*	00000000 __CTOR_END__
0001dea8 g     O .rwdata	00000002 OSFlagNodeSize
0001def0 g     O .rwdata	00000002 OSTmrCfgMax
00018b10 g     F .text	00000034 alt_up_character_lcd_init
0000ca08 g     F .text	000000a4 strcmp
00013dcc g     F .text	000001fc OSQCreate
000167c4 g     F .text	000001a8 OSTaskNameGet
0001b68c g       *ABS*	00000000 __flash_rodata_start
00014a88 g     F .text	0000020c OSQPostOpt
00010818 g     F .text	0000021c OSTimeTick
0001ded8 g     O .rwdata	00000002 OSTaskMax
0001b68c g       *ABS*	00000000 __DTOR_LIST__
00014f4c g     F .text	00000100 OSSemCreate
0001defc g     O .rwdata	00000002 OSTmrWheelSize
00019cc0 g     F .text	00000040 alt_up_rs232_open_dev
00004c94 g     F .text	0000001c copysign
00006078 g     F .text	00000084 .hidden __nedf2
0001ded2 g     O .rwdata	00000002 OSTaskDelEn
00015798 g     F .text	00000110 OSSemQuery
00013fc8 g     F .text	000002c8 OSQDel
00014644 g     F .text	0000016c OSQPendAbort
00017838 g     F .text	00000034 alt_irq_init
00000354 g     F .text	00000658 drawLine
0001aa58 g     F .text	00000060 alt_release_fd
00019388 g     F .text	00000034 read_data_valid
0000770c g     F .text	0000006c sprintf
00018ed0 g     F .text	00000034 alt_up_character_lcd_cursor_off
0001ba80 g     O .rodata	00000100 .hidden __clz_tab
0001fe2c g     O .bss	00000004 _PathLocale
00019644 g     F .text	00000064 alt_up_ps2_write_data_byte_with_ack
0001b2e0 g     F .text	00000014 atexit
000105a0 g     F .text	00000088 OSSchedLock
0000b0e8 g     F .text	0000001c setlocale
00011ff4 g     F .text	00000128 OSFlagCreate
0001de74 g     O .rwdata	00000004 _impure_ptr
0001fe48 g     O .bss	00000004 alt_argc
00004ac8 g     F .text	000001cc scalbn
0001a3e0 g     F .text	0000005c _do_dtors
0000b0d4 g     F .text	00000008 __locale_cjk_lang
0001dea2 g     O .rwdata	00000002 OSEventMultiEn
0001211c g     F .text	00000270 OSFlagDel
0001fe98 g     O .bss	00000004 OSEventFreeList
00000020 g       .exceptions	00000000 alt_irq_entry
0000c46c g     F .text	00000060 __ulp
0001260c g     F .text	000005f0 OSFlagPend
0001deee g     O .rwdata	00000002 OSTmrEn
0001df04 g     O .rwdata	00000008 alt_fs_list
000115c4 g     F .text	00000074 OS_StrCopy
00019974 g     F .text	00000058 alt_up_rs232_enable_read_interrupt
00019ae8 g     F .text	00000040 alt_up_rs232_write_data
00000280 g     F .text	00000070 drawPixel
0001deb8 g     O .rwdata	00000002 OSMemNameSize
0001af50 g     F .text	0000001c OSInitHookEnd
00000020 g       *ABS*	00000000 __ram_exceptions_start
0001dee4 g     O .rwdata	00000002 OSTCBPrioTblMax
0000b104 g     F .text	0000000c localeconv
0001dee0 g     O .rwdata	00000002 OSTaskStatStkChkEn
0001deb4 g     O .rwdata	00000002 OSMemEn
0001debe g     O .rwdata	00000002 OSMutexEn
0001df28 g       *ABS*	00000000 _edata
00023214 g       *ABS*	00000000 _end
0001fe9c g     O .bss	00000001 OSIntNesting
00000244 g       *ABS*	00000000 __ram_exceptions_end
00018308 g     F .text	000000ec altera_avalon_jtag_uart_ioctl
00017548 g     F .text	000001f0 OSTimeDlyResume
000124bc g     F .text	00000150 OSFlagNameSet
00016d24 g     F .text	000001c8 OSTaskStkChk
0001deba g     O .rwdata	00000002 OSMemSize
0001de80 g     O .rwdata	00000004 __malloc_trim_threshold
0000b0c8 g     F .text	0000000c __locale_msgcharset
0001fea0 g     O .bss	00000004 OSTCBCur
0001b2f4 g     F .text	00000038 exit
000190ec g     F .text	00000074 alt_up_irda_read_data
0001debc g     O .rwdata	00000002 OSMemTblSize
000193e8 g     F .text	000000c4 alt_up_ps2_init
0000c2d4 g     F .text	00000198 __mdiff
00004d70 g     F .text	0000005c .hidden __modsi3
04000000 g       *ABS*	00000000 __alt_data_end
00000020 g     F .exceptions	00000000 alt_exception
000103dc g     F .text	00000054 OSInit
00017100 g     F .text	0000012c OSTaskQuery
00018bfc g     F .text	00000074 alt_up_character_lcd_string
00014df0 g     F .text	000000ac OS_QInit
00011638 g     F .text	00000054 OS_StrLen
00019280 g     F .text	00000040 alt_up_irda_open_dev
000138e4 g     F .text	00000118 OSMemNameSet
0001ded6 g     O .rwdata	00000002 OSTaskProfileEn
0001fea4 g     O .bss	00000004 OSTime
00021870 g     O .bss	00000800 OSTaskIdleStk
0001b650 g     F .text	0000003c _exit
00019fe8 g     F .text	00000140 alt_alarm_start
0001238c g     F .text	00000130 OSFlagNameGet
00017738 g     F .text	00000064 OSTimeGet
000195d4 g     F .text	00000070 alt_up_ps2_wait_for_ack
0000caac g     F .text	00000098 strlen
0001aee0 g     F .text	0000001c OSTaskSwHook
0001a900 g     F .text	00000158 open
00022070 g     O .bss	00000b40 OSEventTbl
000060fc g     F .text	000000e0 .hidden __gedf2
00022bb0 g     O .bss	00000510 OSTCBTbl
000158a8 g     F .text	000000fc OSSemSet
0001a4cc g     F .text	00000030 alt_icache_flush_all
00018cc0 g     F .text	00000074 alt_up_character_lcd_set_cursor_pos
0001df1c g     O .rwdata	00000004 alt_priority_mask
0001504c g     F .text	00000268 OSSemDel
0001fea8 g     O .bss	00000004 OSFlagFreeList
0001de9c g     O .rwdata	00000002 OSEventNameSize
0001feac g     O .bss	00000001 OSStatRdy
000230c0 g     O .bss	00000054 OSTCBPrioTbl
0000f864 g     F .text	000000c0 __env_lock
00019810 g     F .text	0000008c alt_up_ps2_read_fd
0001dee2 g     O .rwdata	00000002 OSTaskSwHookEn
000069e0 g     F .text	000008d0 .hidden __subdf3
00019160 g     F .text	00000090 alt_up_irda_read_fd
0000bcfc g     F .text	000000b0 __lo0bits
0001df20 g     O .rwdata	00000008 alt_alarm_list
0001deaa g     O .rwdata	00000002 OSFlagWidth
0001a384 g     F .text	0000005c _do_ctors
00019a28 g     F .text	00000040 alt_up_rs232_get_used_space_in_read_FIFO
0001a178 g     F .text	000000d0 close
0001fe58 g     O .bss	00000004 alt_envsem
0001feb0 g     O .bss	00000004 OSIdleCtrRun
00010a34 g     F .text	00000020 OSVersion
0001def4 g     O .rwdata	00000002 OSTmrCfgWheelSize
0000f660 g     F .text	00000080 alt_load
0001722c g     F .text	0000006c OS_TaskStkClr
0001dece g     O .rwdata	00000002 OSTaskCreateEn
00011010 g     F .text	00000064 OS_EventWaitListInit
0001af6c g     F .text	0000001c OSTaskIdleHook
00000000  w      *UND*	00000000 free
0000ba70 g     F .text	00000120 __multadd
00016eec g     F .text	00000214 OSTaskSuspend
0000ba48 g     F .text	00000028 _Bfree
0001168c g     F .text	0000005c OS_TaskIdle
0001defa g     O .rwdata	00000002 OSTmrTblSize
00014c94 g     F .text	0000015c OSQQuery



Disassembly of section .entry:

00000000 <__reset>:
#if NIOS2_ICACHE_SIZE > 0 && defined(ALT_ALLOW_CODE_AT_RESET) && (!defined(ALT_SIM_OPTIMIZE) || defined(NIOS2_ECC_PRESENT))
    /* Assume the instruction cache size is always a power of two. */
#if NIOS2_ICACHE_SIZE > 0x8000
    movhi r2, %hi(NIOS2_ICACHE_SIZE)
#else
    movui r2, NIOS2_ICACHE_SIZE
   0:	00840014 	movui	r2,4096
#endif

0:
    initi r2
   4:	1001483a 	initi	r2
    addi r2, r2, -NIOS2_ICACHE_LINE_SIZE
   8:	10bff804 	addi	r2,r2,-32
    bgt r2, zero, 0b
   c:	00bffd16 	blt	zero,r2,4 <__alt_mem_Flash_flash_data+0xf4000004>
 * Jump to the _start entry point in the .text section if reset code
 * is allowed or if optimizing for RTL simulation.
 */
#if defined(ALT_ALLOW_CODE_AT_RESET) || defined(ALT_SIM_OPTIMIZE)
    /* Jump to the _start entry point in the .text section. */
    movhi r1, %hi(_start)
  10:	00400034 	movhi	at,0
    ori r1, r1, %lo(_start)
  14:	08409114 	ori	at,at,580
    jmp r1
  18:	0800683a 	jmp	at
  1c:	00000000 	call	0 <__reset>

Disassembly of section .exceptions:

00000020 <alt_exception>:

#else /* ALT_EXCEPTION_STACK disabled */
        /* 
         * Reserve space on normal stack for registers about to be pushed.
         */
        addi  sp, sp, -76
  20:	deffed04 	addi	sp,sp,-76
         * documentation for details).
         *
         * Leave a gap in the stack frame at 4(sp) for the muldiv handler to
         * store zero into.
         */
        stw   ra,  0(sp)
  24:	dfc00015 	stw	ra,0(sp)
        stw   r1,   8(sp)
  28:	d8400215 	stw	at,8(sp)
        stw   r2,  12(sp)
  2c:	d8800315 	stw	r2,12(sp)
        stw   r3,  16(sp)
  30:	d8c00415 	stw	r3,16(sp)
        stw   r4,  20(sp)
  34:	d9000515 	stw	r4,20(sp)
        stw   r5,  24(sp)
  38:	d9400615 	stw	r5,24(sp)
        stw   r6,  28(sp)
  3c:	d9800715 	stw	r6,28(sp)
        stw   r7,  32(sp)
  40:	d9c00815 	stw	r7,32(sp)
        rdctl r5, estatus   /* Read early to avoid usage stall */
  44:	000b307a 	rdctl	r5,estatus
        stw   r8,  36(sp)
  48:	da000915 	stw	r8,36(sp)
        stw   r9,  40(sp)
  4c:	da400a15 	stw	r9,40(sp)
        stw   r10, 44(sp)
  50:	da800b15 	stw	r10,44(sp)
        stw   r11, 48(sp)
  54:	dac00c15 	stw	r11,48(sp)
        stw   r12, 52(sp)
  58:	db000d15 	stw	r12,52(sp)
        stw   r13, 56(sp)
  5c:	db400e15 	stw	r13,56(sp)
        stw   r14, 60(sp)
  60:	db800f15 	stw	r14,60(sp)
        stw   r15, 64(sp)
  64:	dbc01015 	stw	r15,64(sp)
        /*
         * ea-4 contains the address of the instruction being executed
         * when the exception occured. For interrupt exceptions, we will
         * will be re-issue the isntruction. Store it in 72(sp)
         */
        stw   r5,  68(sp)  /* estatus */
  68:	d9401115 	stw	r5,68(sp)
        addi  r15, ea, -4  /* instruction that caused exception */
  6c:	ebffff04 	addi	r15,ea,-4
        stw   r15,  72(sp)
  70:	dbc01215 	stw	r15,72(sp)
#else
        /*
         * Test to see if the exception was a software exception or caused 
         * by an external interrupt, and vector accordingly.
         */
        rdctl r4, ipending
  74:	0009313a 	rdctl	r4,ipending
        andi  r2, r5, 1
  78:	2880004c 	andi	r2,r5,1
        beq   r2, zero, .Lnot_irq
  7c:	10000326 	beq	r2,zero,8c <OSCtxSw_SWITCH_PC+0x4c>
        beq   r4, zero, .Lnot_irq
  80:	20000226 	beq	r4,zero,8c <OSCtxSw_SWITCH_PC+0x4c>
        /*
         * Now that all necessary registers have been preserved, call 
         * alt_irq_handler() to process the interrupts.
         */

        call alt_irq_handler
  84:	00000fc0 	call	fc <alt_irq_handler>

        .section .exceptions.irqreturn, "xa"

        br    .Lexception_exit
  88:	00000706 	br	a8 <OSCtxSw_SWITCH_PC+0x68>
         * upon completion, so we write ea (address of instruction *after*
         * the one where the exception occured) into 72(sp). The actual
         * instruction that caused the exception is written in r2, which these
         * handlers will utilize.
         */
        stw   ea,  72(sp)  /* Don't re-issue */
  8c:	df401215 	stw	ea,72(sp)
        ldhu.n  r2, 0(r4)
        ldhu.n  r3, 2(r4)
        slli.n  r3, r3, 16
        or.n    r2, r2, r3 /* Instruction that caused exception */
#else
        ldw   r2, -4(ea)   /* Instruction that caused exception */
  90:	e8bfff17 	ldw	r2,-4(ea)
         * debugger is present) or go into an infinite loop since the
         * handling behavior is undefined; in that case we will not return here.
         */

        /* Load exception-causing address as first argument (r4) */
        addi   r4, ea, -4
  94:	e93fff04 	addi	r4,ea,-4

        /* Call the instruction-exception entry */
        call   alt_instruction_exception_entry
  98:	00001d00 	call	1d0 <alt_instruction_exception_entry>
         * instruction
         *
         * Return code was 0: Skip. The instruction after the exception is
         * already stored in 72(sp).
         */
        bne   r2, r0, .Lexception_exit
  9c:	1000021e 	bne	r2,zero,a8 <OSCtxSw_SWITCH_PC+0x68>

        /*
         * Otherwise, modify 72(sp) to re-issue the instruction that caused the
         * exception.
         */
        addi  r15, ea, -4  /* instruction that caused exception */
  a0:	ebffff04 	addi	r15,ea,-4
        stw   r15,  72(sp)
  a4:	dbc01215 	stw	r15,72(sp)
        /* 
         * Restore the saved registers, so that all general purpose registers 
         * have been restored to their state at the time the interrupt occured.
         */

        ldw   r5,  68(sp)
  a8:	d9401117 	ldw	r5,68(sp)
        ldw   ea,  72(sp)  /* This becomes the PC once eret is executed */
  ac:	df401217 	ldw	ea,72(sp)
        ldw   ra,   0(sp)
  b0:	dfc00017 	ldw	ra,0(sp)

        wrctl estatus, r5
  b4:	2801707a 	wrctl	estatus,r5

        ldw   r1,   8(sp)
  b8:	d8400217 	ldw	at,8(sp)
        ldw   r2,  12(sp)
  bc:	d8800317 	ldw	r2,12(sp)
        ldw   r3,  16(sp)
  c0:	d8c00417 	ldw	r3,16(sp)
        ldw   r4,  20(sp)
  c4:	d9000517 	ldw	r4,20(sp)
        ldw   r5,  24(sp)
  c8:	d9400617 	ldw	r5,24(sp)
        ldw   r6,  28(sp)
  cc:	d9800717 	ldw	r6,28(sp)
        ldw   r7,  32(sp)
  d0:	d9c00817 	ldw	r7,32(sp)

#if defined(ALT_EXCEPTION_STACK) && defined(ALT_STACK_CHECK)
        ldw   et, %gprel(alt_exception_old_stack_limit)(gp)
#endif

        ldw   r8,  36(sp)
  d4:	da000917 	ldw	r8,36(sp)
        ldw   r9,  40(sp)
  d8:	da400a17 	ldw	r9,40(sp)
        ldw   r10, 44(sp)
  dc:	da800b17 	ldw	r10,44(sp)
        ldw   r11, 48(sp)
  e0:	dac00c17 	ldw	r11,48(sp)
        ldw   r12, 52(sp)
  e4:	db000d17 	ldw	r12,52(sp)
        ldw   r13, 56(sp)
  e8:	db400e17 	ldw	r13,56(sp)
        ldw   r14, 60(sp)
  ec:	db800f17 	ldw	r14,60(sp)
        ldw   r15, 64(sp)
  f0:	dbc01017 	ldw	r15,64(sp)
        stw   et, %gprel(alt_stack_limit_value)(gp)
        stw   zero, %gprel(alt_exception_old_stack_limit)(gp)
#endif /* ALT_STACK_CHECK */
        ldw   sp,  76(sp)
#else /* ALT_EXCEPTION_STACK disabled */
        addi  sp, sp, 76
  f4:	dec01304 	addi	sp,sp,76

        /*
         * Return to the interrupted instruction.
         */

        eret
  f8:	ef80083a 	eret

000000fc <alt_irq_handler>:
 * instruction is present if the macro ALT_CI_INTERRUPT_VECTOR defined.
 */

void alt_irq_handler (void) __attribute__ ((section (".exceptions")));
void alt_irq_handler (void)
{
  fc:	defff904 	addi	sp,sp,-28
 100:	dfc00615 	stw	ra,24(sp)
 104:	df000515 	stw	fp,20(sp)
 108:	df000504 	addi	fp,sp,20
  
  /*
   * Notify the operating system that we are at interrupt level.
   */ 
  
  ALT_OS_INT_ENTER();
 10c:	00104300 	call	10430 <OSIntEnter>
#ifndef NIOS2_EIC_PRESENT
static ALT_INLINE alt_u32 ALT_ALWAYS_INLINE alt_irq_pending (void)
{
  alt_u32 active;

  NIOS2_READ_IPENDING (active);
 110:	0005313a 	rdctl	r2,ipending
 114:	e0bffe15 	stw	r2,-8(fp)

  return active;
 118:	e0bffe17 	ldw	r2,-8(fp)
   * Consider the case where the high priority interupt is asserted during
   * the interrupt entry sequence for a lower priority interrupt to see why
   * this is the case.
   */

  active = alt_irq_pending ();
 11c:	e0bffb15 	stw	r2,-20(fp)

  do
  {
    i = 0;
 120:	e03ffd15 	stw	zero,-12(fp)
    mask = 1;
 124:	00800044 	movi	r2,1
 128:	e0bffc15 	stw	r2,-16(fp)
     * called to clear the interrupt condition.
     */

    do
    {
      if (active & mask)
 12c:	e0fffb17 	ldw	r3,-20(fp)
 130:	e0bffc17 	ldw	r2,-16(fp)
 134:	1884703a 	and	r2,r3,r2
 138:	10001526 	beq	r2,zero,190 <alt_irq_handler+0x94>
      { 
#ifdef ALT_ENHANCED_INTERRUPT_API_PRESENT
        alt_irq[i].handler(alt_irq[i].context); 
#else
        alt_irq[i].handler(alt_irq[i].context, i); 
 13c:	008000b4 	movhi	r2,2
 140:	108c4504 	addi	r2,r2,12564
 144:	e0fffd17 	ldw	r3,-12(fp)
 148:	180690fa 	slli	r3,r3,3
 14c:	10c5883a 	add	r2,r2,r3
 150:	10c00017 	ldw	r3,0(r2)
 154:	008000b4 	movhi	r2,2
 158:	108c4504 	addi	r2,r2,12564
 15c:	e13ffd17 	ldw	r4,-12(fp)
 160:	200890fa 	slli	r4,r4,3
 164:	21000104 	addi	r4,r4,4
 168:	1105883a 	add	r2,r2,r4
 16c:	10800017 	ldw	r2,0(r2)
 170:	1009883a 	mov	r4,r2
 174:	e17ffd17 	ldw	r5,-12(fp)
 178:	183ee83a 	callr	r3
#endif
        break;
 17c:	0001883a 	nop
#ifndef NIOS2_EIC_PRESENT
static ALT_INLINE alt_u32 ALT_ALWAYS_INLINE alt_irq_pending (void)
{
  alt_u32 active;

  NIOS2_READ_IPENDING (active);
 180:	0005313a 	rdctl	r2,ipending
 184:	e0bfff15 	stw	r2,-4(fp)

  return active;
 188:	e0bfff17 	ldw	r2,-4(fp)
 18c:	00000706 	br	1ac <alt_irq_handler+0xb0>
      }
      mask <<= 1;
 190:	e0bffc17 	ldw	r2,-16(fp)
 194:	1085883a 	add	r2,r2,r2
 198:	e0bffc15 	stw	r2,-16(fp)
      i++;
 19c:	e0bffd17 	ldw	r2,-12(fp)
 1a0:	10800044 	addi	r2,r2,1
 1a4:	e0bffd15 	stw	r2,-12(fp)

    } while (1);
 1a8:	003fe006 	br	12c <__alt_mem_Flash_flash_data+0xf400012c>

    active = alt_irq_pending ();
 1ac:	e0bffb15 	stw	r2,-20(fp)
    
  } while (active);
 1b0:	e0bffb17 	ldw	r2,-20(fp)
 1b4:	103fda1e 	bne	r2,zero,120 <__alt_mem_Flash_flash_data+0xf4000120>

  /*
   * Notify the operating system that interrupt processing is complete.
   */ 

  ALT_OS_INT_EXIT();
 1b8:	00104ac0 	call	104ac <OSIntExit>
}
 1bc:	e037883a 	mov	sp,fp
 1c0:	dfc00117 	ldw	ra,4(sp)
 1c4:	df000017 	ldw	fp,0(sp)
 1c8:	dec00204 	addi	sp,sp,8
 1cc:	f800283a 	ret

000001d0 <alt_instruction_exception_entry>:
 * that handler if it has been registered. Absent a handler, it will
 * break break or hang as discussed below.
 */
int 
alt_instruction_exception_entry (alt_u32 exception_pc)
{
 1d0:	defffb04 	addi	sp,sp,-20
 1d4:	dfc00415 	stw	ra,16(sp)
 1d8:	df000315 	stw	fp,12(sp)
 1dc:	df000304 	addi	fp,sp,12
 1e0:	e13fff15 	stw	r4,-4(fp)
 * NIOS2_EXCEPTION_CAUSE_NOT_PRESENT. Your handling routine should
 * check the validity of the cause argument before proceeding.
 */
#ifdef NIOS2_HAS_EXTRA_EXCEPTION_INFO
  /* Get exception cause & "badaddr" */
  NIOS2_READ_EXCEPTION(cause);
 1e4:	000531fa 	rdctl	r2,exception
 1e8:	e0bffd15 	stw	r2,-12(fp)
  cause = ( (cause & NIOS2_EXCEPTION_REG_CAUSE_MASK) >>
 1ec:	e0bffd17 	ldw	r2,-12(fp)
 1f0:	10801f0c 	andi	r2,r2,124
 1f4:	1004d0ba 	srli	r2,r2,2
 1f8:	e0bffd15 	stw	r2,-12(fp)
              NIOS2_EXCEPTION_REG_CAUSE_OFST );

  NIOS2_READ_BADADDR(badaddr);
 1fc:	0005333a 	rdctl	r2,badaddr
 200:	e0bffe15 	stw	r2,-8(fp)
#else
  cause = NIOS2_EXCEPTION_CAUSE_NOT_PRESENT;
  badaddr = 0;
#endif /* NIOS2_HAS_EXTRA_EXCEPTION_INFO */

  if(alt_instruction_exception_handler) {
 204:	d0a81517 	ldw	r2,-24492(gp)
 208:	10000726 	beq	r2,zero,228 <alt_instruction_exception_entry+0x58>
     * Call handler. Its return value indicates whether the exception-causing
     * instruction should be re-issued. The code that called us,
     * alt_eceptions_entry.S, will look at this value and adjust the ea
     * register as necessary
     */
    return alt_instruction_exception_handler(cause, exception_pc, badaddr);
 20c:	d0a81517 	ldw	r2,-24492(gp)
 210:	e0fffd17 	ldw	r3,-12(fp)
 214:	1809883a 	mov	r4,r3
 218:	e17fff17 	ldw	r5,-4(fp)
 21c:	e1bffe17 	ldw	r6,-8(fp)
 220:	103ee83a 	callr	r2
 224:	00000206 	br	230 <alt_instruction_exception_entry+0x60>
   *    (a peripheral which negates its interrupt output before its
   *    interrupt handler has been executed will cause spurious interrupts)
   */
  else {
#ifdef NIOS2_HAS_DEBUG_STUB
    NIOS2_BREAK();
 228:	003da03a 	break	0
      ;
#endif /* NIOS2_HAS_DEBUG_STUB */
  }

  /* We should not get here. Remove compiler warning. */
  return NIOS2_EXCEPTION_RETURN_REISSUE_INST;
 22c:	0005883a 	mov	r2,zero
}
 230:	e037883a 	mov	sp,fp
 234:	dfc00117 	ldw	ra,4(sp)
 238:	df000017 	ldw	fp,0(sp)
 23c:	dec00204 	addi	sp,sp,8
 240:	f800283a 	ret

Disassembly of section .text:

00000244 <_start>:

    /*
     * Now that the caches are initialized, set up the stack pointer and global pointer.
     * The values provided by the linker are assumed to be correctly aligned.
     */
    movhi sp, %hi(__alt_stack_pointer)
     244:	06c10034 	movhi	sp,1024
    ori sp, sp, %lo(__alt_stack_pointer)
     248:	dec00014 	ori	sp,sp,0
    movhi gp, %hi(_gp)
     24c:	068000b4 	movhi	gp,2
    ori gp, gp, %lo(_gp)
     250:	d6979c14 	ori	gp,gp,24176
 */
#ifndef ALT_SIM_OPTIMIZE
    /* Log that the BSS is about to be cleared. */
    ALT_LOG_PUTS(alt_log_msg_bss)

    movhi r2, %hi(__bss_start)
     254:	00800074 	movhi	r2,1
    ori r2, r2, %lo(__bss_start)
     258:	10bf8714 	ori	r2,r2,65052

    movhi r3, %hi(__bss_end)
     25c:	00c000b4 	movhi	r3,2
    ori r3, r3, %lo(__bss_end)
     260:	18cc8514 	ori	r3,r3,12820

    beq r2, r3, 1f
     264:	10c00326 	beq	r2,r3,274 <_start+0x30>

0:
    stw zero, (r2)
     268:	10000015 	stw	zero,0(r2)
    addi r2, r2, 4
     26c:	10800104 	addi	r2,r2,4
    bltu r2, r3, 0b
     270:	10fffd36 	bltu	r2,r3,268 <__alt_mem_Flash_flash_data+0xf4000268>
     * section aren't defined until alt_load() has been called).
     */
    mov   et, zero
#endif

    call alt_load
     274:	000f6600 	call	f660 <alt_load>

    /* Log that alt_main is about to be called. */
    ALT_LOG_PUTS(alt_log_msg_alt_main)

    /* Call the C entry point. It should never return. */
    call alt_main
     278:	000f6e00 	call	f6e0 <alt_main>

0000027c <alt_after_alt_main>:

    /* Wait in infinite loop in case alt_main does return. */
alt_after_alt_main:
    br alt_after_alt_main
     27c:	003fff06 	br	27c <__alt_mem_Flash_flash_data+0xf400027c>

00000280 <drawPixel>:
void HEX_PS2(char, char, char);
void check_KEYs( int *, int *, int * );


void drawPixel(int x, int y, int size, short pixel_color )
{
     280:	defff904 	addi	sp,sp,-28
     284:	dfc00615 	stw	ra,24(sp)
     288:	df000515 	stw	fp,20(sp)
     28c:	df000504 	addi	fp,sp,20
     290:	e13ffc15 	stw	r4,-16(fp)
     294:	e17ffd15 	stw	r5,-12(fp)
     298:	e1bffe15 	stw	r6,-8(fp)
     29c:	3805883a 	mov	r2,r7
     2a0:	e0bfff0d 	sth	r2,-4(fp)
	VGA_box (x, y, x + size - 1, y + size - 1, pixel_color);
     2a4:	e0fffc17 	ldw	r3,-16(fp)
     2a8:	e0bffe17 	ldw	r2,-8(fp)
     2ac:	1885883a 	add	r2,r3,r2
     2b0:	11bfffc4 	addi	r6,r2,-1
     2b4:	e0fffd17 	ldw	r3,-12(fp)
     2b8:	e0bffe17 	ldw	r2,-8(fp)
     2bc:	1885883a 	add	r2,r3,r2
     2c0:	10ffffc4 	addi	r3,r2,-1
     2c4:	e0bfff0f 	ldh	r2,-4(fp)
     2c8:	d8800015 	stw	r2,0(sp)
     2cc:	e13ffc17 	ldw	r4,-16(fp)
     2d0:	e17ffd17 	ldw	r5,-12(fp)
     2d4:	180f883a 	mov	r7,r3
     2d8:	00027e40 	call	27e4 <VGA_box>
}
     2dc:	e037883a 	mov	sp,fp
     2e0:	dfc00117 	ldw	ra,4(sp)
     2e4:	df000017 	ldw	fp,0(sp)
     2e8:	dec00204 	addi	sp,sp,8
     2ec:	f800283a 	ret

000002f0 <removePixel>:

void removePixel(int x, int y, int size)
{
     2f0:	defffa04 	addi	sp,sp,-24
     2f4:	dfc00515 	stw	ra,20(sp)
     2f8:	df000415 	stw	fp,16(sp)
     2fc:	df000404 	addi	fp,sp,16
     300:	e13ffd15 	stw	r4,-12(fp)
     304:	e17ffe15 	stw	r5,-8(fp)
     308:	e1bfff15 	stw	r6,-4(fp)
	VGA_box (x, y, x +(size - 1), y + (size - 1), 0x0000);
     30c:	e0bfff17 	ldw	r2,-4(fp)
     310:	10ffffc4 	addi	r3,r2,-1
     314:	e0bffd17 	ldw	r2,-12(fp)
     318:	188d883a 	add	r6,r3,r2
     31c:	e0bfff17 	ldw	r2,-4(fp)
     320:	10ffffc4 	addi	r3,r2,-1
     324:	e0bffe17 	ldw	r2,-8(fp)
     328:	1885883a 	add	r2,r3,r2
     32c:	d8000015 	stw	zero,0(sp)
     330:	e13ffd17 	ldw	r4,-12(fp)
     334:	e17ffe17 	ldw	r5,-8(fp)
     338:	100f883a 	mov	r7,r2
     33c:	00027e40 	call	27e4 <VGA_box>
}
     340:	e037883a 	mov	sp,fp
     344:	dfc00117 	ldw	ra,4(sp)
     348:	df000017 	ldw	fp,0(sp)
     34c:	dec00204 	addi	sp,sp,8
     350:	f800283a 	ret

00000354 <drawLine>:


void drawLine(double x1, double y1, double x2, double y2, double midX, double midY, int size, int remove, short pixel_color)
{
     354:	deffda04 	addi	sp,sp,-152
     358:	dfc02515 	stw	ra,148(sp)
     35c:	df002415 	stw	fp,144(sp)
     360:	dc002315 	stw	r16,140(sp)
     364:	df002404 	addi	fp,sp,144
     368:	e13ffa15 	stw	r4,-24(fp)
     36c:	e17ffb15 	stw	r5,-20(fp)
     370:	e1bffc15 	stw	r6,-16(fp)
     374:	e1fffd15 	stw	r7,-12(fp)
     378:	e0800c17 	ldw	r2,48(fp)
     37c:	e0bffe0d 	sth	r2,-8(fp)
    y1 = y1 * -1;
     380:	e0bffc17 	ldw	r2,-16(fp)
     384:	e0bffc15 	stw	r2,-16(fp)
     388:	e0bffd17 	ldw	r2,-12(fp)
     38c:	10a0003c 	xorhi	r2,r2,32768
     390:	e0bffd15 	stw	r2,-12(fp)
    y2 = y2 * -1;
     394:	e0800417 	ldw	r2,16(fp)
     398:	e0800415 	stw	r2,16(fp)
     39c:	e0800517 	ldw	r2,20(fp)
     3a0:	10a0003c 	xorhi	r2,r2,32768
     3a4:	e0800515 	stw	r2,20(fp)

    x1 = x1 + midX;
     3a8:	e13ffa17 	ldw	r4,-24(fp)
     3ac:	e17ffb17 	ldw	r5,-20(fp)
     3b0:	e1800617 	ldw	r6,24(fp)
     3b4:	e1c00717 	ldw	r7,28(fp)
     3b8:	0004f100 	call	4f10 <__adddf3>
     3bc:	1009883a 	mov	r4,r2
     3c0:	180b883a 	mov	r5,r3
     3c4:	e13ffa15 	stw	r4,-24(fp)
     3c8:	e17ffb15 	stw	r5,-20(fp)
    x2 = x2 + midX;
     3cc:	e1000217 	ldw	r4,8(fp)
     3d0:	e1400317 	ldw	r5,12(fp)
     3d4:	e1800617 	ldw	r6,24(fp)
     3d8:	e1c00717 	ldw	r7,28(fp)
     3dc:	0004f100 	call	4f10 <__adddf3>
     3e0:	1009883a 	mov	r4,r2
     3e4:	180b883a 	mov	r5,r3
     3e8:	e1000215 	stw	r4,8(fp)
     3ec:	e1400315 	stw	r5,12(fp)
    y1 = y1 + midY;
     3f0:	e13ffc17 	ldw	r4,-16(fp)
     3f4:	e17ffd17 	ldw	r5,-12(fp)
     3f8:	e1800817 	ldw	r6,32(fp)
     3fc:	e1c00917 	ldw	r7,36(fp)
     400:	0004f100 	call	4f10 <__adddf3>
     404:	1009883a 	mov	r4,r2
     408:	180b883a 	mov	r5,r3
     40c:	e13ffc15 	stw	r4,-16(fp)
     410:	e17ffd15 	stw	r5,-12(fp)
    y2 = y2 + midY;
     414:	e1000417 	ldw	r4,16(fp)
     418:	e1400517 	ldw	r5,20(fp)
     41c:	e1800817 	ldw	r6,32(fp)
     420:	e1c00917 	ldw	r7,36(fp)
     424:	0004f100 	call	4f10 <__adddf3>
     428:	1009883a 	mov	r4,r2
     42c:	180b883a 	mov	r5,r3
     430:	e1000415 	stw	r4,16(fp)
     434:	e1400515 	stw	r5,20(fp)


    //switch points when first point is behind second point on x axel
    if (x2 < x1)
     438:	e1000217 	ldw	r4,8(fp)
     43c:	e1400317 	ldw	r5,12(fp)
     440:	e1bffa17 	ldw	r6,-24(fp)
     444:	e1fffb17 	ldw	r7,-20(fp)
     448:	00061dc0 	call	61dc <__ledf2>
     44c:	1000180e 	bge	r2,zero,4b0 <drawLine+0x15c>
    {
        double tempX = x1;
     450:	e0bffa17 	ldw	r2,-24(fp)
     454:	e0bfea15 	stw	r2,-88(fp)
     458:	e0bffb17 	ldw	r2,-20(fp)
     45c:	e0bfeb15 	stw	r2,-84(fp)
        double tempY = y1;
     460:	e0bffc17 	ldw	r2,-16(fp)
     464:	e0bfec15 	stw	r2,-80(fp)
     468:	e0bffd17 	ldw	r2,-12(fp)
     46c:	e0bfed15 	stw	r2,-76(fp)
        x1 = x2;
     470:	e0800217 	ldw	r2,8(fp)
     474:	e0bffa15 	stw	r2,-24(fp)
     478:	e0800317 	ldw	r2,12(fp)
     47c:	e0bffb15 	stw	r2,-20(fp)
        y1 = y2;
     480:	e0800417 	ldw	r2,16(fp)
     484:	e0bffc15 	stw	r2,-16(fp)
     488:	e0800517 	ldw	r2,20(fp)
     48c:	e0bffd15 	stw	r2,-12(fp)

        x2 = tempX;
     490:	e0bfea17 	ldw	r2,-88(fp)
     494:	e0800215 	stw	r2,8(fp)
     498:	e0bfeb17 	ldw	r2,-84(fp)
     49c:	e0800315 	stw	r2,12(fp)
        y2 = tempY;
     4a0:	e0bfec17 	ldw	r2,-80(fp)
     4a4:	e0800415 	stw	r2,16(fp)
     4a8:	e0bfed17 	ldw	r2,-76(fp)
     4ac:	e0800515 	stw	r2,20(fp)
    }

    //setup vars for loop
    double x = 0;
     4b0:	e03fdc15 	stw	zero,-144(fp)
     4b4:	e03fdd15 	stw	zero,-140(fp)
    double y = 0;
     4b8:	e03fde15 	stw	zero,-136(fp)
     4bc:	e03fdf15 	stw	zero,-132(fp)
    double prevY = 0;
     4c0:	e03fe015 	stw	zero,-128(fp)
     4c4:	e03fe115 	stw	zero,-124(fp)
    double prevX = 0;
     4c8:	e03fe215 	stw	zero,-120(fp)
     4cc:	e03fe315 	stw	zero,-116(fp)
    //for loop for drawing beam
    for (x = x1; x <= x2; x++)
     4d0:	e0bffa17 	ldw	r2,-24(fp)
     4d4:	e0bfdc15 	stw	r2,-144(fp)
     4d8:	e0bffb17 	ldw	r2,-20(fp)
     4dc:	e0bfdd15 	stw	r2,-140(fp)
     4e0:	00012606 	br	97c <drawLine+0x628>
    {
    		y = 0;
     4e4:	e03fde15 	stw	zero,-136(fp)
     4e8:	e03fdf15 	stw	zero,-132(fp)
            //formula for drawing beam between nodes
			if ((x2 - x1) == 0)
     4ec:	e1000217 	ldw	r4,8(fp)
     4f0:	e1400317 	ldw	r5,12(fp)
     4f4:	e1bffa17 	ldw	r6,-24(fp)
     4f8:	e1fffb17 	ldw	r7,-20(fp)
     4fc:	00069e00 	call	69e0 <__subdf3>
     500:	1009883a 	mov	r4,r2
     504:	180b883a 	mov	r5,r3
     508:	2005883a 	mov	r2,r4
     50c:	2807883a 	mov	r3,r5
     510:	1009883a 	mov	r4,r2
     514:	180b883a 	mov	r5,r3
     518:	000d883a 	mov	r6,zero
     51c:	000f883a 	mov	r7,zero
     520:	00060780 	call	6078 <__eqdf2>
     524:	1000431e 	bne	r2,zero,634 <drawLine+0x2e0>
			{
                double count;

                if (y2 > y1)
     528:	e1000417 	ldw	r4,16(fp)
     52c:	e1400517 	ldw	r5,20(fp)
     530:	e1bffc17 	ldw	r6,-16(fp)
     534:	e1fffd17 	ldw	r7,-12(fp)
     538:	00060fc0 	call	60fc <__gedf2>
     53c:	00800c0e 	bge	zero,r2,570 <drawLine+0x21c>
                {
                    double tempY = y1;
     540:	e0bffc17 	ldw	r2,-16(fp)
     544:	e0bfee15 	stw	r2,-72(fp)
     548:	e0bffd17 	ldw	r2,-12(fp)
     54c:	e0bfef15 	stw	r2,-68(fp)
                    y1 = y2;
     550:	e0800417 	ldw	r2,16(fp)
     554:	e0bffc15 	stw	r2,-16(fp)
     558:	e0800517 	ldw	r2,20(fp)
     55c:	e0bffd15 	stw	r2,-12(fp)
                    y2 = tempY;
     560:	e0bfee17 	ldw	r2,-72(fp)
     564:	e0800415 	stw	r2,16(fp)
     568:	e0bfef17 	ldw	r2,-68(fp)
     56c:	e0800515 	stw	r2,20(fp)
                }
                for (count = y2; count <= y1; count++)
     570:	e0800417 	ldw	r2,16(fp)
     574:	e0bfe415 	stw	r2,-112(fp)
     578:	e0800517 	ldw	r2,20(fp)
     57c:	e0bfe515 	stw	r2,-108(fp)
     580:	00002506 	br	618 <drawLine+0x2c4>
                {
                    if (!remove)
     584:	e0800b17 	ldw	r2,44(fp)
     588:	10000f1e 	bne	r2,zero,5c8 <drawLine+0x274>
                    {
                        drawPixel((int)x, (int)count, size, pixel_color);
     58c:	e13fdc17 	ldw	r4,-144(fp)
     590:	e17fdd17 	ldw	r5,-140(fp)
     594:	00072b00 	call	72b0 <__fixdfsi>
     598:	1021883a 	mov	r16,r2
     59c:	e13fe417 	ldw	r4,-112(fp)
     5a0:	e17fe517 	ldw	r5,-108(fp)
     5a4:	00072b00 	call	72b0 <__fixdfsi>
     5a8:	1007883a 	mov	r3,r2
     5ac:	e0bffe0f 	ldh	r2,-8(fp)
     5b0:	8009883a 	mov	r4,r16
     5b4:	180b883a 	mov	r5,r3
     5b8:	e1800a17 	ldw	r6,40(fp)
     5bc:	100f883a 	mov	r7,r2
     5c0:	00002800 	call	280 <drawPixel>
     5c4:	00000b06 	br	5f4 <drawLine+0x2a0>
                    }
                    else
                    {
                        removePixel((int)x, (int)count, size);
     5c8:	e13fdc17 	ldw	r4,-144(fp)
     5cc:	e17fdd17 	ldw	r5,-140(fp)
     5d0:	00072b00 	call	72b0 <__fixdfsi>
     5d4:	1021883a 	mov	r16,r2
     5d8:	e13fe417 	ldw	r4,-112(fp)
     5dc:	e17fe517 	ldw	r5,-108(fp)
     5e0:	00072b00 	call	72b0 <__fixdfsi>
     5e4:	8009883a 	mov	r4,r16
     5e8:	100b883a 	mov	r5,r2
     5ec:	e1800a17 	ldw	r6,40(fp)
     5f0:	00002f00 	call	2f0 <removePixel>
                {
                    double tempY = y1;
                    y1 = y2;
                    y2 = tempY;
                }
                for (count = y2; count <= y1; count++)
     5f4:	e13fe417 	ldw	r4,-112(fp)
     5f8:	e17fe517 	ldw	r5,-108(fp)
     5fc:	000d883a 	mov	r6,zero
     600:	01cffc34 	movhi	r7,16368
     604:	0004f100 	call	4f10 <__adddf3>
     608:	1009883a 	mov	r4,r2
     60c:	180b883a 	mov	r5,r3
     610:	e13fe415 	stw	r4,-112(fp)
     614:	e17fe515 	stw	r5,-108(fp)
     618:	e13fe417 	ldw	r4,-112(fp)
     61c:	e17fe517 	ldw	r5,-108(fp)
     620:	e1bffc17 	ldw	r6,-16(fp)
     624:	e1fffd17 	ldw	r7,-12(fp)
     628:	00061dc0 	call	61dc <__ledf2>
     62c:	00bfd50e 	bge	zero,r2,584 <__alt_mem_Flash_flash_data+0xf4000584>
     630:	00003606 	br	70c <drawLine+0x3b8>
                }

            }
            else
            {
            	double a = y2 - y1;
     634:	e1000417 	ldw	r4,16(fp)
     638:	e1400517 	ldw	r5,20(fp)
     63c:	e1bffc17 	ldw	r6,-16(fp)
     640:	e1fffd17 	ldw	r7,-12(fp)
     644:	00069e00 	call	69e0 <__subdf3>
     648:	1009883a 	mov	r4,r2
     64c:	180b883a 	mov	r5,r3
     650:	e13ff015 	stw	r4,-64(fp)
     654:	e17ff115 	stw	r5,-60(fp)
            	double b = x2 - x1;
     658:	e1000217 	ldw	r4,8(fp)
     65c:	e1400317 	ldw	r5,12(fp)
     660:	e1bffa17 	ldw	r6,-24(fp)
     664:	e1fffb17 	ldw	r7,-20(fp)
     668:	00069e00 	call	69e0 <__subdf3>
     66c:	1009883a 	mov	r4,r2
     670:	180b883a 	mov	r5,r3
     674:	e13ff215 	stw	r4,-56(fp)
     678:	e17ff315 	stw	r5,-52(fp)
            	double c = a /b;
     67c:	e13ff017 	ldw	r4,-64(fp)
     680:	e17ff117 	ldw	r5,-60(fp)
     684:	e1bff217 	ldw	r6,-56(fp)
     688:	e1fff317 	ldw	r7,-52(fp)
     68c:	00057ac0 	call	57ac <__divdf3>
     690:	1009883a 	mov	r4,r2
     694:	180b883a 	mov	r5,r3
     698:	e13ff415 	stw	r4,-48(fp)
     69c:	e17ff515 	stw	r5,-44(fp)
            	double d = x - x1;
     6a0:	e13fdc17 	ldw	r4,-144(fp)
     6a4:	e17fdd17 	ldw	r5,-140(fp)
     6a8:	e1bffa17 	ldw	r6,-24(fp)
     6ac:	e1fffb17 	ldw	r7,-20(fp)
     6b0:	00069e00 	call	69e0 <__subdf3>
     6b4:	1009883a 	mov	r4,r2
     6b8:	180b883a 	mov	r5,r3
     6bc:	e13ff615 	stw	r4,-40(fp)
     6c0:	e17ff715 	stw	r5,-36(fp)
            	double e = c * d;
     6c4:	e13ff417 	ldw	r4,-48(fp)
     6c8:	e17ff517 	ldw	r5,-44(fp)
     6cc:	e1bff617 	ldw	r6,-40(fp)
     6d0:	e1fff717 	ldw	r7,-36(fp)
     6d4:	00062bc0 	call	62bc <__muldf3>
     6d8:	1009883a 	mov	r4,r2
     6dc:	180b883a 	mov	r5,r3
     6e0:	e13ff815 	stw	r4,-32(fp)
     6e4:	e17ff915 	stw	r5,-28(fp)
                y = e + y1;
     6e8:	e13ff817 	ldw	r4,-32(fp)
     6ec:	e17ff917 	ldw	r5,-28(fp)
     6f0:	e1bffc17 	ldw	r6,-16(fp)
     6f4:	e1fffd17 	ldw	r7,-12(fp)
     6f8:	0004f100 	call	4f10 <__adddf3>
     6fc:	1009883a 	mov	r4,r2
     700:	180b883a 	mov	r5,r3
     704:	e13fde15 	stw	r4,-136(fp)
     708:	e17fdf15 	stw	r5,-132(fp)
            }

			 //drawing all pixels of beam between nodes
			        if (y - prevY > 0 && x != 0)
     70c:	e13fde17 	ldw	r4,-136(fp)
     710:	e17fdf17 	ldw	r5,-132(fp)
     714:	e1bfe017 	ldw	r6,-128(fp)
     718:	e1ffe117 	ldw	r7,-124(fp)
     71c:	00069e00 	call	69e0 <__subdf3>
     720:	1009883a 	mov	r4,r2
     724:	180b883a 	mov	r5,r3
     728:	2005883a 	mov	r2,r4
     72c:	2807883a 	mov	r3,r5
     730:	1009883a 	mov	r4,r2
     734:	180b883a 	mov	r5,r3
     738:	000d883a 	mov	r6,zero
     73c:	000f883a 	mov	r7,zero
     740:	00060fc0 	call	60fc <__gedf2>
     744:	0080370e 	bge	zero,r2,824 <drawLine+0x4d0>
     748:	e13fdc17 	ldw	r4,-144(fp)
     74c:	e17fdd17 	ldw	r5,-140(fp)
     750:	000d883a 	mov	r6,zero
     754:	000f883a 	mov	r7,zero
     758:	00060780 	call	6078 <__eqdf2>
     75c:	10003126 	beq	r2,zero,824 <drawLine+0x4d0>
			        {

			            double counter;
			            for (counter = prevY; counter <= y; counter++)
     760:	e0bfe017 	ldw	r2,-128(fp)
     764:	e0bfe615 	stw	r2,-104(fp)
     768:	e0bfe117 	ldw	r2,-124(fp)
     76c:	e0bfe715 	stw	r2,-100(fp)
     770:	00002506 	br	808 <drawLine+0x4b4>
			            {
			                if (!remove)
     774:	e0800b17 	ldw	r2,44(fp)
     778:	10000f1e 	bne	r2,zero,7b8 <drawLine+0x464>
			                {
			                    drawPixel((int)prevX, (int)counter, size, pixel_color);
     77c:	e13fe217 	ldw	r4,-120(fp)
     780:	e17fe317 	ldw	r5,-116(fp)
     784:	00072b00 	call	72b0 <__fixdfsi>
     788:	1021883a 	mov	r16,r2
     78c:	e13fe617 	ldw	r4,-104(fp)
     790:	e17fe717 	ldw	r5,-100(fp)
     794:	00072b00 	call	72b0 <__fixdfsi>
     798:	1007883a 	mov	r3,r2
     79c:	e0bffe0f 	ldh	r2,-8(fp)
     7a0:	8009883a 	mov	r4,r16
     7a4:	180b883a 	mov	r5,r3
     7a8:	e1800a17 	ldw	r6,40(fp)
     7ac:	100f883a 	mov	r7,r2
     7b0:	00002800 	call	280 <drawPixel>
     7b4:	00000b06 	br	7e4 <drawLine+0x490>
			                }
			                else
			                {
			                    removePixel((int)prevX, (int)counter, size);
     7b8:	e13fe217 	ldw	r4,-120(fp)
     7bc:	e17fe317 	ldw	r5,-116(fp)
     7c0:	00072b00 	call	72b0 <__fixdfsi>
     7c4:	1021883a 	mov	r16,r2
     7c8:	e13fe617 	ldw	r4,-104(fp)
     7cc:	e17fe717 	ldw	r5,-100(fp)
     7d0:	00072b00 	call	72b0 <__fixdfsi>
     7d4:	8009883a 	mov	r4,r16
     7d8:	100b883a 	mov	r5,r2
     7dc:	e1800a17 	ldw	r6,40(fp)
     7e0:	00002f00 	call	2f0 <removePixel>
			 //drawing all pixels of beam between nodes
			        if (y - prevY > 0 && x != 0)
			        {

			            double counter;
			            for (counter = prevY; counter <= y; counter++)
     7e4:	e13fe617 	ldw	r4,-104(fp)
     7e8:	e17fe717 	ldw	r5,-100(fp)
     7ec:	000d883a 	mov	r6,zero
     7f0:	01cffc34 	movhi	r7,16368
     7f4:	0004f100 	call	4f10 <__adddf3>
     7f8:	1009883a 	mov	r4,r2
     7fc:	180b883a 	mov	r5,r3
     800:	e13fe615 	stw	r4,-104(fp)
     804:	e17fe715 	stw	r5,-100(fp)
     808:	e13fe617 	ldw	r4,-104(fp)
     80c:	e17fe717 	ldw	r5,-100(fp)
     810:	e1bfde17 	ldw	r6,-136(fp)
     814:	e1ffdf17 	ldw	r7,-132(fp)
     818:	00061dc0 	call	61dc <__ledf2>
     81c:	00bfd50e 	bge	zero,r2,774 <__alt_mem_Flash_flash_data+0xf4000774>
                y = e + y1;
            }

			 //drawing all pixels of beam between nodes
			        if (y - prevY > 0 && x != 0)
			        {
     820:	00004506 	br	938 <drawLine+0x5e4>
			                {
			                    removePixel((int)prevX, (int)counter, size);
			                }
			            }
			        }
			        else if (prevY - y > 0 && x != 0)
     824:	e13fe017 	ldw	r4,-128(fp)
     828:	e17fe117 	ldw	r5,-124(fp)
     82c:	e1bfde17 	ldw	r6,-136(fp)
     830:	e1ffdf17 	ldw	r7,-132(fp)
     834:	00069e00 	call	69e0 <__subdf3>
     838:	1009883a 	mov	r4,r2
     83c:	180b883a 	mov	r5,r3
     840:	2005883a 	mov	r2,r4
     844:	2807883a 	mov	r3,r5
     848:	1009883a 	mov	r4,r2
     84c:	180b883a 	mov	r5,r3
     850:	000d883a 	mov	r6,zero
     854:	000f883a 	mov	r7,zero
     858:	00060fc0 	call	60fc <__gedf2>
     85c:	0080360e 	bge	zero,r2,938 <drawLine+0x5e4>
     860:	e13fdc17 	ldw	r4,-144(fp)
     864:	e17fdd17 	ldw	r5,-140(fp)
     868:	000d883a 	mov	r6,zero
     86c:	000f883a 	mov	r7,zero
     870:	00060780 	call	6078 <__eqdf2>
     874:	10003026 	beq	r2,zero,938 <drawLine+0x5e4>
			        {
			            double counter;
			            for (counter = y; counter <= prevY; counter++)
     878:	e0bfde17 	ldw	r2,-136(fp)
     87c:	e0bfe815 	stw	r2,-96(fp)
     880:	e0bfdf17 	ldw	r2,-132(fp)
     884:	e0bfe915 	stw	r2,-92(fp)
     888:	00002506 	br	920 <drawLine+0x5cc>
			            {
			                if (!remove)
     88c:	e0800b17 	ldw	r2,44(fp)
     890:	10000f1e 	bne	r2,zero,8d0 <drawLine+0x57c>
			                {
			                    drawPixel((int)prevX, (int)counter, size, pixel_color);
     894:	e13fe217 	ldw	r4,-120(fp)
     898:	e17fe317 	ldw	r5,-116(fp)
     89c:	00072b00 	call	72b0 <__fixdfsi>
     8a0:	1021883a 	mov	r16,r2
     8a4:	e13fe817 	ldw	r4,-96(fp)
     8a8:	e17fe917 	ldw	r5,-92(fp)
     8ac:	00072b00 	call	72b0 <__fixdfsi>
     8b0:	1007883a 	mov	r3,r2
     8b4:	e0bffe0f 	ldh	r2,-8(fp)
     8b8:	8009883a 	mov	r4,r16
     8bc:	180b883a 	mov	r5,r3
     8c0:	e1800a17 	ldw	r6,40(fp)
     8c4:	100f883a 	mov	r7,r2
     8c8:	00002800 	call	280 <drawPixel>
     8cc:	00000b06 	br	8fc <drawLine+0x5a8>
			                }
			                else
			                {
			                    removePixel((int)prevX, (int)counter, size);
     8d0:	e13fe217 	ldw	r4,-120(fp)
     8d4:	e17fe317 	ldw	r5,-116(fp)
     8d8:	00072b00 	call	72b0 <__fixdfsi>
     8dc:	1021883a 	mov	r16,r2
     8e0:	e13fe817 	ldw	r4,-96(fp)
     8e4:	e17fe917 	ldw	r5,-92(fp)
     8e8:	00072b00 	call	72b0 <__fixdfsi>
     8ec:	8009883a 	mov	r4,r16
     8f0:	100b883a 	mov	r5,r2
     8f4:	e1800a17 	ldw	r6,40(fp)
     8f8:	00002f00 	call	2f0 <removePixel>
			            }
			        }
			        else if (prevY - y > 0 && x != 0)
			        {
			            double counter;
			            for (counter = y; counter <= prevY; counter++)
     8fc:	e13fe817 	ldw	r4,-96(fp)
     900:	e17fe917 	ldw	r5,-92(fp)
     904:	000d883a 	mov	r6,zero
     908:	01cffc34 	movhi	r7,16368
     90c:	0004f100 	call	4f10 <__adddf3>
     910:	1009883a 	mov	r4,r2
     914:	180b883a 	mov	r5,r3
     918:	e13fe815 	stw	r4,-96(fp)
     91c:	e17fe915 	stw	r5,-92(fp)
     920:	e13fe817 	ldw	r4,-96(fp)
     924:	e17fe917 	ldw	r5,-92(fp)
     928:	e1bfe017 	ldw	r6,-128(fp)
     92c:	e1ffe117 	ldw	r7,-124(fp)
     930:	00061dc0 	call	61dc <__ledf2>
     934:	00bfd50e 	bge	zero,r2,88c <__alt_mem_Flash_flash_data+0xf400088c>
			        else
			        {
			            removePixel((int)x, (int)y, size);
			        }*/

			        prevY = y;
     938:	e0bfde17 	ldw	r2,-136(fp)
     93c:	e0bfe015 	stw	r2,-128(fp)
     940:	e0bfdf17 	ldw	r2,-132(fp)
     944:	e0bfe115 	stw	r2,-124(fp)
			        prevX = x;
     948:	e0bfdc17 	ldw	r2,-144(fp)
     94c:	e0bfe215 	stw	r2,-120(fp)
     950:	e0bfdd17 	ldw	r2,-140(fp)
     954:	e0bfe315 	stw	r2,-116(fp)
    double x = 0;
    double y = 0;
    double prevY = 0;
    double prevX = 0;
    //for loop for drawing beam
    for (x = x1; x <= x2; x++)
     958:	e13fdc17 	ldw	r4,-144(fp)
     95c:	e17fdd17 	ldw	r5,-140(fp)
     960:	000d883a 	mov	r6,zero
     964:	01cffc34 	movhi	r7,16368
     968:	0004f100 	call	4f10 <__adddf3>
     96c:	1009883a 	mov	r4,r2
     970:	180b883a 	mov	r5,r3
     974:	e13fdc15 	stw	r4,-144(fp)
     978:	e17fdd15 	stw	r5,-140(fp)
     97c:	e13fdc17 	ldw	r4,-144(fp)
     980:	e17fdd17 	ldw	r5,-140(fp)
     984:	e1800217 	ldw	r6,8(fp)
     988:	e1c00317 	ldw	r7,12(fp)
     98c:	00061dc0 	call	61dc <__ledf2>
     990:	00bed40e 	bge	zero,r2,4e4 <__alt_mem_Flash_flash_data+0xf40004e4>
			        prevY = y;
			        prevX = x;

        }

}
     994:	e6ffff04 	addi	sp,fp,-4
     998:	dfc00217 	ldw	ra,8(sp)
     99c:	df000117 	ldw	fp,4(sp)
     9a0:	dc000017 	ldw	r16,0(sp)
     9a4:	dec00304 	addi	sp,sp,12
     9a8:	f800283a 	ret

000009ac <drawNodesAndBeams>:
double prevousZoomScreenBR = 0;
int previousXRotation = 0;
int previousYRotation = 0;

void drawNodesAndBeams( double zoomscreen, int rotation[2], double starteEndnodes[8][2][3], int midX, int midY, short color)
{
     9ac:	deffb704 	addi	sp,sp,-292
     9b0:	dfc04815 	stw	ra,288(sp)
     9b4:	df004715 	stw	fp,284(sp)
     9b8:	ddc04615 	stw	r23,280(sp)
     9bc:	dd804515 	stw	r22,276(sp)
     9c0:	dd404415 	stw	r21,272(sp)
     9c4:	dd004315 	stw	r20,268(sp)
     9c8:	dcc04215 	stw	r19,264(sp)
     9cc:	dc804115 	stw	r18,260(sp)
     9d0:	dc404015 	stw	r17,256(sp)
     9d4:	dc003f15 	stw	r16,252(sp)
     9d8:	df004704 	addi	fp,sp,284
     9dc:	e13fdd15 	stw	r4,-140(fp)
     9e0:	e17fde15 	stw	r5,-136(fp)
     9e4:	e1bfdf15 	stw	r6,-132(fp)
     9e8:	e1ffe015 	stw	r7,-128(fp)
     9ec:	e0800417 	ldw	r2,16(fp)
     9f0:	e0bfe10d 	sth	r2,-124(fp)
	int linesDrawn;
	double startx = 0;
     9f4:	e03fc515 	stw	zero,-236(fp)
     9f8:	e03fc615 	stw	zero,-232(fp)
	double starty = 0;
     9fc:	e03fc715 	stw	zero,-228(fp)
     a00:	e03fc815 	stw	zero,-224(fp)
	double startz = 0;
     a04:	e03fc915 	stw	zero,-220(fp)
     a08:	e03fca15 	stw	zero,-216(fp)
	double endx = 0;
     a0c:	e03fcb15 	stw	zero,-212(fp)
     a10:	e03fcc15 	stw	zero,-208(fp)
	double endy = 0;
     a14:	e03fcd15 	stw	zero,-204(fp)
     a18:	e03fce15 	stw	zero,-200(fp)
	double endz = 0;
     a1c:	e03fcf15 	stw	zero,-196(fp)
     a20:	e03fd015 	stw	zero,-192(fp)

	for (linesDrawn = 0; linesDrawn < 8; linesDrawn++)
     a24:	e03fc415 	stw	zero,-240(fp)
     a28:	00055306 	br	1f78 <drawNodesAndBeams+0x15cc>
	{


		double x1 = startx = starteEndnodes[linesDrawn][0][0];
     a2c:	e0bfc417 	ldw	r2,-240(fp)
     a30:	10800c24 	muli	r2,r2,48
     a34:	e0ffe017 	ldw	r3,-128(fp)
     a38:	1885883a 	add	r2,r3,r2
     a3c:	10c00017 	ldw	r3,0(r2)
     a40:	e0ffc515 	stw	r3,-236(fp)
     a44:	10800117 	ldw	r2,4(r2)
     a48:	e0bfc615 	stw	r2,-232(fp)
     a4c:	e0bfc517 	ldw	r2,-236(fp)
     a50:	e0bfd115 	stw	r2,-188(fp)
     a54:	e0bfc617 	ldw	r2,-232(fp)
     a58:	e0bfd215 	stw	r2,-184(fp)
		double y1 = starty = starteEndnodes[linesDrawn][0][1];
     a5c:	e0bfc417 	ldw	r2,-240(fp)
     a60:	10800c24 	muli	r2,r2,48
     a64:	e0ffe017 	ldw	r3,-128(fp)
     a68:	1885883a 	add	r2,r3,r2
     a6c:	10c00217 	ldw	r3,8(r2)
     a70:	e0ffc715 	stw	r3,-228(fp)
     a74:	10800317 	ldw	r2,12(r2)
     a78:	e0bfc815 	stw	r2,-224(fp)
     a7c:	e0bfc717 	ldw	r2,-228(fp)
     a80:	e0bfd315 	stw	r2,-180(fp)
     a84:	e0bfc817 	ldw	r2,-224(fp)
     a88:	e0bfd415 	stw	r2,-176(fp)
		double z1 = startz = starteEndnodes[linesDrawn][0][2];
     a8c:	e0bfc417 	ldw	r2,-240(fp)
     a90:	10800c24 	muli	r2,r2,48
     a94:	e0ffe017 	ldw	r3,-128(fp)
     a98:	1885883a 	add	r2,r3,r2
     a9c:	10c00417 	ldw	r3,16(r2)
     aa0:	e0ffc915 	stw	r3,-220(fp)
     aa4:	10800517 	ldw	r2,20(r2)
     aa8:	e0bfca15 	stw	r2,-216(fp)
     aac:	e0bfc917 	ldw	r2,-220(fp)
     ab0:	e0bfd515 	stw	r2,-172(fp)
     ab4:	e0bfca17 	ldw	r2,-216(fp)
     ab8:	e0bfd615 	stw	r2,-168(fp)

		double x2 = endx = starteEndnodes[linesDrawn][1][0];
     abc:	e0bfc417 	ldw	r2,-240(fp)
     ac0:	10800c24 	muli	r2,r2,48
     ac4:	e0ffe017 	ldw	r3,-128(fp)
     ac8:	1885883a 	add	r2,r3,r2
     acc:	10c00617 	ldw	r3,24(r2)
     ad0:	e0ffcb15 	stw	r3,-212(fp)
     ad4:	10800717 	ldw	r2,28(r2)
     ad8:	e0bfcc15 	stw	r2,-208(fp)
     adc:	e0bfcb17 	ldw	r2,-212(fp)
     ae0:	e0bfd715 	stw	r2,-164(fp)
     ae4:	e0bfcc17 	ldw	r2,-208(fp)
     ae8:	e0bfd815 	stw	r2,-160(fp)
		double y2 = endy = starteEndnodes[linesDrawn][1][1];
     aec:	e0bfc417 	ldw	r2,-240(fp)
     af0:	10800c24 	muli	r2,r2,48
     af4:	e0ffe017 	ldw	r3,-128(fp)
     af8:	1885883a 	add	r2,r3,r2
     afc:	10c00817 	ldw	r3,32(r2)
     b00:	e0ffcd15 	stw	r3,-204(fp)
     b04:	10800917 	ldw	r2,36(r2)
     b08:	e0bfce15 	stw	r2,-200(fp)
     b0c:	e0bfcd17 	ldw	r2,-204(fp)
     b10:	e0bfd915 	stw	r2,-156(fp)
     b14:	e0bfce17 	ldw	r2,-200(fp)
     b18:	e0bfda15 	stw	r2,-152(fp)
		double z2 = endz = starteEndnodes[linesDrawn][1][2];
     b1c:	e0bfc417 	ldw	r2,-240(fp)
     b20:	10800c24 	muli	r2,r2,48
     b24:	e0ffe017 	ldw	r3,-128(fp)
     b28:	1885883a 	add	r2,r3,r2
     b2c:	10c00a17 	ldw	r3,40(r2)
     b30:	e0ffcf15 	stw	r3,-196(fp)
     b34:	10800b17 	ldw	r2,44(r2)
     b38:	e0bfd015 	stw	r2,-192(fp)
     b3c:	e0bfcf17 	ldw	r2,-196(fp)
     b40:	e0bfdb15 	stw	r2,-148(fp)
     b44:	e0bfd017 	ldw	r2,-192(fp)
     b48:	e0bfdc15 	stw	r2,-144(fp)


		if(previousXRotation != rotation[0] || previousYRotation != rotation[1])
     b4c:	e0bfdf17 	ldw	r2,-132(fp)
     b50:	10c00017 	ldw	r3,0(r2)
     b54:	d0a7ed17 	ldw	r2,-24652(gp)
     b58:	1880051e 	bne	r3,r2,b70 <drawNodesAndBeams+0x1c4>
     b5c:	e0bfdf17 	ldw	r2,-132(fp)
     b60:	10800104 	addi	r2,r2,4
     b64:	10c00017 	ldw	r3,0(r2)
     b68:	d0a7ee17 	ldw	r2,-24648(gp)
     b6c:	18823026 	beq	r3,r2,1430 <drawNodesAndBeams+0xa84>
		{
			x1 = ((startx * cos(previousXRotation / 57.4) - starty * sin(previousXRotation / 57.4)) * (cos(previousYRotation / 57.4))) + startz * sin(previousYRotation / 57.4);
     b70:	d0a7ed17 	ldw	r2,-24652(gp)
     b74:	1009883a 	mov	r4,r2
     b78:	0004ddc0 	call	4ddc <__floatsisf>
     b7c:	1007883a 	mov	r3,r2
     b80:	009099b4 	movhi	r2,16998
     b84:	10a66684 	addi	r2,r2,-26214
     b88:	1885fff2 	custom	255,r2,r3,r2
     b8c:	1009883a 	mov	r4,r2
     b90:	00074080 	call	7408 <__extendsfdf2>
     b94:	100b883a 	mov	r5,r2
     b98:	180d883a 	mov	r6,r3
     b9c:	2809883a 	mov	r4,r5
     ba0:	300b883a 	mov	r5,r6
     ba4:	0002ab40 	call	2ab4 <cos>
     ba8:	100b883a 	mov	r5,r2
     bac:	180d883a 	mov	r6,r3
     bb0:	2809883a 	mov	r4,r5
     bb4:	300b883a 	mov	r5,r6
     bb8:	e1bfc517 	ldw	r6,-236(fp)
     bbc:	e1ffc617 	ldw	r7,-232(fp)
     bc0:	00062bc0 	call	62bc <__muldf3>
     bc4:	1009883a 	mov	r4,r2
     bc8:	180b883a 	mov	r5,r3
     bcc:	2021883a 	mov	r16,r4
     bd0:	2823883a 	mov	r17,r5
     bd4:	d0a7ed17 	ldw	r2,-24652(gp)
     bd8:	1009883a 	mov	r4,r2
     bdc:	0004ddc0 	call	4ddc <__floatsisf>
     be0:	1007883a 	mov	r3,r2
     be4:	009099b4 	movhi	r2,16998
     be8:	10a66684 	addi	r2,r2,-26214
     bec:	1885fff2 	custom	255,r2,r3,r2
     bf0:	1009883a 	mov	r4,r2
     bf4:	00074080 	call	7408 <__extendsfdf2>
     bf8:	100b883a 	mov	r5,r2
     bfc:	180d883a 	mov	r6,r3
     c00:	2809883a 	mov	r4,r5
     c04:	300b883a 	mov	r5,r6
     c08:	0002ba00 	call	2ba0 <sin>
     c0c:	100b883a 	mov	r5,r2
     c10:	180d883a 	mov	r6,r3
     c14:	2809883a 	mov	r4,r5
     c18:	300b883a 	mov	r5,r6
     c1c:	e1bfc717 	ldw	r6,-228(fp)
     c20:	e1ffc817 	ldw	r7,-224(fp)
     c24:	00062bc0 	call	62bc <__muldf3>
     c28:	1009883a 	mov	r4,r2
     c2c:	180b883a 	mov	r5,r3
     c30:	2005883a 	mov	r2,r4
     c34:	2807883a 	mov	r3,r5
     c38:	8009883a 	mov	r4,r16
     c3c:	880b883a 	mov	r5,r17
     c40:	100d883a 	mov	r6,r2
     c44:	180f883a 	mov	r7,r3
     c48:	00069e00 	call	69e0 <__subdf3>
     c4c:	1009883a 	mov	r4,r2
     c50:	180b883a 	mov	r5,r3
     c54:	2021883a 	mov	r16,r4
     c58:	2823883a 	mov	r17,r5
     c5c:	d0a7ee17 	ldw	r2,-24648(gp)
     c60:	1009883a 	mov	r4,r2
     c64:	0004ddc0 	call	4ddc <__floatsisf>
     c68:	1007883a 	mov	r3,r2
     c6c:	009099b4 	movhi	r2,16998
     c70:	10a66684 	addi	r2,r2,-26214
     c74:	1885fff2 	custom	255,r2,r3,r2
     c78:	1009883a 	mov	r4,r2
     c7c:	00074080 	call	7408 <__extendsfdf2>
     c80:	100b883a 	mov	r5,r2
     c84:	180d883a 	mov	r6,r3
     c88:	2809883a 	mov	r4,r5
     c8c:	300b883a 	mov	r5,r6
     c90:	0002ab40 	call	2ab4 <cos>
     c94:	100f883a 	mov	r7,r2
     c98:	1811883a 	mov	r8,r3
     c9c:	8009883a 	mov	r4,r16
     ca0:	880b883a 	mov	r5,r17
     ca4:	380d883a 	mov	r6,r7
     ca8:	400f883a 	mov	r7,r8
     cac:	00062bc0 	call	62bc <__muldf3>
     cb0:	1009883a 	mov	r4,r2
     cb4:	180b883a 	mov	r5,r3
     cb8:	2021883a 	mov	r16,r4
     cbc:	2823883a 	mov	r17,r5
     cc0:	d0a7ee17 	ldw	r2,-24648(gp)
     cc4:	1009883a 	mov	r4,r2
     cc8:	0004ddc0 	call	4ddc <__floatsisf>
     ccc:	1007883a 	mov	r3,r2
     cd0:	009099b4 	movhi	r2,16998
     cd4:	10a66684 	addi	r2,r2,-26214
     cd8:	1885fff2 	custom	255,r2,r3,r2
     cdc:	1009883a 	mov	r4,r2
     ce0:	00074080 	call	7408 <__extendsfdf2>
     ce4:	100b883a 	mov	r5,r2
     ce8:	180d883a 	mov	r6,r3
     cec:	2809883a 	mov	r4,r5
     cf0:	300b883a 	mov	r5,r6
     cf4:	0002ba00 	call	2ba0 <sin>
     cf8:	100b883a 	mov	r5,r2
     cfc:	180d883a 	mov	r6,r3
     d00:	2809883a 	mov	r4,r5
     d04:	300b883a 	mov	r5,r6
     d08:	e1bfc917 	ldw	r6,-220(fp)
     d0c:	e1ffca17 	ldw	r7,-216(fp)
     d10:	00062bc0 	call	62bc <__muldf3>
     d14:	1009883a 	mov	r4,r2
     d18:	180b883a 	mov	r5,r3
     d1c:	2005883a 	mov	r2,r4
     d20:	2807883a 	mov	r3,r5
     d24:	8009883a 	mov	r4,r16
     d28:	880b883a 	mov	r5,r17
     d2c:	100d883a 	mov	r6,r2
     d30:	180f883a 	mov	r7,r3
     d34:	0004f100 	call	4f10 <__adddf3>
     d38:	1009883a 	mov	r4,r2
     d3c:	180b883a 	mov	r5,r3
     d40:	e13fd115 	stw	r4,-188(fp)
     d44:	e17fd215 	stw	r5,-184(fp)
			x2 = ((endx * cos(previousXRotation / 57.4) - endy * sin(previousXRotation / 57.4)) * (cos(previousYRotation / 57.4))) + endz * sin(previousYRotation / 57.4);
     d48:	d0a7ed17 	ldw	r2,-24652(gp)
     d4c:	1009883a 	mov	r4,r2
     d50:	0004ddc0 	call	4ddc <__floatsisf>
     d54:	1007883a 	mov	r3,r2
     d58:	009099b4 	movhi	r2,16998
     d5c:	10a66684 	addi	r2,r2,-26214
     d60:	1885fff2 	custom	255,r2,r3,r2
     d64:	1009883a 	mov	r4,r2
     d68:	00074080 	call	7408 <__extendsfdf2>
     d6c:	100b883a 	mov	r5,r2
     d70:	180d883a 	mov	r6,r3
     d74:	2809883a 	mov	r4,r5
     d78:	300b883a 	mov	r5,r6
     d7c:	0002ab40 	call	2ab4 <cos>
     d80:	100b883a 	mov	r5,r2
     d84:	180d883a 	mov	r6,r3
     d88:	2809883a 	mov	r4,r5
     d8c:	300b883a 	mov	r5,r6
     d90:	e1bfcb17 	ldw	r6,-212(fp)
     d94:	e1ffcc17 	ldw	r7,-208(fp)
     d98:	00062bc0 	call	62bc <__muldf3>
     d9c:	1009883a 	mov	r4,r2
     da0:	180b883a 	mov	r5,r3
     da4:	2021883a 	mov	r16,r4
     da8:	2823883a 	mov	r17,r5
     dac:	d0a7ed17 	ldw	r2,-24652(gp)
     db0:	1009883a 	mov	r4,r2
     db4:	0004ddc0 	call	4ddc <__floatsisf>
     db8:	1007883a 	mov	r3,r2
     dbc:	009099b4 	movhi	r2,16998
     dc0:	10a66684 	addi	r2,r2,-26214
     dc4:	1885fff2 	custom	255,r2,r3,r2
     dc8:	1009883a 	mov	r4,r2
     dcc:	00074080 	call	7408 <__extendsfdf2>
     dd0:	100b883a 	mov	r5,r2
     dd4:	180d883a 	mov	r6,r3
     dd8:	2809883a 	mov	r4,r5
     ddc:	300b883a 	mov	r5,r6
     de0:	0002ba00 	call	2ba0 <sin>
     de4:	100b883a 	mov	r5,r2
     de8:	180d883a 	mov	r6,r3
     dec:	2809883a 	mov	r4,r5
     df0:	300b883a 	mov	r5,r6
     df4:	e1bfcd17 	ldw	r6,-204(fp)
     df8:	e1ffce17 	ldw	r7,-200(fp)
     dfc:	00062bc0 	call	62bc <__muldf3>
     e00:	1009883a 	mov	r4,r2
     e04:	180b883a 	mov	r5,r3
     e08:	2005883a 	mov	r2,r4
     e0c:	2807883a 	mov	r3,r5
     e10:	8009883a 	mov	r4,r16
     e14:	880b883a 	mov	r5,r17
     e18:	100d883a 	mov	r6,r2
     e1c:	180f883a 	mov	r7,r3
     e20:	00069e00 	call	69e0 <__subdf3>
     e24:	1009883a 	mov	r4,r2
     e28:	180b883a 	mov	r5,r3
     e2c:	2021883a 	mov	r16,r4
     e30:	2823883a 	mov	r17,r5
     e34:	d0a7ee17 	ldw	r2,-24648(gp)
     e38:	1009883a 	mov	r4,r2
     e3c:	0004ddc0 	call	4ddc <__floatsisf>
     e40:	1007883a 	mov	r3,r2
     e44:	009099b4 	movhi	r2,16998
     e48:	10a66684 	addi	r2,r2,-26214
     e4c:	1885fff2 	custom	255,r2,r3,r2
     e50:	1009883a 	mov	r4,r2
     e54:	00074080 	call	7408 <__extendsfdf2>
     e58:	100b883a 	mov	r5,r2
     e5c:	180d883a 	mov	r6,r3
     e60:	2809883a 	mov	r4,r5
     e64:	300b883a 	mov	r5,r6
     e68:	0002ab40 	call	2ab4 <cos>
     e6c:	100f883a 	mov	r7,r2
     e70:	1811883a 	mov	r8,r3
     e74:	8009883a 	mov	r4,r16
     e78:	880b883a 	mov	r5,r17
     e7c:	380d883a 	mov	r6,r7
     e80:	400f883a 	mov	r7,r8
     e84:	00062bc0 	call	62bc <__muldf3>
     e88:	1009883a 	mov	r4,r2
     e8c:	180b883a 	mov	r5,r3
     e90:	2021883a 	mov	r16,r4
     e94:	2823883a 	mov	r17,r5
     e98:	d0a7ee17 	ldw	r2,-24648(gp)
     e9c:	1009883a 	mov	r4,r2
     ea0:	0004ddc0 	call	4ddc <__floatsisf>
     ea4:	1007883a 	mov	r3,r2
     ea8:	009099b4 	movhi	r2,16998
     eac:	10a66684 	addi	r2,r2,-26214
     eb0:	1885fff2 	custom	255,r2,r3,r2
     eb4:	1009883a 	mov	r4,r2
     eb8:	00074080 	call	7408 <__extendsfdf2>
     ebc:	100b883a 	mov	r5,r2
     ec0:	180d883a 	mov	r6,r3
     ec4:	2809883a 	mov	r4,r5
     ec8:	300b883a 	mov	r5,r6
     ecc:	0002ba00 	call	2ba0 <sin>
     ed0:	100b883a 	mov	r5,r2
     ed4:	180d883a 	mov	r6,r3
     ed8:	2809883a 	mov	r4,r5
     edc:	300b883a 	mov	r5,r6
     ee0:	e1bfcf17 	ldw	r6,-196(fp)
     ee4:	e1ffd017 	ldw	r7,-192(fp)
     ee8:	00062bc0 	call	62bc <__muldf3>
     eec:	1009883a 	mov	r4,r2
     ef0:	180b883a 	mov	r5,r3
     ef4:	2005883a 	mov	r2,r4
     ef8:	2807883a 	mov	r3,r5
     efc:	8009883a 	mov	r4,r16
     f00:	880b883a 	mov	r5,r17
     f04:	100d883a 	mov	r6,r2
     f08:	180f883a 	mov	r7,r3
     f0c:	0004f100 	call	4f10 <__adddf3>
     f10:	1009883a 	mov	r4,r2
     f14:	180b883a 	mov	r5,r3
     f18:	e13fd715 	stw	r4,-164(fp)
     f1c:	e17fd815 	stw	r5,-160(fp)

			z1 = ((-(startx * cos(previousXRotation / 57.4) - starty * sin(previousXRotation / 57.4))) * (sin(previousYRotation / 57.4)) + startz * cos(previousYRotation / 57.4));
     f20:	d0a7ed17 	ldw	r2,-24652(gp)
     f24:	1009883a 	mov	r4,r2
     f28:	0004ddc0 	call	4ddc <__floatsisf>
     f2c:	1007883a 	mov	r3,r2
     f30:	009099b4 	movhi	r2,16998
     f34:	10a66684 	addi	r2,r2,-26214
     f38:	1885fff2 	custom	255,r2,r3,r2
     f3c:	1009883a 	mov	r4,r2
     f40:	00074080 	call	7408 <__extendsfdf2>
     f44:	100b883a 	mov	r5,r2
     f48:	180d883a 	mov	r6,r3
     f4c:	2809883a 	mov	r4,r5
     f50:	300b883a 	mov	r5,r6
     f54:	0002ab40 	call	2ab4 <cos>
     f58:	100b883a 	mov	r5,r2
     f5c:	180d883a 	mov	r6,r3
     f60:	2809883a 	mov	r4,r5
     f64:	300b883a 	mov	r5,r6
     f68:	e1bfc517 	ldw	r6,-236(fp)
     f6c:	e1ffc617 	ldw	r7,-232(fp)
     f70:	00062bc0 	call	62bc <__muldf3>
     f74:	1009883a 	mov	r4,r2
     f78:	180b883a 	mov	r5,r3
     f7c:	2021883a 	mov	r16,r4
     f80:	2823883a 	mov	r17,r5
     f84:	d0a7ed17 	ldw	r2,-24652(gp)
     f88:	1009883a 	mov	r4,r2
     f8c:	0004ddc0 	call	4ddc <__floatsisf>
     f90:	1007883a 	mov	r3,r2
     f94:	009099b4 	movhi	r2,16998
     f98:	10a66684 	addi	r2,r2,-26214
     f9c:	1885fff2 	custom	255,r2,r3,r2
     fa0:	1009883a 	mov	r4,r2
     fa4:	00074080 	call	7408 <__extendsfdf2>
     fa8:	100b883a 	mov	r5,r2
     fac:	180d883a 	mov	r6,r3
     fb0:	2809883a 	mov	r4,r5
     fb4:	300b883a 	mov	r5,r6
     fb8:	0002ba00 	call	2ba0 <sin>
     fbc:	100b883a 	mov	r5,r2
     fc0:	180d883a 	mov	r6,r3
     fc4:	2809883a 	mov	r4,r5
     fc8:	300b883a 	mov	r5,r6
     fcc:	e1bfc717 	ldw	r6,-228(fp)
     fd0:	e1ffc817 	ldw	r7,-224(fp)
     fd4:	00062bc0 	call	62bc <__muldf3>
     fd8:	1009883a 	mov	r4,r2
     fdc:	180b883a 	mov	r5,r3
     fe0:	2005883a 	mov	r2,r4
     fe4:	2807883a 	mov	r3,r5
     fe8:	8009883a 	mov	r4,r16
     fec:	880b883a 	mov	r5,r17
     ff0:	100d883a 	mov	r6,r2
     ff4:	180f883a 	mov	r7,r3
     ff8:	00069e00 	call	69e0 <__subdf3>
     ffc:	1009883a 	mov	r4,r2
    1000:	180b883a 	mov	r5,r3
    1004:	2005883a 	mov	r2,r4
    1008:	2807883a 	mov	r3,r5
    100c:	102d883a 	mov	r22,r2
    1010:	1de0003c 	xorhi	r23,r3,32768
    1014:	d0a7ee17 	ldw	r2,-24648(gp)
    1018:	1009883a 	mov	r4,r2
    101c:	0004ddc0 	call	4ddc <__floatsisf>
    1020:	1007883a 	mov	r3,r2
    1024:	009099b4 	movhi	r2,16998
    1028:	10a66684 	addi	r2,r2,-26214
    102c:	1885fff2 	custom	255,r2,r3,r2
    1030:	1009883a 	mov	r4,r2
    1034:	00074080 	call	7408 <__extendsfdf2>
    1038:	100b883a 	mov	r5,r2
    103c:	180d883a 	mov	r6,r3
    1040:	2809883a 	mov	r4,r5
    1044:	300b883a 	mov	r5,r6
    1048:	0002ba00 	call	2ba0 <sin>
    104c:	100f883a 	mov	r7,r2
    1050:	1811883a 	mov	r8,r3
    1054:	b009883a 	mov	r4,r22
    1058:	b80b883a 	mov	r5,r23
    105c:	380d883a 	mov	r6,r7
    1060:	400f883a 	mov	r7,r8
    1064:	00062bc0 	call	62bc <__muldf3>
    1068:	1009883a 	mov	r4,r2
    106c:	180b883a 	mov	r5,r3
    1070:	2021883a 	mov	r16,r4
    1074:	2823883a 	mov	r17,r5
    1078:	d0a7ee17 	ldw	r2,-24648(gp)
    107c:	1009883a 	mov	r4,r2
    1080:	0004ddc0 	call	4ddc <__floatsisf>
    1084:	1007883a 	mov	r3,r2
    1088:	009099b4 	movhi	r2,16998
    108c:	10a66684 	addi	r2,r2,-26214
    1090:	1885fff2 	custom	255,r2,r3,r2
    1094:	1009883a 	mov	r4,r2
    1098:	00074080 	call	7408 <__extendsfdf2>
    109c:	100b883a 	mov	r5,r2
    10a0:	180d883a 	mov	r6,r3
    10a4:	2809883a 	mov	r4,r5
    10a8:	300b883a 	mov	r5,r6
    10ac:	0002ab40 	call	2ab4 <cos>
    10b0:	100b883a 	mov	r5,r2
    10b4:	180d883a 	mov	r6,r3
    10b8:	2809883a 	mov	r4,r5
    10bc:	300b883a 	mov	r5,r6
    10c0:	e1bfc917 	ldw	r6,-220(fp)
    10c4:	e1ffca17 	ldw	r7,-216(fp)
    10c8:	00062bc0 	call	62bc <__muldf3>
    10cc:	1009883a 	mov	r4,r2
    10d0:	180b883a 	mov	r5,r3
    10d4:	2005883a 	mov	r2,r4
    10d8:	2807883a 	mov	r3,r5
    10dc:	8009883a 	mov	r4,r16
    10e0:	880b883a 	mov	r5,r17
    10e4:	100d883a 	mov	r6,r2
    10e8:	180f883a 	mov	r7,r3
    10ec:	0004f100 	call	4f10 <__adddf3>
    10f0:	1009883a 	mov	r4,r2
    10f4:	180b883a 	mov	r5,r3
    10f8:	e13fd515 	stw	r4,-172(fp)
    10fc:	e17fd615 	stw	r5,-168(fp)
			z2 = ((-(endx * cos(previousXRotation / 57.4) - endy * sin(previousXRotation / 57.4))) * (sin(previousYRotation / 57.4)) + endz * cos(previousYRotation / 57.4));
    1100:	d0a7ed17 	ldw	r2,-24652(gp)
    1104:	1009883a 	mov	r4,r2
    1108:	0004ddc0 	call	4ddc <__floatsisf>
    110c:	1007883a 	mov	r3,r2
    1110:	009099b4 	movhi	r2,16998
    1114:	10a66684 	addi	r2,r2,-26214
    1118:	1885fff2 	custom	255,r2,r3,r2
    111c:	1009883a 	mov	r4,r2
    1120:	00074080 	call	7408 <__extendsfdf2>
    1124:	100b883a 	mov	r5,r2
    1128:	180d883a 	mov	r6,r3
    112c:	2809883a 	mov	r4,r5
    1130:	300b883a 	mov	r5,r6
    1134:	0002ab40 	call	2ab4 <cos>
    1138:	100b883a 	mov	r5,r2
    113c:	180d883a 	mov	r6,r3
    1140:	2809883a 	mov	r4,r5
    1144:	300b883a 	mov	r5,r6
    1148:	e1bfcb17 	ldw	r6,-212(fp)
    114c:	e1ffcc17 	ldw	r7,-208(fp)
    1150:	00062bc0 	call	62bc <__muldf3>
    1154:	1009883a 	mov	r4,r2
    1158:	180b883a 	mov	r5,r3
    115c:	2021883a 	mov	r16,r4
    1160:	2823883a 	mov	r17,r5
    1164:	d0a7ed17 	ldw	r2,-24652(gp)
    1168:	1009883a 	mov	r4,r2
    116c:	0004ddc0 	call	4ddc <__floatsisf>
    1170:	1007883a 	mov	r3,r2
    1174:	009099b4 	movhi	r2,16998
    1178:	10a66684 	addi	r2,r2,-26214
    117c:	1885fff2 	custom	255,r2,r3,r2
    1180:	1009883a 	mov	r4,r2
    1184:	00074080 	call	7408 <__extendsfdf2>
    1188:	100b883a 	mov	r5,r2
    118c:	180d883a 	mov	r6,r3
    1190:	2809883a 	mov	r4,r5
    1194:	300b883a 	mov	r5,r6
    1198:	0002ba00 	call	2ba0 <sin>
    119c:	100b883a 	mov	r5,r2
    11a0:	180d883a 	mov	r6,r3
    11a4:	2809883a 	mov	r4,r5
    11a8:	300b883a 	mov	r5,r6
    11ac:	e1bfcd17 	ldw	r6,-204(fp)
    11b0:	e1ffce17 	ldw	r7,-200(fp)
    11b4:	00062bc0 	call	62bc <__muldf3>
    11b8:	1009883a 	mov	r4,r2
    11bc:	180b883a 	mov	r5,r3
    11c0:	2005883a 	mov	r2,r4
    11c4:	2807883a 	mov	r3,r5
    11c8:	8009883a 	mov	r4,r16
    11cc:	880b883a 	mov	r5,r17
    11d0:	100d883a 	mov	r6,r2
    11d4:	180f883a 	mov	r7,r3
    11d8:	00069e00 	call	69e0 <__subdf3>
    11dc:	1009883a 	mov	r4,r2
    11e0:	180b883a 	mov	r5,r3
    11e4:	2005883a 	mov	r2,r4
    11e8:	2807883a 	mov	r3,r5
    11ec:	e0bfe215 	stw	r2,-120(fp)
    11f0:	1920003c 	xorhi	r4,r3,32768
    11f4:	e13fe315 	stw	r4,-116(fp)
    11f8:	d0a7ee17 	ldw	r2,-24648(gp)
    11fc:	1009883a 	mov	r4,r2
    1200:	0004ddc0 	call	4ddc <__floatsisf>
    1204:	1007883a 	mov	r3,r2
    1208:	009099b4 	movhi	r2,16998
    120c:	10a66684 	addi	r2,r2,-26214
    1210:	1885fff2 	custom	255,r2,r3,r2
    1214:	1009883a 	mov	r4,r2
    1218:	00074080 	call	7408 <__extendsfdf2>
    121c:	100b883a 	mov	r5,r2
    1220:	180d883a 	mov	r6,r3
    1224:	2809883a 	mov	r4,r5
    1228:	300b883a 	mov	r5,r6
    122c:	0002ba00 	call	2ba0 <sin>
    1230:	100f883a 	mov	r7,r2
    1234:	1811883a 	mov	r8,r3
    1238:	e13fe217 	ldw	r4,-120(fp)
    123c:	e17fe317 	ldw	r5,-116(fp)
    1240:	380d883a 	mov	r6,r7
    1244:	400f883a 	mov	r7,r8
    1248:	00062bc0 	call	62bc <__muldf3>
    124c:	1009883a 	mov	r4,r2
    1250:	180b883a 	mov	r5,r3
    1254:	2021883a 	mov	r16,r4
    1258:	2823883a 	mov	r17,r5
    125c:	d0a7ee17 	ldw	r2,-24648(gp)
    1260:	1009883a 	mov	r4,r2
    1264:	0004ddc0 	call	4ddc <__floatsisf>
    1268:	1007883a 	mov	r3,r2
    126c:	009099b4 	movhi	r2,16998
    1270:	10a66684 	addi	r2,r2,-26214
    1274:	1885fff2 	custom	255,r2,r3,r2
    1278:	1009883a 	mov	r4,r2
    127c:	00074080 	call	7408 <__extendsfdf2>
    1280:	100b883a 	mov	r5,r2
    1284:	180d883a 	mov	r6,r3
    1288:	2809883a 	mov	r4,r5
    128c:	300b883a 	mov	r5,r6
    1290:	0002ab40 	call	2ab4 <cos>
    1294:	100b883a 	mov	r5,r2
    1298:	180d883a 	mov	r6,r3
    129c:	2809883a 	mov	r4,r5
    12a0:	300b883a 	mov	r5,r6
    12a4:	e1bfcf17 	ldw	r6,-196(fp)
    12a8:	e1ffd017 	ldw	r7,-192(fp)
    12ac:	00062bc0 	call	62bc <__muldf3>
    12b0:	1009883a 	mov	r4,r2
    12b4:	180b883a 	mov	r5,r3
    12b8:	2005883a 	mov	r2,r4
    12bc:	2807883a 	mov	r3,r5
    12c0:	8009883a 	mov	r4,r16
    12c4:	880b883a 	mov	r5,r17
    12c8:	100d883a 	mov	r6,r2
    12cc:	180f883a 	mov	r7,r3
    12d0:	0004f100 	call	4f10 <__adddf3>
    12d4:	1009883a 	mov	r4,r2
    12d8:	180b883a 	mov	r5,r3
    12dc:	e13fdb15 	stw	r4,-148(fp)
    12e0:	e17fdc15 	stw	r5,-144(fp)

			y1 = z1;
    12e4:	e0bfd517 	ldw	r2,-172(fp)
    12e8:	e0bfd315 	stw	r2,-180(fp)
    12ec:	e0bfd617 	ldw	r2,-168(fp)
    12f0:	e0bfd415 	stw	r2,-176(fp)
			y2 = z2;
    12f4:	e0bfdb17 	ldw	r2,-148(fp)
    12f8:	e0bfd915 	stw	r2,-156(fp)
    12fc:	e0bfdc17 	ldw	r2,-144(fp)
    1300:	e0bfda15 	stw	r2,-152(fp)

			drawLine((x1 * prevousZoomScreenBR), (y1 * prevousZoomScreenBR), (x2 * prevousZoomScreenBR), (y2 * prevousZoomScreenBR), midX, midY, 1 , 1, color);
    1304:	d0a7eb17 	ldw	r2,-24660(gp)
    1308:	d127ec04 	addi	r4,gp,-24656
    130c:	20c00017 	ldw	r3,0(r4)
    1310:	1009883a 	mov	r4,r2
    1314:	180b883a 	mov	r5,r3
    1318:	e1bfd117 	ldw	r6,-188(fp)
    131c:	e1ffd217 	ldw	r7,-184(fp)
    1320:	00062bc0 	call	62bc <__muldf3>
    1324:	1009883a 	mov	r4,r2
    1328:	180b883a 	mov	r5,r3
    132c:	e13fe415 	stw	r4,-112(fp)
    1330:	e17fe515 	stw	r5,-108(fp)
    1334:	d0a7eb17 	ldw	r2,-24660(gp)
    1338:	d127ec04 	addi	r4,gp,-24656
    133c:	20c00017 	ldw	r3,0(r4)
    1340:	1009883a 	mov	r4,r2
    1344:	180b883a 	mov	r5,r3
    1348:	e1bfd317 	ldw	r6,-180(fp)
    134c:	e1ffd417 	ldw	r7,-176(fp)
    1350:	00062bc0 	call	62bc <__muldf3>
    1354:	1009883a 	mov	r4,r2
    1358:	180b883a 	mov	r5,r3
    135c:	e13fe615 	stw	r4,-104(fp)
    1360:	e17fe715 	stw	r5,-100(fp)
    1364:	d0a7eb17 	ldw	r2,-24660(gp)
    1368:	d127ec04 	addi	r4,gp,-24656
    136c:	20c00017 	ldw	r3,0(r4)
    1370:	1009883a 	mov	r4,r2
    1374:	180b883a 	mov	r5,r3
    1378:	e1bfd717 	ldw	r6,-164(fp)
    137c:	e1ffd817 	ldw	r7,-160(fp)
    1380:	00062bc0 	call	62bc <__muldf3>
    1384:	1009883a 	mov	r4,r2
    1388:	180b883a 	mov	r5,r3
    138c:	2029883a 	mov	r20,r4
    1390:	282b883a 	mov	r21,r5
    1394:	d0a7eb17 	ldw	r2,-24660(gp)
    1398:	d127ec04 	addi	r4,gp,-24656
    139c:	20c00017 	ldw	r3,0(r4)
    13a0:	1009883a 	mov	r4,r2
    13a4:	180b883a 	mov	r5,r3
    13a8:	e1bfd917 	ldw	r6,-156(fp)
    13ac:	e1ffda17 	ldw	r7,-152(fp)
    13b0:	00062bc0 	call	62bc <__muldf3>
    13b4:	1009883a 	mov	r4,r2
    13b8:	180b883a 	mov	r5,r3
    13bc:	2025883a 	mov	r18,r4
    13c0:	2827883a 	mov	r19,r5
    13c4:	e1000217 	ldw	r4,8(fp)
    13c8:	00073380 	call	7338 <__floatsidf>
    13cc:	1021883a 	mov	r16,r2
    13d0:	1823883a 	mov	r17,r3
    13d4:	e1000317 	ldw	r4,12(fp)
    13d8:	00073380 	call	7338 <__floatsidf>
    13dc:	1009883a 	mov	r4,r2
    13e0:	180b883a 	mov	r5,r3
    13e4:	e0bfe10f 	ldh	r2,-124(fp)
    13e8:	dd000015 	stw	r20,0(sp)
    13ec:	dd400115 	stw	r21,4(sp)
    13f0:	dc800215 	stw	r18,8(sp)
    13f4:	dcc00315 	stw	r19,12(sp)
    13f8:	dc000415 	stw	r16,16(sp)
    13fc:	dc400515 	stw	r17,20(sp)
    1400:	d9000615 	stw	r4,24(sp)
    1404:	d9400715 	stw	r5,28(sp)
    1408:	00c00044 	movi	r3,1
    140c:	d8c00815 	stw	r3,32(sp)
    1410:	00c00044 	movi	r3,1
    1414:	d8c00915 	stw	r3,36(sp)
    1418:	d8800a15 	stw	r2,40(sp)
    141c:	e13fe417 	ldw	r4,-112(fp)
    1420:	e17fe517 	ldw	r5,-108(fp)
    1424:	e1bfe617 	ldw	r6,-104(fp)
    1428:	e1ffe717 	ldw	r7,-100(fp)
    142c:	00003540 	call	354 <drawLine>

		}

		x1 = ((startx * cos(rotation[0] / 57.4) - starty * sin(rotation[0] / 57.4)) * (cos(rotation[1] / 57.4))) + startz * sin(rotation[1] / 57.4) ;
    1430:	e0bfdf17 	ldw	r2,-132(fp)
    1434:	10800017 	ldw	r2,0(r2)
    1438:	1009883a 	mov	r4,r2
    143c:	0004ddc0 	call	4ddc <__floatsisf>
    1440:	1007883a 	mov	r3,r2
    1444:	009099b4 	movhi	r2,16998
    1448:	10a66684 	addi	r2,r2,-26214
    144c:	1885fff2 	custom	255,r2,r3,r2
    1450:	1009883a 	mov	r4,r2
    1454:	00074080 	call	7408 <__extendsfdf2>
    1458:	100b883a 	mov	r5,r2
    145c:	180d883a 	mov	r6,r3
    1460:	2809883a 	mov	r4,r5
    1464:	300b883a 	mov	r5,r6
    1468:	0002ab40 	call	2ab4 <cos>
    146c:	100b883a 	mov	r5,r2
    1470:	180d883a 	mov	r6,r3
    1474:	2809883a 	mov	r4,r5
    1478:	300b883a 	mov	r5,r6
    147c:	e1bfc517 	ldw	r6,-236(fp)
    1480:	e1ffc617 	ldw	r7,-232(fp)
    1484:	00062bc0 	call	62bc <__muldf3>
    1488:	1009883a 	mov	r4,r2
    148c:	180b883a 	mov	r5,r3
    1490:	2021883a 	mov	r16,r4
    1494:	2823883a 	mov	r17,r5
    1498:	e0bfdf17 	ldw	r2,-132(fp)
    149c:	10800017 	ldw	r2,0(r2)
    14a0:	1009883a 	mov	r4,r2
    14a4:	0004ddc0 	call	4ddc <__floatsisf>
    14a8:	1007883a 	mov	r3,r2
    14ac:	009099b4 	movhi	r2,16998
    14b0:	10a66684 	addi	r2,r2,-26214
    14b4:	1885fff2 	custom	255,r2,r3,r2
    14b8:	1009883a 	mov	r4,r2
    14bc:	00074080 	call	7408 <__extendsfdf2>
    14c0:	100b883a 	mov	r5,r2
    14c4:	180d883a 	mov	r6,r3
    14c8:	2809883a 	mov	r4,r5
    14cc:	300b883a 	mov	r5,r6
    14d0:	0002ba00 	call	2ba0 <sin>
    14d4:	100b883a 	mov	r5,r2
    14d8:	180d883a 	mov	r6,r3
    14dc:	2809883a 	mov	r4,r5
    14e0:	300b883a 	mov	r5,r6
    14e4:	e1bfc717 	ldw	r6,-228(fp)
    14e8:	e1ffc817 	ldw	r7,-224(fp)
    14ec:	00062bc0 	call	62bc <__muldf3>
    14f0:	1009883a 	mov	r4,r2
    14f4:	180b883a 	mov	r5,r3
    14f8:	2005883a 	mov	r2,r4
    14fc:	2807883a 	mov	r3,r5
    1500:	8009883a 	mov	r4,r16
    1504:	880b883a 	mov	r5,r17
    1508:	100d883a 	mov	r6,r2
    150c:	180f883a 	mov	r7,r3
    1510:	00069e00 	call	69e0 <__subdf3>
    1514:	1009883a 	mov	r4,r2
    1518:	180b883a 	mov	r5,r3
    151c:	2021883a 	mov	r16,r4
    1520:	2823883a 	mov	r17,r5
    1524:	e0bfdf17 	ldw	r2,-132(fp)
    1528:	10800104 	addi	r2,r2,4
    152c:	10800017 	ldw	r2,0(r2)
    1530:	1009883a 	mov	r4,r2
    1534:	0004ddc0 	call	4ddc <__floatsisf>
    1538:	1007883a 	mov	r3,r2
    153c:	009099b4 	movhi	r2,16998
    1540:	10a66684 	addi	r2,r2,-26214
    1544:	1885fff2 	custom	255,r2,r3,r2
    1548:	1009883a 	mov	r4,r2
    154c:	00074080 	call	7408 <__extendsfdf2>
    1550:	100b883a 	mov	r5,r2
    1554:	180d883a 	mov	r6,r3
    1558:	2809883a 	mov	r4,r5
    155c:	300b883a 	mov	r5,r6
    1560:	0002ab40 	call	2ab4 <cos>
    1564:	100f883a 	mov	r7,r2
    1568:	1811883a 	mov	r8,r3
    156c:	8009883a 	mov	r4,r16
    1570:	880b883a 	mov	r5,r17
    1574:	380d883a 	mov	r6,r7
    1578:	400f883a 	mov	r7,r8
    157c:	00062bc0 	call	62bc <__muldf3>
    1580:	1009883a 	mov	r4,r2
    1584:	180b883a 	mov	r5,r3
    1588:	2021883a 	mov	r16,r4
    158c:	2823883a 	mov	r17,r5
    1590:	e0bfdf17 	ldw	r2,-132(fp)
    1594:	10800104 	addi	r2,r2,4
    1598:	10800017 	ldw	r2,0(r2)
    159c:	1009883a 	mov	r4,r2
    15a0:	0004ddc0 	call	4ddc <__floatsisf>
    15a4:	1007883a 	mov	r3,r2
    15a8:	009099b4 	movhi	r2,16998
    15ac:	10a66684 	addi	r2,r2,-26214
    15b0:	1885fff2 	custom	255,r2,r3,r2
    15b4:	1009883a 	mov	r4,r2
    15b8:	00074080 	call	7408 <__extendsfdf2>
    15bc:	100b883a 	mov	r5,r2
    15c0:	180d883a 	mov	r6,r3
    15c4:	2809883a 	mov	r4,r5
    15c8:	300b883a 	mov	r5,r6
    15cc:	0002ba00 	call	2ba0 <sin>
    15d0:	100b883a 	mov	r5,r2
    15d4:	180d883a 	mov	r6,r3
    15d8:	2809883a 	mov	r4,r5
    15dc:	300b883a 	mov	r5,r6
    15e0:	e1bfc917 	ldw	r6,-220(fp)
    15e4:	e1ffca17 	ldw	r7,-216(fp)
    15e8:	00062bc0 	call	62bc <__muldf3>
    15ec:	1009883a 	mov	r4,r2
    15f0:	180b883a 	mov	r5,r3
    15f4:	2005883a 	mov	r2,r4
    15f8:	2807883a 	mov	r3,r5
    15fc:	8009883a 	mov	r4,r16
    1600:	880b883a 	mov	r5,r17
    1604:	100d883a 	mov	r6,r2
    1608:	180f883a 	mov	r7,r3
    160c:	0004f100 	call	4f10 <__adddf3>
    1610:	1009883a 	mov	r4,r2
    1614:	180b883a 	mov	r5,r3
    1618:	e13fd115 	stw	r4,-188(fp)
    161c:	e17fd215 	stw	r5,-184(fp)
		x2 = ((endx * cos(rotation[0] / 57.4) - endy * sin(rotation[0] / 57.4))*(cos(rotation[1] / 57.4))) + endz * sin(rotation[1] / 57.4);
    1620:	e0bfdf17 	ldw	r2,-132(fp)
    1624:	10800017 	ldw	r2,0(r2)
    1628:	1009883a 	mov	r4,r2
    162c:	0004ddc0 	call	4ddc <__floatsisf>
    1630:	1007883a 	mov	r3,r2
    1634:	009099b4 	movhi	r2,16998
    1638:	10a66684 	addi	r2,r2,-26214
    163c:	1885fff2 	custom	255,r2,r3,r2
    1640:	1009883a 	mov	r4,r2
    1644:	00074080 	call	7408 <__extendsfdf2>
    1648:	100b883a 	mov	r5,r2
    164c:	180d883a 	mov	r6,r3
    1650:	2809883a 	mov	r4,r5
    1654:	300b883a 	mov	r5,r6
    1658:	0002ab40 	call	2ab4 <cos>
    165c:	100b883a 	mov	r5,r2
    1660:	180d883a 	mov	r6,r3
    1664:	2809883a 	mov	r4,r5
    1668:	300b883a 	mov	r5,r6
    166c:	e1bfcb17 	ldw	r6,-212(fp)
    1670:	e1ffcc17 	ldw	r7,-208(fp)
    1674:	00062bc0 	call	62bc <__muldf3>
    1678:	1009883a 	mov	r4,r2
    167c:	180b883a 	mov	r5,r3
    1680:	2021883a 	mov	r16,r4
    1684:	2823883a 	mov	r17,r5
    1688:	e0bfdf17 	ldw	r2,-132(fp)
    168c:	10800017 	ldw	r2,0(r2)
    1690:	1009883a 	mov	r4,r2
    1694:	0004ddc0 	call	4ddc <__floatsisf>
    1698:	1007883a 	mov	r3,r2
    169c:	009099b4 	movhi	r2,16998
    16a0:	10a66684 	addi	r2,r2,-26214
    16a4:	1885fff2 	custom	255,r2,r3,r2
    16a8:	1009883a 	mov	r4,r2
    16ac:	00074080 	call	7408 <__extendsfdf2>
    16b0:	100b883a 	mov	r5,r2
    16b4:	180d883a 	mov	r6,r3
    16b8:	2809883a 	mov	r4,r5
    16bc:	300b883a 	mov	r5,r6
    16c0:	0002ba00 	call	2ba0 <sin>
    16c4:	100b883a 	mov	r5,r2
    16c8:	180d883a 	mov	r6,r3
    16cc:	2809883a 	mov	r4,r5
    16d0:	300b883a 	mov	r5,r6
    16d4:	e1bfcd17 	ldw	r6,-204(fp)
    16d8:	e1ffce17 	ldw	r7,-200(fp)
    16dc:	00062bc0 	call	62bc <__muldf3>
    16e0:	1009883a 	mov	r4,r2
    16e4:	180b883a 	mov	r5,r3
    16e8:	2005883a 	mov	r2,r4
    16ec:	2807883a 	mov	r3,r5
    16f0:	8009883a 	mov	r4,r16
    16f4:	880b883a 	mov	r5,r17
    16f8:	100d883a 	mov	r6,r2
    16fc:	180f883a 	mov	r7,r3
    1700:	00069e00 	call	69e0 <__subdf3>
    1704:	1009883a 	mov	r4,r2
    1708:	180b883a 	mov	r5,r3
    170c:	2021883a 	mov	r16,r4
    1710:	2823883a 	mov	r17,r5
    1714:	e0bfdf17 	ldw	r2,-132(fp)
    1718:	10800104 	addi	r2,r2,4
    171c:	10800017 	ldw	r2,0(r2)
    1720:	1009883a 	mov	r4,r2
    1724:	0004ddc0 	call	4ddc <__floatsisf>
    1728:	1007883a 	mov	r3,r2
    172c:	009099b4 	movhi	r2,16998
    1730:	10a66684 	addi	r2,r2,-26214
    1734:	1885fff2 	custom	255,r2,r3,r2
    1738:	1009883a 	mov	r4,r2
    173c:	00074080 	call	7408 <__extendsfdf2>
    1740:	100b883a 	mov	r5,r2
    1744:	180d883a 	mov	r6,r3
    1748:	2809883a 	mov	r4,r5
    174c:	300b883a 	mov	r5,r6
    1750:	0002ab40 	call	2ab4 <cos>
    1754:	100f883a 	mov	r7,r2
    1758:	1811883a 	mov	r8,r3
    175c:	8009883a 	mov	r4,r16
    1760:	880b883a 	mov	r5,r17
    1764:	380d883a 	mov	r6,r7
    1768:	400f883a 	mov	r7,r8
    176c:	00062bc0 	call	62bc <__muldf3>
    1770:	1009883a 	mov	r4,r2
    1774:	180b883a 	mov	r5,r3
    1778:	2021883a 	mov	r16,r4
    177c:	2823883a 	mov	r17,r5
    1780:	e0bfdf17 	ldw	r2,-132(fp)
    1784:	10800104 	addi	r2,r2,4
    1788:	10800017 	ldw	r2,0(r2)
    178c:	1009883a 	mov	r4,r2
    1790:	0004ddc0 	call	4ddc <__floatsisf>
    1794:	1007883a 	mov	r3,r2
    1798:	009099b4 	movhi	r2,16998
    179c:	10a66684 	addi	r2,r2,-26214
    17a0:	1885fff2 	custom	255,r2,r3,r2
    17a4:	1009883a 	mov	r4,r2
    17a8:	00074080 	call	7408 <__extendsfdf2>
    17ac:	100b883a 	mov	r5,r2
    17b0:	180d883a 	mov	r6,r3
    17b4:	2809883a 	mov	r4,r5
    17b8:	300b883a 	mov	r5,r6
    17bc:	0002ba00 	call	2ba0 <sin>
    17c0:	100b883a 	mov	r5,r2
    17c4:	180d883a 	mov	r6,r3
    17c8:	2809883a 	mov	r4,r5
    17cc:	300b883a 	mov	r5,r6
    17d0:	e1bfcf17 	ldw	r6,-196(fp)
    17d4:	e1ffd017 	ldw	r7,-192(fp)
    17d8:	00062bc0 	call	62bc <__muldf3>
    17dc:	1009883a 	mov	r4,r2
    17e0:	180b883a 	mov	r5,r3
    17e4:	2005883a 	mov	r2,r4
    17e8:	2807883a 	mov	r3,r5
    17ec:	8009883a 	mov	r4,r16
    17f0:	880b883a 	mov	r5,r17
    17f4:	100d883a 	mov	r6,r2
    17f8:	180f883a 	mov	r7,r3
    17fc:	0004f100 	call	4f10 <__adddf3>
    1800:	1009883a 	mov	r4,r2
    1804:	180b883a 	mov	r5,r3
    1808:	e13fd715 	stw	r4,-164(fp)
    180c:	e17fd815 	stw	r5,-160(fp)

		z1 = ((-(startx * cos(rotation[0] / 57.4) - starty * sin(rotation[0] / 57.4))) *(sin(rotation[1] / 57.4)) + startz * cos(rotation[1] / 57.4));
    1810:	e0bfdf17 	ldw	r2,-132(fp)
    1814:	10800017 	ldw	r2,0(r2)
    1818:	1009883a 	mov	r4,r2
    181c:	0004ddc0 	call	4ddc <__floatsisf>
    1820:	1007883a 	mov	r3,r2
    1824:	009099b4 	movhi	r2,16998
    1828:	10a66684 	addi	r2,r2,-26214
    182c:	1885fff2 	custom	255,r2,r3,r2
    1830:	1009883a 	mov	r4,r2
    1834:	00074080 	call	7408 <__extendsfdf2>
    1838:	100b883a 	mov	r5,r2
    183c:	180d883a 	mov	r6,r3
    1840:	2809883a 	mov	r4,r5
    1844:	300b883a 	mov	r5,r6
    1848:	0002ab40 	call	2ab4 <cos>
    184c:	100b883a 	mov	r5,r2
    1850:	180d883a 	mov	r6,r3
    1854:	2809883a 	mov	r4,r5
    1858:	300b883a 	mov	r5,r6
    185c:	e1bfc517 	ldw	r6,-236(fp)
    1860:	e1ffc617 	ldw	r7,-232(fp)
    1864:	00062bc0 	call	62bc <__muldf3>
    1868:	1009883a 	mov	r4,r2
    186c:	180b883a 	mov	r5,r3
    1870:	2021883a 	mov	r16,r4
    1874:	2823883a 	mov	r17,r5
    1878:	e0bfdf17 	ldw	r2,-132(fp)
    187c:	10800017 	ldw	r2,0(r2)
    1880:	1009883a 	mov	r4,r2
    1884:	0004ddc0 	call	4ddc <__floatsisf>
    1888:	1007883a 	mov	r3,r2
    188c:	009099b4 	movhi	r2,16998
    1890:	10a66684 	addi	r2,r2,-26214
    1894:	1885fff2 	custom	255,r2,r3,r2
    1898:	1009883a 	mov	r4,r2
    189c:	00074080 	call	7408 <__extendsfdf2>
    18a0:	100b883a 	mov	r5,r2
    18a4:	180d883a 	mov	r6,r3
    18a8:	2809883a 	mov	r4,r5
    18ac:	300b883a 	mov	r5,r6
    18b0:	0002ba00 	call	2ba0 <sin>
    18b4:	100b883a 	mov	r5,r2
    18b8:	180d883a 	mov	r6,r3
    18bc:	2809883a 	mov	r4,r5
    18c0:	300b883a 	mov	r5,r6
    18c4:	e1bfc717 	ldw	r6,-228(fp)
    18c8:	e1ffc817 	ldw	r7,-224(fp)
    18cc:	00062bc0 	call	62bc <__muldf3>
    18d0:	1009883a 	mov	r4,r2
    18d4:	180b883a 	mov	r5,r3
    18d8:	2005883a 	mov	r2,r4
    18dc:	2807883a 	mov	r3,r5
    18e0:	8009883a 	mov	r4,r16
    18e4:	880b883a 	mov	r5,r17
    18e8:	100d883a 	mov	r6,r2
    18ec:	180f883a 	mov	r7,r3
    18f0:	00069e00 	call	69e0 <__subdf3>
    18f4:	1009883a 	mov	r4,r2
    18f8:	180b883a 	mov	r5,r3
    18fc:	2005883a 	mov	r2,r4
    1900:	2807883a 	mov	r3,r5
    1904:	e0bfe815 	stw	r2,-96(fp)
    1908:	1920003c 	xorhi	r4,r3,32768
    190c:	e13fe915 	stw	r4,-92(fp)
    1910:	e0bfdf17 	ldw	r2,-132(fp)
    1914:	10800104 	addi	r2,r2,4
    1918:	10800017 	ldw	r2,0(r2)
    191c:	1009883a 	mov	r4,r2
    1920:	0004ddc0 	call	4ddc <__floatsisf>
    1924:	1007883a 	mov	r3,r2
    1928:	009099b4 	movhi	r2,16998
    192c:	10a66684 	addi	r2,r2,-26214
    1930:	1885fff2 	custom	255,r2,r3,r2
    1934:	1009883a 	mov	r4,r2
    1938:	00074080 	call	7408 <__extendsfdf2>
    193c:	100b883a 	mov	r5,r2
    1940:	180d883a 	mov	r6,r3
    1944:	2809883a 	mov	r4,r5
    1948:	300b883a 	mov	r5,r6
    194c:	0002ba00 	call	2ba0 <sin>
    1950:	100f883a 	mov	r7,r2
    1954:	1811883a 	mov	r8,r3
    1958:	e13fe817 	ldw	r4,-96(fp)
    195c:	e17fe917 	ldw	r5,-92(fp)
    1960:	380d883a 	mov	r6,r7
    1964:	400f883a 	mov	r7,r8
    1968:	00062bc0 	call	62bc <__muldf3>
    196c:	1009883a 	mov	r4,r2
    1970:	180b883a 	mov	r5,r3
    1974:	2021883a 	mov	r16,r4
    1978:	2823883a 	mov	r17,r5
    197c:	e0bfdf17 	ldw	r2,-132(fp)
    1980:	10800104 	addi	r2,r2,4
    1984:	10800017 	ldw	r2,0(r2)
    1988:	1009883a 	mov	r4,r2
    198c:	0004ddc0 	call	4ddc <__floatsisf>
    1990:	1007883a 	mov	r3,r2
    1994:	009099b4 	movhi	r2,16998
    1998:	10a66684 	addi	r2,r2,-26214
    199c:	1885fff2 	custom	255,r2,r3,r2
    19a0:	1009883a 	mov	r4,r2
    19a4:	00074080 	call	7408 <__extendsfdf2>
    19a8:	100b883a 	mov	r5,r2
    19ac:	180d883a 	mov	r6,r3
    19b0:	2809883a 	mov	r4,r5
    19b4:	300b883a 	mov	r5,r6
    19b8:	0002ab40 	call	2ab4 <cos>
    19bc:	100b883a 	mov	r5,r2
    19c0:	180d883a 	mov	r6,r3
    19c4:	2809883a 	mov	r4,r5
    19c8:	300b883a 	mov	r5,r6
    19cc:	e1bfc917 	ldw	r6,-220(fp)
    19d0:	e1ffca17 	ldw	r7,-216(fp)
    19d4:	00062bc0 	call	62bc <__muldf3>
    19d8:	1009883a 	mov	r4,r2
    19dc:	180b883a 	mov	r5,r3
    19e0:	2005883a 	mov	r2,r4
    19e4:	2807883a 	mov	r3,r5
    19e8:	8009883a 	mov	r4,r16
    19ec:	880b883a 	mov	r5,r17
    19f0:	100d883a 	mov	r6,r2
    19f4:	180f883a 	mov	r7,r3
    19f8:	0004f100 	call	4f10 <__adddf3>
    19fc:	1009883a 	mov	r4,r2
    1a00:	180b883a 	mov	r5,r3
    1a04:	e13fd515 	stw	r4,-172(fp)
    1a08:	e17fd615 	stw	r5,-168(fp)
		z2 = ((-(endx * cos(rotation[0] / 57.4) - endy * sin(rotation[0] / 57.4))) * (sin(rotation[1] / 57.4)) + endz * cos(rotation[1] / 57.4));
    1a0c:	e0bfdf17 	ldw	r2,-132(fp)
    1a10:	10800017 	ldw	r2,0(r2)
    1a14:	1009883a 	mov	r4,r2
    1a18:	0004ddc0 	call	4ddc <__floatsisf>
    1a1c:	1007883a 	mov	r3,r2
    1a20:	009099b4 	movhi	r2,16998
    1a24:	10a66684 	addi	r2,r2,-26214
    1a28:	1885fff2 	custom	255,r2,r3,r2
    1a2c:	1009883a 	mov	r4,r2
    1a30:	00074080 	call	7408 <__extendsfdf2>
    1a34:	100b883a 	mov	r5,r2
    1a38:	180d883a 	mov	r6,r3
    1a3c:	2809883a 	mov	r4,r5
    1a40:	300b883a 	mov	r5,r6
    1a44:	0002ab40 	call	2ab4 <cos>
    1a48:	100b883a 	mov	r5,r2
    1a4c:	180d883a 	mov	r6,r3
    1a50:	2809883a 	mov	r4,r5
    1a54:	300b883a 	mov	r5,r6
    1a58:	e1bfcb17 	ldw	r6,-212(fp)
    1a5c:	e1ffcc17 	ldw	r7,-208(fp)
    1a60:	00062bc0 	call	62bc <__muldf3>
    1a64:	1009883a 	mov	r4,r2
    1a68:	180b883a 	mov	r5,r3
    1a6c:	2021883a 	mov	r16,r4
    1a70:	2823883a 	mov	r17,r5
    1a74:	e0bfdf17 	ldw	r2,-132(fp)
    1a78:	10800017 	ldw	r2,0(r2)
    1a7c:	1009883a 	mov	r4,r2
    1a80:	0004ddc0 	call	4ddc <__floatsisf>
    1a84:	1007883a 	mov	r3,r2
    1a88:	009099b4 	movhi	r2,16998
    1a8c:	10a66684 	addi	r2,r2,-26214
    1a90:	1885fff2 	custom	255,r2,r3,r2
    1a94:	1009883a 	mov	r4,r2
    1a98:	00074080 	call	7408 <__extendsfdf2>
    1a9c:	100b883a 	mov	r5,r2
    1aa0:	180d883a 	mov	r6,r3
    1aa4:	2809883a 	mov	r4,r5
    1aa8:	300b883a 	mov	r5,r6
    1aac:	0002ba00 	call	2ba0 <sin>
    1ab0:	100b883a 	mov	r5,r2
    1ab4:	180d883a 	mov	r6,r3
    1ab8:	2809883a 	mov	r4,r5
    1abc:	300b883a 	mov	r5,r6
    1ac0:	e1bfcd17 	ldw	r6,-204(fp)
    1ac4:	e1ffce17 	ldw	r7,-200(fp)
    1ac8:	00062bc0 	call	62bc <__muldf3>
    1acc:	1009883a 	mov	r4,r2
    1ad0:	180b883a 	mov	r5,r3
    1ad4:	2005883a 	mov	r2,r4
    1ad8:	2807883a 	mov	r3,r5
    1adc:	8009883a 	mov	r4,r16
    1ae0:	880b883a 	mov	r5,r17
    1ae4:	100d883a 	mov	r6,r2
    1ae8:	180f883a 	mov	r7,r3
    1aec:	00069e00 	call	69e0 <__subdf3>
    1af0:	1009883a 	mov	r4,r2
    1af4:	180b883a 	mov	r5,r3
    1af8:	2005883a 	mov	r2,r4
    1afc:	2807883a 	mov	r3,r5
    1b00:	e0bfea15 	stw	r2,-88(fp)
    1b04:	1920003c 	xorhi	r4,r3,32768
    1b08:	e13feb15 	stw	r4,-84(fp)
    1b0c:	e0bfdf17 	ldw	r2,-132(fp)
    1b10:	10800104 	addi	r2,r2,4
    1b14:	10800017 	ldw	r2,0(r2)
    1b18:	1009883a 	mov	r4,r2
    1b1c:	0004ddc0 	call	4ddc <__floatsisf>
    1b20:	1007883a 	mov	r3,r2
    1b24:	009099b4 	movhi	r2,16998
    1b28:	10a66684 	addi	r2,r2,-26214
    1b2c:	1885fff2 	custom	255,r2,r3,r2
    1b30:	1009883a 	mov	r4,r2
    1b34:	00074080 	call	7408 <__extendsfdf2>
    1b38:	100b883a 	mov	r5,r2
    1b3c:	180d883a 	mov	r6,r3
    1b40:	2809883a 	mov	r4,r5
    1b44:	300b883a 	mov	r5,r6
    1b48:	0002ba00 	call	2ba0 <sin>
    1b4c:	100f883a 	mov	r7,r2
    1b50:	1811883a 	mov	r8,r3
    1b54:	e13fea17 	ldw	r4,-88(fp)
    1b58:	e17feb17 	ldw	r5,-84(fp)
    1b5c:	380d883a 	mov	r6,r7
    1b60:	400f883a 	mov	r7,r8
    1b64:	00062bc0 	call	62bc <__muldf3>
    1b68:	1009883a 	mov	r4,r2
    1b6c:	180b883a 	mov	r5,r3
    1b70:	2021883a 	mov	r16,r4
    1b74:	2823883a 	mov	r17,r5
    1b78:	e0bfdf17 	ldw	r2,-132(fp)
    1b7c:	10800104 	addi	r2,r2,4
    1b80:	10800017 	ldw	r2,0(r2)
    1b84:	1009883a 	mov	r4,r2
    1b88:	0004ddc0 	call	4ddc <__floatsisf>
    1b8c:	1007883a 	mov	r3,r2
    1b90:	009099b4 	movhi	r2,16998
    1b94:	10a66684 	addi	r2,r2,-26214
    1b98:	1885fff2 	custom	255,r2,r3,r2
    1b9c:	1009883a 	mov	r4,r2
    1ba0:	00074080 	call	7408 <__extendsfdf2>
    1ba4:	100b883a 	mov	r5,r2
    1ba8:	180d883a 	mov	r6,r3
    1bac:	2809883a 	mov	r4,r5
    1bb0:	300b883a 	mov	r5,r6
    1bb4:	0002ab40 	call	2ab4 <cos>
    1bb8:	100b883a 	mov	r5,r2
    1bbc:	180d883a 	mov	r6,r3
    1bc0:	2809883a 	mov	r4,r5
    1bc4:	300b883a 	mov	r5,r6
    1bc8:	e1bfcf17 	ldw	r6,-196(fp)
    1bcc:	e1ffd017 	ldw	r7,-192(fp)
    1bd0:	00062bc0 	call	62bc <__muldf3>
    1bd4:	1009883a 	mov	r4,r2
    1bd8:	180b883a 	mov	r5,r3
    1bdc:	2005883a 	mov	r2,r4
    1be0:	2807883a 	mov	r3,r5
    1be4:	8009883a 	mov	r4,r16
    1be8:	880b883a 	mov	r5,r17
    1bec:	100d883a 	mov	r6,r2
    1bf0:	180f883a 	mov	r7,r3
    1bf4:	0004f100 	call	4f10 <__adddf3>
    1bf8:	1009883a 	mov	r4,r2
    1bfc:	180b883a 	mov	r5,r3
    1c00:	e13fdb15 	stw	r4,-148(fp)
    1c04:	e17fdc15 	stw	r5,-144(fp)

		y1 = z1;
    1c08:	e0bfd517 	ldw	r2,-172(fp)
    1c0c:	e0bfd315 	stw	r2,-180(fp)
    1c10:	e0bfd617 	ldw	r2,-168(fp)
    1c14:	e0bfd415 	stw	r2,-176(fp)
		y2 = z2;
    1c18:	e0bfdb17 	ldw	r2,-148(fp)
    1c1c:	e0bfd915 	stw	r2,-156(fp)
    1c20:	e0bfdc17 	ldw	r2,-144(fp)
    1c24:	e0bfda15 	stw	r2,-152(fp)

		if (zoomscreen != prevousZoomScreenBR)
    1c28:	d0a7eb17 	ldw	r2,-24660(gp)
    1c2c:	d127ec04 	addi	r4,gp,-24656
    1c30:	20c00017 	ldw	r3,0(r4)
    1c34:	e13fdd17 	ldw	r4,-140(fp)
    1c38:	e17fde17 	ldw	r5,-136(fp)
    1c3c:	100d883a 	mov	r6,r2
    1c40:	180f883a 	mov	r7,r3
    1c44:	00060780 	call	6078 <__eqdf2>
    1c48:	10008a26 	beq	r2,zero,1e74 <drawNodesAndBeams+0x14c8>
		{
			drawLine((x1 * prevousZoomScreenBR), (y1 * prevousZoomScreenBR), (x2 * prevousZoomScreenBR), (y2 * prevousZoomScreenBR), midX, midY, 1 , 1, color);
    1c4c:	d0a7eb17 	ldw	r2,-24660(gp)
    1c50:	d127ec04 	addi	r4,gp,-24656
    1c54:	20c00017 	ldw	r3,0(r4)
    1c58:	1009883a 	mov	r4,r2
    1c5c:	180b883a 	mov	r5,r3
    1c60:	e1bfd117 	ldw	r6,-188(fp)
    1c64:	e1ffd217 	ldw	r7,-184(fp)
    1c68:	00062bc0 	call	62bc <__muldf3>
    1c6c:	1009883a 	mov	r4,r2
    1c70:	180b883a 	mov	r5,r3
    1c74:	e13fec15 	stw	r4,-80(fp)
    1c78:	e17fed15 	stw	r5,-76(fp)
    1c7c:	d0a7eb17 	ldw	r2,-24660(gp)
    1c80:	d127ec04 	addi	r4,gp,-24656
    1c84:	20c00017 	ldw	r3,0(r4)
    1c88:	1009883a 	mov	r4,r2
    1c8c:	180b883a 	mov	r5,r3
    1c90:	e1bfd317 	ldw	r6,-180(fp)
    1c94:	e1ffd417 	ldw	r7,-176(fp)
    1c98:	00062bc0 	call	62bc <__muldf3>
    1c9c:	1009883a 	mov	r4,r2
    1ca0:	180b883a 	mov	r5,r3
    1ca4:	e13fee15 	stw	r4,-72(fp)
    1ca8:	e17fef15 	stw	r5,-68(fp)
    1cac:	d0a7eb17 	ldw	r2,-24660(gp)
    1cb0:	d127ec04 	addi	r4,gp,-24656
    1cb4:	20c00017 	ldw	r3,0(r4)
    1cb8:	1009883a 	mov	r4,r2
    1cbc:	180b883a 	mov	r5,r3
    1cc0:	e1bfd717 	ldw	r6,-164(fp)
    1cc4:	e1ffd817 	ldw	r7,-160(fp)
    1cc8:	00062bc0 	call	62bc <__muldf3>
    1ccc:	1009883a 	mov	r4,r2
    1cd0:	180b883a 	mov	r5,r3
    1cd4:	2029883a 	mov	r20,r4
    1cd8:	282b883a 	mov	r21,r5
    1cdc:	d0a7eb17 	ldw	r2,-24660(gp)
    1ce0:	d127ec04 	addi	r4,gp,-24656
    1ce4:	20c00017 	ldw	r3,0(r4)
    1ce8:	1009883a 	mov	r4,r2
    1cec:	180b883a 	mov	r5,r3
    1cf0:	e1bfd917 	ldw	r6,-156(fp)
    1cf4:	e1ffda17 	ldw	r7,-152(fp)
    1cf8:	00062bc0 	call	62bc <__muldf3>
    1cfc:	1009883a 	mov	r4,r2
    1d00:	180b883a 	mov	r5,r3
    1d04:	2025883a 	mov	r18,r4
    1d08:	2827883a 	mov	r19,r5
    1d0c:	e1000217 	ldw	r4,8(fp)
    1d10:	00073380 	call	7338 <__floatsidf>
    1d14:	1021883a 	mov	r16,r2
    1d18:	1823883a 	mov	r17,r3
    1d1c:	e1000317 	ldw	r4,12(fp)
    1d20:	00073380 	call	7338 <__floatsidf>
    1d24:	1009883a 	mov	r4,r2
    1d28:	180b883a 	mov	r5,r3
    1d2c:	e0bfe10f 	ldh	r2,-124(fp)
    1d30:	dd000015 	stw	r20,0(sp)
    1d34:	dd400115 	stw	r21,4(sp)
    1d38:	dc800215 	stw	r18,8(sp)
    1d3c:	dcc00315 	stw	r19,12(sp)
    1d40:	dc000415 	stw	r16,16(sp)
    1d44:	dc400515 	stw	r17,20(sp)
    1d48:	d9000615 	stw	r4,24(sp)
    1d4c:	d9400715 	stw	r5,28(sp)
    1d50:	00c00044 	movi	r3,1
    1d54:	d8c00815 	stw	r3,32(sp)
    1d58:	00c00044 	movi	r3,1
    1d5c:	d8c00915 	stw	r3,36(sp)
    1d60:	d8800a15 	stw	r2,40(sp)
    1d64:	e13fec17 	ldw	r4,-80(fp)
    1d68:	e17fed17 	ldw	r5,-76(fp)
    1d6c:	e1bfee17 	ldw	r6,-72(fp)
    1d70:	e1ffef17 	ldw	r7,-68(fp)
    1d74:	00003540 	call	354 <drawLine>

			drawLine((x1 * zoomscreen), (y1 * zoomscreen), (x2 * zoomscreen), (y2 * zoomscreen),midX, midY, 1 , 0, color);
    1d78:	e13fd117 	ldw	r4,-188(fp)
    1d7c:	e17fd217 	ldw	r5,-184(fp)
    1d80:	e1bfdd17 	ldw	r6,-140(fp)
    1d84:	e1ffde17 	ldw	r7,-136(fp)
    1d88:	00062bc0 	call	62bc <__muldf3>
    1d8c:	1009883a 	mov	r4,r2
    1d90:	180b883a 	mov	r5,r3
    1d94:	e13ff015 	stw	r4,-64(fp)
    1d98:	e17ff115 	stw	r5,-60(fp)
    1d9c:	e13fd317 	ldw	r4,-180(fp)
    1da0:	e17fd417 	ldw	r5,-176(fp)
    1da4:	e1bfdd17 	ldw	r6,-140(fp)
    1da8:	e1ffde17 	ldw	r7,-136(fp)
    1dac:	00062bc0 	call	62bc <__muldf3>
    1db0:	1009883a 	mov	r4,r2
    1db4:	180b883a 	mov	r5,r3
    1db8:	e13ff215 	stw	r4,-56(fp)
    1dbc:	e17ff315 	stw	r5,-52(fp)
    1dc0:	e13fd717 	ldw	r4,-164(fp)
    1dc4:	e17fd817 	ldw	r5,-160(fp)
    1dc8:	e1bfdd17 	ldw	r6,-140(fp)
    1dcc:	e1ffde17 	ldw	r7,-136(fp)
    1dd0:	00062bc0 	call	62bc <__muldf3>
    1dd4:	1009883a 	mov	r4,r2
    1dd8:	180b883a 	mov	r5,r3
    1ddc:	2029883a 	mov	r20,r4
    1de0:	282b883a 	mov	r21,r5
    1de4:	e13fd917 	ldw	r4,-156(fp)
    1de8:	e17fda17 	ldw	r5,-152(fp)
    1dec:	e1bfdd17 	ldw	r6,-140(fp)
    1df0:	e1ffde17 	ldw	r7,-136(fp)
    1df4:	00062bc0 	call	62bc <__muldf3>
    1df8:	1009883a 	mov	r4,r2
    1dfc:	180b883a 	mov	r5,r3
    1e00:	2025883a 	mov	r18,r4
    1e04:	2827883a 	mov	r19,r5
    1e08:	e1000217 	ldw	r4,8(fp)
    1e0c:	00073380 	call	7338 <__floatsidf>
    1e10:	1021883a 	mov	r16,r2
    1e14:	1823883a 	mov	r17,r3
    1e18:	e1000317 	ldw	r4,12(fp)
    1e1c:	00073380 	call	7338 <__floatsidf>
    1e20:	1009883a 	mov	r4,r2
    1e24:	180b883a 	mov	r5,r3
    1e28:	e0bfe10f 	ldh	r2,-124(fp)
    1e2c:	dd000015 	stw	r20,0(sp)
    1e30:	dd400115 	stw	r21,4(sp)
    1e34:	dc800215 	stw	r18,8(sp)
    1e38:	dcc00315 	stw	r19,12(sp)
    1e3c:	dc000415 	stw	r16,16(sp)
    1e40:	dc400515 	stw	r17,20(sp)
    1e44:	d9000615 	stw	r4,24(sp)
    1e48:	d9400715 	stw	r5,28(sp)
    1e4c:	00c00044 	movi	r3,1
    1e50:	d8c00815 	stw	r3,32(sp)
    1e54:	d8000915 	stw	zero,36(sp)
    1e58:	d8800a15 	stw	r2,40(sp)
    1e5c:	e13ff017 	ldw	r4,-64(fp)
    1e60:	e17ff117 	ldw	r5,-60(fp)
    1e64:	e1bff217 	ldw	r6,-56(fp)
    1e68:	e1fff317 	ldw	r7,-52(fp)
    1e6c:	00003540 	call	354 <drawLine>
    1e70:	00003e06 	br	1f6c <drawNodesAndBeams+0x15c0>

		}
		else
		{
			drawLine((x1 * zoomscreen), (y1 * zoomscreen), (x2 * zoomscreen), (y2 * zoomscreen), midX, midY, 1 , 0, color);
    1e74:	e13fd117 	ldw	r4,-188(fp)
    1e78:	e17fd217 	ldw	r5,-184(fp)
    1e7c:	e1bfdd17 	ldw	r6,-140(fp)
    1e80:	e1ffde17 	ldw	r7,-136(fp)
    1e84:	00062bc0 	call	62bc <__muldf3>
    1e88:	1009883a 	mov	r4,r2
    1e8c:	180b883a 	mov	r5,r3
    1e90:	e13ff415 	stw	r4,-48(fp)
    1e94:	e17ff515 	stw	r5,-44(fp)
    1e98:	e13fd317 	ldw	r4,-180(fp)
    1e9c:	e17fd417 	ldw	r5,-176(fp)
    1ea0:	e1bfdd17 	ldw	r6,-140(fp)
    1ea4:	e1ffde17 	ldw	r7,-136(fp)
    1ea8:	00062bc0 	call	62bc <__muldf3>
    1eac:	1009883a 	mov	r4,r2
    1eb0:	180b883a 	mov	r5,r3
    1eb4:	e13ff615 	stw	r4,-40(fp)
    1eb8:	e17ff715 	stw	r5,-36(fp)
    1ebc:	e13fd717 	ldw	r4,-164(fp)
    1ec0:	e17fd817 	ldw	r5,-160(fp)
    1ec4:	e1bfdd17 	ldw	r6,-140(fp)
    1ec8:	e1ffde17 	ldw	r7,-136(fp)
    1ecc:	00062bc0 	call	62bc <__muldf3>
    1ed0:	1009883a 	mov	r4,r2
    1ed4:	180b883a 	mov	r5,r3
    1ed8:	2029883a 	mov	r20,r4
    1edc:	282b883a 	mov	r21,r5
    1ee0:	e13fd917 	ldw	r4,-156(fp)
    1ee4:	e17fda17 	ldw	r5,-152(fp)
    1ee8:	e1bfdd17 	ldw	r6,-140(fp)
    1eec:	e1ffde17 	ldw	r7,-136(fp)
    1ef0:	00062bc0 	call	62bc <__muldf3>
    1ef4:	1009883a 	mov	r4,r2
    1ef8:	180b883a 	mov	r5,r3
    1efc:	2025883a 	mov	r18,r4
    1f00:	2827883a 	mov	r19,r5
    1f04:	e1000217 	ldw	r4,8(fp)
    1f08:	00073380 	call	7338 <__floatsidf>
    1f0c:	1021883a 	mov	r16,r2
    1f10:	1823883a 	mov	r17,r3
    1f14:	e1000317 	ldw	r4,12(fp)
    1f18:	00073380 	call	7338 <__floatsidf>
    1f1c:	1009883a 	mov	r4,r2
    1f20:	180b883a 	mov	r5,r3
    1f24:	e0bfe10f 	ldh	r2,-124(fp)
    1f28:	dd000015 	stw	r20,0(sp)
    1f2c:	dd400115 	stw	r21,4(sp)
    1f30:	dc800215 	stw	r18,8(sp)
    1f34:	dcc00315 	stw	r19,12(sp)
    1f38:	dc000415 	stw	r16,16(sp)
    1f3c:	dc400515 	stw	r17,20(sp)
    1f40:	d9000615 	stw	r4,24(sp)
    1f44:	d9400715 	stw	r5,28(sp)
    1f48:	00c00044 	movi	r3,1
    1f4c:	d8c00815 	stw	r3,32(sp)
    1f50:	d8000915 	stw	zero,36(sp)
    1f54:	d8800a15 	stw	r2,40(sp)
    1f58:	e13ff417 	ldw	r4,-48(fp)
    1f5c:	e17ff517 	ldw	r5,-44(fp)
    1f60:	e1bff617 	ldw	r6,-40(fp)
    1f64:	e1fff717 	ldw	r7,-36(fp)
    1f68:	00003540 	call	354 <drawLine>
	double startz = 0;
	double endx = 0;
	double endy = 0;
	double endz = 0;

	for (linesDrawn = 0; linesDrawn < 8; linesDrawn++)
    1f6c:	e0bfc417 	ldw	r2,-240(fp)
    1f70:	10800044 	addi	r2,r2,1
    1f74:	e0bfc415 	stw	r2,-240(fp)
    1f78:	e0bfc417 	ldw	r2,-240(fp)
    1f7c:	10800210 	cmplti	r2,r2,8
    1f80:	103aaa1e 	bne	r2,zero,a2c <__alt_mem_Flash_flash_data+0xf4000a2c>
		}

	}


	if (zoomscreen != prevousZoomScreenBR)
    1f84:	d0a7eb17 	ldw	r2,-24660(gp)
    1f88:	d127ec04 	addi	r4,gp,-24656
    1f8c:	20c00017 	ldw	r3,0(r4)
    1f90:	e13fdd17 	ldw	r4,-140(fp)
    1f94:	e17fde17 	ldw	r5,-136(fp)
    1f98:	100d883a 	mov	r6,r2
    1f9c:	180f883a 	mov	r7,r3
    1fa0:	00060780 	call	6078 <__eqdf2>
    1fa4:	10000526 	beq	r2,zero,1fbc <drawNodesAndBeams+0x1610>
	{
		prevousZoomScreenBR = zoomscreen;
    1fa8:	e0bfdd17 	ldw	r2,-140(fp)
    1fac:	d0a7eb15 	stw	r2,-24660(gp)
    1fb0:	d0a7ec04 	addi	r2,gp,-24656
    1fb4:	e0ffde17 	ldw	r3,-136(fp)
    1fb8:	10c00015 	stw	r3,0(r2)
	}
	previousXRotation = rotation[0];
    1fbc:	e0bfdf17 	ldw	r2,-132(fp)
    1fc0:	10800017 	ldw	r2,0(r2)
    1fc4:	d0a7ed15 	stw	r2,-24652(gp)
	previousYRotation = rotation[1];
    1fc8:	e0bfdf17 	ldw	r2,-132(fp)
    1fcc:	10800117 	ldw	r2,4(r2)
    1fd0:	d0a7ee15 	stw	r2,-24648(gp)
}
    1fd4:	e6fff804 	addi	sp,fp,-32
    1fd8:	dfc00917 	ldw	ra,36(sp)
    1fdc:	df000817 	ldw	fp,32(sp)
    1fe0:	ddc00717 	ldw	r23,28(sp)
    1fe4:	dd800617 	ldw	r22,24(sp)
    1fe8:	dd400517 	ldw	r21,20(sp)
    1fec:	dd000417 	ldw	r20,16(sp)
    1ff0:	dcc00317 	ldw	r19,12(sp)
    1ff4:	dc800217 	ldw	r18,8(sp)
    1ff8:	dc400117 	ldw	r17,4(sp)
    1ffc:	dc000017 	ldw	r16,0(sp)
    2000:	dec00a04 	addi	sp,sp,40
    2004:	f800283a 	ret

00002008 <main>:
 * 	4. Shows a text message on the LCD display
 * 	5. Displays the last three bytes of data received from the PS/2 port
 * 	   on the HEX displays on the DE2 board
********************************************************************************/
int main(void)
{
    2008:	defffe04 	addi	sp,sp,-8
    200c:	dfc00115 	stw	ra,4(sp)
    2010:	df000015 	stw	fp,0(sp)
    2014:	d839883a 	mov	fp,sp
    2018:	023ff0f4 	movhi	r8,65475
    201c:	423d2804 	addi	r8,r8,-2912
    2020:	da37883a 	add	sp,sp,r8
	/* Declare volatile pointers to I/O registers (volatile means that IO load
	   and store instructions will be used to access these pointer locations,
	   instead of regular memory loads and stores) */
  	volatile int * green_LED_ptr = (int *) 0x10000010;		// green LED address
    2024:	00840034 	movhi	r2,4096
    2028:	10800404 	addi	r2,r2,16
    202c:	00fff0f4 	movhi	r3,65475
    2030:	18fd2f04 	addi	r3,r3,-2884
    2034:	1f07883a 	add	r3,r3,fp
    2038:	18800015 	stw	r2,0(r3)
	volatile int * audio_ptr = (int *) 0x10003040;			// audio port address
    203c:	00840034 	movhi	r2,4096
    2040:	108c1004 	addi	r2,r2,12352
    2044:	013ff0f4 	movhi	r4,65475
    2048:	213d3004 	addi	r4,r4,-2880
    204c:	2709883a 	add	r4,r4,fp
    2050:	20800015 	stw	r2,0(r4)
	volatile int * PS2_ptr = (int *) 0x10000100;				// PS/2 port address
    2054:	00840034 	movhi	r2,4096
    2058:	10804004 	addi	r2,r2,256
    205c:	00fff0f4 	movhi	r3,65475
    2060:	18fd3104 	addi	r3,r3,-2876
    2064:	1f07883a 	add	r3,r3,fp
    2068:	18800015 	stw	r2,0(r3)

	/* used for audio record/playback */
	int fifospace, leftdata, rightdata;
	int record = 0, play = 0, buffer_index = 0;
    206c:	013ff0f4 	movhi	r4,65475
    2070:	213d3204 	addi	r4,r4,-2872
    2074:	2709883a 	add	r4,r4,fp
    2078:	20000015 	stw	zero,0(r4)
    207c:	00bff0f4 	movhi	r2,65475
    2080:	10bd3304 	addi	r2,r2,-2868
    2084:	1705883a 	add	r2,r2,fp
    2088:	10000015 	stw	zero,0(r2)
    208c:	00fff0f4 	movhi	r3,65475
    2090:	18fd3404 	addi	r3,r3,-2864
    2094:	1f07883a 	add	r3,r3,fp
    2098:	18000015 	stw	zero,0(r3)
	int left_buffer[BUF_SIZE];
	int right_buffer[BUF_SIZE];

	/* used for PS/2 port data */
	int PS2_data, RVALID;
	char byte1 = 0, byte2 = 0, byte3 = 0;
    209c:	013ff0f4 	movhi	r4,65475
    20a0:	213d3504 	addi	r4,r4,-2860
    20a4:	2709883a 	add	r4,r4,fp
    20a8:	20000005 	stb	zero,0(r4)
    20ac:	00bff0f4 	movhi	r2,65475
    20b0:	10bd3544 	addi	r2,r2,-2859
    20b4:	1705883a 	add	r2,r2,fp
    20b8:	10000005 	stb	zero,0(r2)
    20bc:	00fff0f4 	movhi	r3,65475
    20c0:	18fd3584 	addi	r3,r3,-2858
    20c4:	1f07883a 	add	r3,r3,fp
    20c8:	18000005 	stb	zero,0(r3)
	/* create a message to be displayed on the VGA and LCD displays */




	double startEndNodes[8][2][3] = {	{{0,100,0},{100,0,100}},
    20cc:	00800f74 	movhi	r2,61
    20d0:	10824b04 	addi	r2,r2,2348
    20d4:	013ff0f4 	movhi	r4,65475
    20d8:	213d2b04 	addi	r4,r4,-2900
    20dc:	2709883a 	add	r4,r4,fp
    20e0:	2087883a 	add	r3,r4,r2
    20e4:	008000b4 	movhi	r2,2
    20e8:	10adbc04 	addi	r2,r2,-18704
    20ec:	1809883a 	mov	r4,r3
    20f0:	1007883a 	mov	r3,r2
    20f4:	00806004 	movi	r2,384
    20f8:	180b883a 	mov	r5,r3
    20fc:	100d883a 	mov	r6,r2
    2100:	000757c0 	call	757c <memcpy>
	//LCD_cursor (0,1);										// set LCD cursor location to bottom row
	//LCD_text (text_bottom_row);
	//LCD_cursor_off ();									// turn off the LCD cursor

	/* output text message in the middle of the VGA monitor */
	VGA_box (0, 0, 319, 239, 0);						// clear the screen
    2104:	d8000015 	stw	zero,0(sp)
    2108:	0009883a 	mov	r4,zero
    210c:	000b883a 	mov	r5,zero
    2110:	01804fc4 	movi	r6,319
    2114:	01c03bc4 	movi	r7,239
    2118:	00027e40 	call	27e4 <VGA_box>
	//VGA_box (0, 0, 320, 240, 0x00FF);

	//VGA_text (1, 1, text_top_row);
	/* read and echo audio data */
	record = 0;
    211c:	00bff0f4 	movhi	r2,65475
    2120:	10bd3204 	addi	r2,r2,-2872
    2124:	1705883a 	add	r2,r2,fp
    2128:	10000015 	stw	zero,0(r2)
	play = 0;
    212c:	00fff0f4 	movhi	r3,65475
    2130:	18fd3304 	addi	r3,r3,-2868
    2134:	1f07883a 	add	r3,r3,fp
    2138:	18000015 	stw	zero,0(r3)

	// PS/2 mouse needs to be reset (must be already plugged in)
	*(PS2_ptr) = 0xFF;		// reset
    213c:	013ff0f4 	movhi	r4,65475
    2140:	213d3104 	addi	r4,r4,-2876
    2144:	2709883a 	add	r4,r4,fp
    2148:	20800017 	ldw	r2,0(r4)
    214c:	00c03fc4 	movi	r3,255
    2150:	10c00015 	stw	r3,0(r2)

	//volatile int * JTAG_UART_ptr 	= (int *) JTAG_UART_BASE;



	int rotation[2] = {90,0};
    2154:	00800f74 	movhi	r2,61
    2158:	1082ab04 	addi	r2,r2,2732
    215c:	00fff0f4 	movhi	r3,65475
    2160:	18fd2b04 	addi	r3,r3,-2900
    2164:	1f07883a 	add	r3,r3,fp
    2168:	1885883a 	add	r2,r3,r2
    216c:	00c01684 	movi	r3,90
    2170:	10c00015 	stw	r3,0(r2)
    2174:	00800f74 	movhi	r2,61
    2178:	1082ab04 	addi	r2,r2,2732
    217c:	013ff0f4 	movhi	r4,65475
    2180:	213d2b04 	addi	r4,r4,-2900
    2184:	2709883a 	add	r4,r4,fp
    2188:	2085883a 	add	r2,r4,r2
    218c:	10000115 	stw	zero,4(r2)

	int xRotate = 0;
    2190:	00bff0f4 	movhi	r2,65475
    2194:	10bd2b04 	addi	r2,r2,-2900
    2198:	1705883a 	add	r2,r2,fp
    219c:	10000015 	stw	zero,0(r2)
	int yRotate = 50;
    21a0:	00800c84 	movi	r2,50
    21a4:	00fff0f4 	movhi	r3,65475
    21a8:	18fd2c04 	addi	r3,r3,-2896
    21ac:	1f07883a 	add	r3,r3,fp
    21b0:	18800015 	stw	r2,0(r3)
	double zoom = 50;
    21b4:	013ff0f4 	movhi	r4,65475
    21b8:	213d2d04 	addi	r4,r4,-2892
    21bc:	2709883a 	add	r4,r4,fp
    21c0:	20000015 	stw	zero,0(r4)
    21c4:	00901274 	movhi	r2,16457
    21c8:	00fff0f4 	movhi	r3,65475
    21cc:	18fd2e04 	addi	r3,r3,-2888
    21d0:	1f07883a 	add	r3,r3,fp
    21d4:	18800015 	stw	r2,0(r3)
	while(1)
	{
			if(xRotate > 359){
    21d8:	013ff0f4 	movhi	r4,65475
    21dc:	213d2b04 	addi	r4,r4,-2900
    21e0:	2709883a 	add	r4,r4,fp
    21e4:	20800017 	ldw	r2,0(r4)
    21e8:	10805a10 	cmplti	r2,r2,360
    21ec:	1000041e 	bne	r2,zero,2200 <main+0x1f8>
				xRotate = 0;
    21f0:	00bff0f4 	movhi	r2,65475
    21f4:	10bd2b04 	addi	r2,r2,-2900
    21f8:	1705883a 	add	r2,r2,fp
    21fc:	10000015 	stw	zero,0(r2)
			}

			if(yRotate > 359){
    2200:	00fff0f4 	movhi	r3,65475
    2204:	18fd2c04 	addi	r3,r3,-2896
    2208:	1f07883a 	add	r3,r3,fp
    220c:	18800017 	ldw	r2,0(r3)
    2210:	10805a10 	cmplti	r2,r2,360
    2214:	1000041e 	bne	r2,zero,2228 <main+0x220>
				yRotate = 0;
    2218:	013ff0f4 	movhi	r4,65475
    221c:	213d2c04 	addi	r4,r4,-2896
    2220:	2709883a 	add	r4,r4,fp
    2224:	20000015 	stw	zero,0(r4)
			}

			if(zoom == 80){
    2228:	00bff0f4 	movhi	r2,65475
    222c:	10bd2d04 	addi	r2,r2,-2892
    2230:	1705883a 	add	r2,r2,fp
    2234:	11000017 	ldw	r4,0(r2)
    2238:	00fff0f4 	movhi	r3,65475
    223c:	18fd2e04 	addi	r3,r3,-2888
    2240:	1f07883a 	add	r3,r3,fp
    2244:	19400017 	ldw	r5,0(r3)
    2248:	000d883a 	mov	r6,zero
    224c:	01d01534 	movhi	r7,16468
    2250:	00060780 	call	6078 <__eqdf2>
    2254:	1000091e 	bne	r2,zero,227c <main+0x274>
				zoom = 50;
    2258:	013ff0f4 	movhi	r4,65475
    225c:	213d2d04 	addi	r4,r4,-2892
    2260:	2709883a 	add	r4,r4,fp
    2264:	20000015 	stw	zero,0(r4)
    2268:	00901274 	movhi	r2,16457
    226c:	00fff0f4 	movhi	r3,65475
    2270:	18fd2e04 	addi	r3,r3,-2888
    2274:	1f07883a 	add	r3,r3,fp
    2278:	18800015 	stw	r2,0(r3)
			}
			rotation[0] = xRotate;
    227c:	00800f74 	movhi	r2,61
    2280:	1082ab04 	addi	r2,r2,2732
    2284:	013ff0f4 	movhi	r4,65475
    2288:	213d2b04 	addi	r4,r4,-2900
    228c:	2709883a 	add	r4,r4,fp
    2290:	2085883a 	add	r2,r4,r2
    2294:	013ff0f4 	movhi	r4,65475
    2298:	213d2b04 	addi	r4,r4,-2900
    229c:	2709883a 	add	r4,r4,fp
    22a0:	20c00017 	ldw	r3,0(r4)
    22a4:	10c00015 	stw	r3,0(r2)
			rotation[1] = yRotate;
    22a8:	00800f74 	movhi	r2,61
    22ac:	1082ab04 	addi	r2,r2,2732
    22b0:	00fff0f4 	movhi	r3,65475
    22b4:	18fd2b04 	addi	r3,r3,-2900
    22b8:	1f07883a 	add	r3,r3,fp
    22bc:	1885883a 	add	r2,r3,r2
    22c0:	013ff0f4 	movhi	r4,65475
    22c4:	213d2c04 	addi	r4,r4,-2896
    22c8:	2709883a 	add	r4,r4,fp
    22cc:	20c00017 	ldw	r3,0(r4)
    22d0:	10c00115 	stw	r3,4(r2)
			drawNodesAndBeams(zoom / 100,rotation, startEndNodes, 160, 120, 0x0F00);
    22d4:	00bff0f4 	movhi	r2,65475
    22d8:	10bd2d04 	addi	r2,r2,-2892
    22dc:	1705883a 	add	r2,r2,fp
    22e0:	11000017 	ldw	r4,0(r2)
    22e4:	00fff0f4 	movhi	r3,65475
    22e8:	18fd2e04 	addi	r3,r3,-2888
    22ec:	1f07883a 	add	r3,r3,fp
    22f0:	19400017 	ldw	r5,0(r3)
    22f4:	000d883a 	mov	r6,zero
    22f8:	01d01674 	movhi	r7,16473
    22fc:	00057ac0 	call	57ac <__divdf3>
    2300:	100f883a 	mov	r7,r2
    2304:	1811883a 	mov	r8,r3
    2308:	380b883a 	mov	r5,r7
    230c:	400d883a 	mov	r6,r8
    2310:	00800f74 	movhi	r2,61
    2314:	1082ab04 	addi	r2,r2,2732
    2318:	013ff0f4 	movhi	r4,65475
    231c:	213d2b04 	addi	r4,r4,-2900
    2320:	2709883a 	add	r4,r4,fp
    2324:	208f883a 	add	r7,r4,r2
    2328:	00800f74 	movhi	r2,61
    232c:	10824b04 	addi	r2,r2,2348
    2330:	013ff0f4 	movhi	r4,65475
    2334:	213d2b04 	addi	r4,r4,-2900
    2338:	2709883a 	add	r4,r4,fp
    233c:	2087883a 	add	r3,r4,r2
    2340:	00802804 	movi	r2,160
    2344:	d8800015 	stw	r2,0(sp)
    2348:	00801e04 	movi	r2,120
    234c:	d8800115 	stw	r2,4(sp)
    2350:	0083c004 	movi	r2,3840
    2354:	d8800215 	stw	r2,8(sp)
    2358:	2809883a 	mov	r4,r5
    235c:	300b883a 	mov	r5,r6
    2360:	380d883a 	mov	r6,r7
    2364:	180f883a 	mov	r7,r3
    2368:	00009ac0 	call	9ac <drawNodesAndBeams>
			drawPixel(159, 119, 2, 0xF000);
    236c:	010027c4 	movi	r4,159
    2370:	01401dc4 	movi	r5,119
    2374:	01800084 	movi	r6,2
    2378:	01fc0004 	movi	r7,-4096
    237c:	00002800 	call	280 <drawPixel>
			xRotate++;
    2380:	00fff0f4 	movhi	r3,65475
    2384:	18fd2b04 	addi	r3,r3,-2900
    2388:	1f07883a 	add	r3,r3,fp
    238c:	18800017 	ldw	r2,0(r3)
    2390:	10800044 	addi	r2,r2,1
    2394:	013ff0f4 	movhi	r4,65475
    2398:	213d2b04 	addi	r4,r4,-2900
    239c:	2709883a 	add	r4,r4,fp
    23a0:	20800015 	stw	r2,0(r4)
			yRotate++;
    23a4:	00fff0f4 	movhi	r3,65475
    23a8:	18fd2c04 	addi	r3,r3,-2896
    23ac:	1f07883a 	add	r3,r3,fp
    23b0:	18800017 	ldw	r2,0(r3)
    23b4:	10800044 	addi	r2,r2,1
    23b8:	013ff0f4 	movhi	r4,65475
    23bc:	213d2c04 	addi	r4,r4,-2896
    23c0:	2709883a 	add	r4,r4,fp
    23c4:	20800015 	stw	r2,0(r4)
			zoom++;
    23c8:	00bff0f4 	movhi	r2,65475
    23cc:	10bd2d04 	addi	r2,r2,-2892
    23d0:	1705883a 	add	r2,r2,fp
    23d4:	11000017 	ldw	r4,0(r2)
    23d8:	00fff0f4 	movhi	r3,65475
    23dc:	18fd2e04 	addi	r3,r3,-2888
    23e0:	1f07883a 	add	r3,r3,fp
    23e4:	19400017 	ldw	r5,0(r3)
    23e8:	000d883a 	mov	r6,zero
    23ec:	01cffc34 	movhi	r7,16368
    23f0:	0004f100 	call	4f10 <__adddf3>
    23f4:	1009883a 	mov	r4,r2
    23f8:	180b883a 	mov	r5,r3
    23fc:	00bff0f4 	movhi	r2,65475
    2400:	10bd2d04 	addi	r2,r2,-2892
    2404:	1705883a 	add	r2,r2,fp
    2408:	11000015 	stw	r4,0(r2)
    240c:	00fff0f4 	movhi	r3,65475
    2410:	18fd2e04 	addi	r3,r3,-2888
    2414:	1f07883a 	add	r3,r3,fp
    2418:	19400015 	stw	r5,0(r3)
			char text_top_row[40];
			char text_bottom_row[40];
			char text_bottom_row2[40];
			char text_bottom_row3[40] = "SOFTWARE MODE \0";
    241c:	00800f74 	movhi	r2,61
    2420:	1082ad04 	addi	r2,r2,2740
    2424:	013ff0f4 	movhi	r4,65475
    2428:	213d2b04 	addi	r4,r4,-2900
    242c:	2709883a 	add	r4,r4,fp
    2430:	2085883a 	add	r2,r4,r2
    2434:	00c000b4 	movhi	r3,2
    2438:	18ee1c04 	addi	r3,r3,-18320
    243c:	19000017 	ldw	r4,0(r3)
    2440:	11000015 	stw	r4,0(r2)
    2444:	19000117 	ldw	r4,4(r3)
    2448:	11000115 	stw	r4,4(r2)
    244c:	19000217 	ldw	r4,8(r3)
    2450:	11000215 	stw	r4,8(r2)
    2454:	18c00317 	ldw	r3,12(r3)
    2458:	10c00315 	stw	r3,12(r2)
    245c:	10000415 	stw	zero,16(r2)
    2460:	10000515 	stw	zero,20(r2)
    2464:	10000615 	stw	zero,24(r2)
    2468:	10000715 	stw	zero,28(r2)
    246c:	10000815 	stw	zero,32(r2)
    2470:	10000915 	stw	zero,36(r2)
			sprintf(text_top_row, "3D amount of lines: %d", 8);
    2474:	00800f74 	movhi	r2,61
    2478:	1082cb04 	addi	r2,r2,2860
    247c:	00fff0f4 	movhi	r3,65475
    2480:	18fd2b04 	addi	r3,r3,-2900
    2484:	1f07883a 	add	r3,r3,fp
    2488:	1885883a 	add	r2,r3,r2
    248c:	1009883a 	mov	r4,r2
    2490:	014000b4 	movhi	r5,2
    2494:	296da304 	addi	r5,r5,-18804
    2498:	01800204 	movi	r6,8
    249c:	000770c0 	call	770c <sprintf>
			VGA_text (1, 1, "                                          \0");
    24a0:	01000044 	movi	r4,1
    24a4:	01400044 	movi	r5,1
    24a8:	018000b4 	movhi	r6,2
    24ac:	31ada904 	addi	r6,r6,-18780
    24b0:	00027540 	call	2754 <VGA_text>
			VGA_text (1, 2, "                                          \0");
    24b4:	01000044 	movi	r4,1
    24b8:	01400084 	movi	r5,2
    24bc:	018000b4 	movhi	r6,2
    24c0:	31ada904 	addi	r6,r6,-18780
    24c4:	00027540 	call	2754 <VGA_text>
			VGA_text (1, 3, "                                          \0");
    24c8:	01000044 	movi	r4,1
    24cc:	014000c4 	movi	r5,3
    24d0:	018000b4 	movhi	r6,2
    24d4:	31ada904 	addi	r6,r6,-18780
    24d8:	00027540 	call	2754 <VGA_text>
			VGA_text (1, 1, text_top_row);
    24dc:	00800f74 	movhi	r2,61
    24e0:	1082cb04 	addi	r2,r2,2860
    24e4:	013ff0f4 	movhi	r4,65475
    24e8:	213d2b04 	addi	r4,r4,-2900
    24ec:	2709883a 	add	r4,r4,fp
    24f0:	2085883a 	add	r2,r4,r2
    24f4:	01000044 	movi	r4,1
    24f8:	01400044 	movi	r5,1
    24fc:	100d883a 	mov	r6,r2
    2500:	00027540 	call	2754 <VGA_text>

			sprintf(text_bottom_row, "Zoom: %f", zoom / 100);
    2504:	00bff0f4 	movhi	r2,65475
    2508:	10bd2d04 	addi	r2,r2,-2892
    250c:	1705883a 	add	r2,r2,fp
    2510:	11000017 	ldw	r4,0(r2)
    2514:	00fff0f4 	movhi	r3,65475
    2518:	18fd2e04 	addi	r3,r3,-2888
    251c:	1f07883a 	add	r3,r3,fp
    2520:	19400017 	ldw	r5,0(r3)
    2524:	000d883a 	mov	r6,zero
    2528:	01d01674 	movhi	r7,16473
    252c:	00057ac0 	call	57ac <__divdf3>
    2530:	1009883a 	mov	r4,r2
    2534:	180b883a 	mov	r5,r3
    2538:	200f883a 	mov	r7,r4
    253c:	2811883a 	mov	r8,r5
    2540:	00800f74 	movhi	r2,61
    2544:	1082c104 	addi	r2,r2,2820
    2548:	013ff0f4 	movhi	r4,65475
    254c:	213d2b04 	addi	r4,r4,-2900
    2550:	2709883a 	add	r4,r4,fp
    2554:	2085883a 	add	r2,r4,r2
    2558:	1009883a 	mov	r4,r2
    255c:	014000b4 	movhi	r5,2
    2560:	296db404 	addi	r5,r5,-18736
    2564:	380d883a 	mov	r6,r7
    2568:	400f883a 	mov	r7,r8
    256c:	000770c0 	call	770c <sprintf>
			VGA_text (1, 2, text_bottom_row);
    2570:	00800f74 	movhi	r2,61
    2574:	1082c104 	addi	r2,r2,2820
    2578:	00fff0f4 	movhi	r3,65475
    257c:	18fd2b04 	addi	r3,r3,-2900
    2580:	1f07883a 	add	r3,r3,fp
    2584:	1885883a 	add	r2,r3,r2
    2588:	01000044 	movi	r4,1
    258c:	01400084 	movi	r5,2
    2590:	100d883a 	mov	r6,r2
    2594:	00027540 	call	2754 <VGA_text>

			sprintf(text_bottom_row2, "Rotation X,Y: %d,%d", rotation[0], rotation[1]);
    2598:	00800f74 	movhi	r2,61
    259c:	1082ab04 	addi	r2,r2,2732
    25a0:	013ff0f4 	movhi	r4,65475
    25a4:	213d2b04 	addi	r4,r4,-2900
    25a8:	2709883a 	add	r4,r4,fp
    25ac:	2085883a 	add	r2,r4,r2
    25b0:	11800017 	ldw	r6,0(r2)
    25b4:	00800f74 	movhi	r2,61
    25b8:	1082ab04 	addi	r2,r2,2732
    25bc:	00fff0f4 	movhi	r3,65475
    25c0:	18fd2b04 	addi	r3,r3,-2900
    25c4:	1f07883a 	add	r3,r3,fp
    25c8:	1885883a 	add	r2,r3,r2
    25cc:	10c00117 	ldw	r3,4(r2)
    25d0:	00800f74 	movhi	r2,61
    25d4:	1082b704 	addi	r2,r2,2780
    25d8:	013ff0f4 	movhi	r4,65475
    25dc:	213d2b04 	addi	r4,r4,-2900
    25e0:	2709883a 	add	r4,r4,fp
    25e4:	2085883a 	add	r2,r4,r2
    25e8:	1009883a 	mov	r4,r2
    25ec:	014000b4 	movhi	r5,2
    25f0:	296db704 	addi	r5,r5,-18724
    25f4:	180f883a 	mov	r7,r3
    25f8:	000770c0 	call	770c <sprintf>
			VGA_text (1, 3, text_bottom_row2);
    25fc:	00800f74 	movhi	r2,61
    2600:	1082b704 	addi	r2,r2,2780
    2604:	00fff0f4 	movhi	r3,65475
    2608:	18fd2b04 	addi	r3,r3,-2900
    260c:	1f07883a 	add	r3,r3,fp
    2610:	1885883a 	add	r2,r3,r2
    2614:	01000044 	movi	r4,1
    2618:	014000c4 	movi	r5,3
    261c:	100d883a 	mov	r6,r2
    2620:	00027540 	call	2754 <VGA_text>

			VGA_text (1, 4, text_bottom_row3);
    2624:	00800f74 	movhi	r2,61
    2628:	1082ad04 	addi	r2,r2,2740
    262c:	013ff0f4 	movhi	r4,65475
    2630:	213d2b04 	addi	r4,r4,-2900
    2634:	2709883a 	add	r4,r4,fp
    2638:	2085883a 	add	r2,r4,r2
    263c:	01000044 	movi	r4,1
    2640:	01400104 	movi	r5,4
    2644:	100d883a 	mov	r6,r2
    2648:	00027540 	call	2754 <VGA_text>
			if(data == 'd'){
				h++;
			}
		}
		 */
	}
    264c:	003ee206 	br	21d8 <__alt_mem_Flash_flash_data+0xf40021d8>

00002650 <LCD_cursor>:

/****************************************************************************************
 * Subroutine to move the LCD cursor
****************************************************************************************/
void LCD_cursor(int x, int y)
{
    2650:	defffb04 	addi	sp,sp,-20
    2654:	df000415 	stw	fp,16(sp)
    2658:	df000404 	addi	fp,sp,16
    265c:	e13ffe15 	stw	r4,-8(fp)
    2660:	e17fff15 	stw	r5,-4(fp)
  	volatile char * LCD_display_ptr = (char *) 0x10003050;	// 16x2 character display
    2664:	00840034 	movhi	r2,4096
    2668:	108c1404 	addi	r2,r2,12368
    266c:	e0bffd15 	stw	r2,-12(fp)
	char instruction;

	instruction = x;
    2670:	e0bffe17 	ldw	r2,-8(fp)
    2674:	e0bffc05 	stb	r2,-16(fp)
	if (y != 0) instruction |= 0x40;				// set bit 6 for bottom row
    2678:	e0bfff17 	ldw	r2,-4(fp)
    267c:	10000326 	beq	r2,zero,268c <LCD_cursor+0x3c>
    2680:	e0bffc03 	ldbu	r2,-16(fp)
    2684:	10801014 	ori	r2,r2,64
    2688:	e0bffc05 	stb	r2,-16(fp)
	instruction |= 0x80;								// need to set bit 7 to set the cursor location
    268c:	e0fffc03 	ldbu	r3,-16(fp)
    2690:	00bfe004 	movi	r2,-128
    2694:	1884b03a 	or	r2,r3,r2
    2698:	e0bffc05 	stb	r2,-16(fp)
	*(LCD_display_ptr) = instruction;			// write to the LCD instruction register
    269c:	e0bffd17 	ldw	r2,-12(fp)
    26a0:	e0fffc03 	ldbu	r3,-16(fp)
    26a4:	10c00005 	stb	r3,0(r2)
}
    26a8:	e037883a 	mov	sp,fp
    26ac:	df000017 	ldw	fp,0(sp)
    26b0:	dec00104 	addi	sp,sp,4
    26b4:	f800283a 	ret

000026b8 <LCD_text>:

/****************************************************************************************
 * Subroutine to send a string of text to the LCD
****************************************************************************************/
void LCD_text(char * text_ptr)
{
    26b8:	defffd04 	addi	sp,sp,-12
    26bc:	df000215 	stw	fp,8(sp)
    26c0:	df000204 	addi	fp,sp,8
    26c4:	e13fff15 	stw	r4,-4(fp)
  	volatile char * LCD_display_ptr = (char *) 0x10003050;	// 16x2 character display
    26c8:	00840034 	movhi	r2,4096
    26cc:	108c1404 	addi	r2,r2,12368
    26d0:	e0bffe15 	stw	r2,-8(fp)

	while ( *(text_ptr) )
    26d4:	00000806 	br	26f8 <LCD_text+0x40>
	{
		*(LCD_display_ptr + 1) = *(text_ptr);	// write to the LCD data register
    26d8:	e0bffe17 	ldw	r2,-8(fp)
    26dc:	10800044 	addi	r2,r2,1
    26e0:	e0ffff17 	ldw	r3,-4(fp)
    26e4:	18c00003 	ldbu	r3,0(r3)
    26e8:	10c00005 	stb	r3,0(r2)
		++text_ptr;
    26ec:	e0bfff17 	ldw	r2,-4(fp)
    26f0:	10800044 	addi	r2,r2,1
    26f4:	e0bfff15 	stw	r2,-4(fp)
****************************************************************************************/
void LCD_text(char * text_ptr)
{
  	volatile char * LCD_display_ptr = (char *) 0x10003050;	// 16x2 character display

	while ( *(text_ptr) )
    26f8:	e0bfff17 	ldw	r2,-4(fp)
    26fc:	10800003 	ldbu	r2,0(r2)
    2700:	10803fcc 	andi	r2,r2,255
    2704:	1080201c 	xori	r2,r2,128
    2708:	10bfe004 	addi	r2,r2,-128
    270c:	103ff21e 	bne	r2,zero,26d8 <__alt_mem_Flash_flash_data+0xf40026d8>
	{
		*(LCD_display_ptr + 1) = *(text_ptr);	// write to the LCD data register
		++text_ptr;
	}
}
    2710:	e037883a 	mov	sp,fp
    2714:	df000017 	ldw	fp,0(sp)
    2718:	dec00104 	addi	sp,sp,4
    271c:	f800283a 	ret

00002720 <LCD_cursor_off>:

/****************************************************************************************
 * Subroutine to turn off the LCD cursor
****************************************************************************************/
void LCD_cursor_off(void)
{
    2720:	defffe04 	addi	sp,sp,-8
    2724:	df000115 	stw	fp,4(sp)
    2728:	df000104 	addi	fp,sp,4
  	volatile char * LCD_display_ptr = (char *) 0x10003050;	// 16x2 character display
    272c:	00840034 	movhi	r2,4096
    2730:	108c1404 	addi	r2,r2,12368
    2734:	e0bfff15 	stw	r2,-4(fp)
	*(LCD_display_ptr) = 0x0C;											// turn off the LCD cursor
    2738:	e0bfff17 	ldw	r2,-4(fp)
    273c:	00c00304 	movi	r3,12
    2740:	10c00005 	stb	r3,0(r2)
}
    2744:	e037883a 	mov	sp,fp
    2748:	df000017 	ldw	fp,0(sp)
    274c:	dec00104 	addi	sp,sp,4
    2750:	f800283a 	ret

00002754 <VGA_text>:

/****************************************************************************************
 * Subroutine to send a string of text to the VGA monitor
****************************************************************************************/
void VGA_text(int x, int y, char * text_ptr)
{
    2754:	defffa04 	addi	sp,sp,-24
    2758:	df000515 	stw	fp,20(sp)
    275c:	df000504 	addi	fp,sp,20
    2760:	e13ffd15 	stw	r4,-12(fp)
    2764:	e17ffe15 	stw	r5,-8(fp)
    2768:	e1bfff15 	stw	r6,-4(fp)
	int offset;
  	volatile char * character_buffer = (char *) 0x09000000;	// VGA character buffer
    276c:	00824034 	movhi	r2,2304
    2770:	e0bffc15 	stw	r2,-16(fp)

	/* assume that the text string fits on one line */
	offset = (y << 7) + x;
    2774:	e0bffe17 	ldw	r2,-8(fp)
    2778:	100691fa 	slli	r3,r2,7
    277c:	e0bffd17 	ldw	r2,-12(fp)
    2780:	1885883a 	add	r2,r3,r2
    2784:	e0bffb15 	stw	r2,-20(fp)
	while ( *(text_ptr) )
    2788:	00000c06 	br	27bc <VGA_text+0x68>
	{
		*(character_buffer + offset) = *(text_ptr);	// write to the character buffer
    278c:	e0bffb17 	ldw	r2,-20(fp)
    2790:	e0fffc17 	ldw	r3,-16(fp)
    2794:	1885883a 	add	r2,r3,r2
    2798:	e0ffff17 	ldw	r3,-4(fp)
    279c:	18c00003 	ldbu	r3,0(r3)
    27a0:	10c00005 	stb	r3,0(r2)
		++text_ptr;
    27a4:	e0bfff17 	ldw	r2,-4(fp)
    27a8:	10800044 	addi	r2,r2,1
    27ac:	e0bfff15 	stw	r2,-4(fp)
		++offset;
    27b0:	e0bffb17 	ldw	r2,-20(fp)
    27b4:	10800044 	addi	r2,r2,1
    27b8:	e0bffb15 	stw	r2,-20(fp)
	int offset;
  	volatile char * character_buffer = (char *) 0x09000000;	// VGA character buffer

	/* assume that the text string fits on one line */
	offset = (y << 7) + x;
	while ( *(text_ptr) )
    27bc:	e0bfff17 	ldw	r2,-4(fp)
    27c0:	10800003 	ldbu	r2,0(r2)
    27c4:	10803fcc 	andi	r2,r2,255
    27c8:	1080201c 	xori	r2,r2,128
    27cc:	10bfe004 	addi	r2,r2,-128
    27d0:	103fee1e 	bne	r2,zero,278c <__alt_mem_Flash_flash_data+0xf400278c>
	{
		*(character_buffer + offset) = *(text_ptr);	// write to the character buffer
		++text_ptr;
		++offset;
	}
}
    27d4:	e037883a 	mov	sp,fp
    27d8:	df000017 	ldw	fp,0(sp)
    27dc:	dec00104 	addi	sp,sp,4
    27e0:	f800283a 	ret

000027e4 <VGA_box>:

/****************************************************************************************
 * Draw a filled rectangle on the VGA monitor
****************************************************************************************/
void VGA_box(int x1, int y1, int x2, int y2, short pixel_color)
{
    27e4:	defff604 	addi	sp,sp,-40
    27e8:	df000915 	stw	fp,36(sp)
    27ec:	df000904 	addi	fp,sp,36
    27f0:	e13ffb15 	stw	r4,-20(fp)
    27f4:	e17ffc15 	stw	r5,-16(fp)
    27f8:	e1bffd15 	stw	r6,-12(fp)
    27fc:	e1fffe15 	stw	r7,-8(fp)
    2800:	e0800117 	ldw	r2,4(fp)
    2804:	e0bfff0d 	sth	r2,-4(fp)
	int offset, row, col;
  	volatile short * pixel_buffer = (short *) 0x08000000;	// VGA pixel buffer
    2808:	00820034 	movhi	r2,2048
    280c:	e0bff915 	stw	r2,-28(fp)

	/* assume that the box coordinates are valid */
	for (row = y1; row <= y2; row++)
    2810:	e0bffc17 	ldw	r2,-16(fp)
    2814:	e0bff715 	stw	r2,-36(fp)
    2818:	00001806 	br	287c <VGA_box+0x98>
	{
		col = x1;
    281c:	e0bffb17 	ldw	r2,-20(fp)
    2820:	e0bff815 	stw	r2,-32(fp)
		while (col <= x2)
    2824:	00000f06 	br	2864 <VGA_box+0x80>
		{
			offset = (row << 9) + col;
    2828:	e0bff717 	ldw	r2,-36(fp)
    282c:	1006927a 	slli	r3,r2,9
    2830:	e0bff817 	ldw	r2,-32(fp)
    2834:	1885883a 	add	r2,r3,r2
    2838:	e0bffa15 	stw	r2,-24(fp)
			*(pixel_buffer + offset) = pixel_color;	// compute halfword address, set pixel
    283c:	e0bffa17 	ldw	r2,-24(fp)
    2840:	1085883a 	add	r2,r2,r2
    2844:	1007883a 	mov	r3,r2
    2848:	e0bff917 	ldw	r2,-28(fp)
    284c:	10c5883a 	add	r2,r2,r3
    2850:	e0ffff0b 	ldhu	r3,-4(fp)
    2854:	10c0000d 	sth	r3,0(r2)
			++col;
    2858:	e0bff817 	ldw	r2,-32(fp)
    285c:	10800044 	addi	r2,r2,1
    2860:	e0bff815 	stw	r2,-32(fp)

	/* assume that the box coordinates are valid */
	for (row = y1; row <= y2; row++)
	{
		col = x1;
		while (col <= x2)
    2864:	e0bff817 	ldw	r2,-32(fp)
    2868:	e0fffd17 	ldw	r3,-12(fp)
    286c:	18bfee0e 	bge	r3,r2,2828 <__alt_mem_Flash_flash_data+0xf4002828>
{
	int offset, row, col;
  	volatile short * pixel_buffer = (short *) 0x08000000;	// VGA pixel buffer

	/* assume that the box coordinates are valid */
	for (row = y1; row <= y2; row++)
    2870:	e0bff717 	ldw	r2,-36(fp)
    2874:	10800044 	addi	r2,r2,1
    2878:	e0bff715 	stw	r2,-36(fp)
    287c:	e0bff717 	ldw	r2,-36(fp)
    2880:	e0fffe17 	ldw	r3,-8(fp)
    2884:	18bfe50e 	bge	r3,r2,281c <__alt_mem_Flash_flash_data+0xf400281c>
			offset = (row << 9) + col;
			*(pixel_buffer + offset) = pixel_color;	// compute halfword address, set pixel
			++col;
		}
	}
}
    2888:	e037883a 	mov	sp,fp
    288c:	df000017 	ldw	fp,0(sp)
    2890:	dec00104 	addi	sp,sp,4
    2894:	f800283a 	ret

00002898 <HEX_PS2>:

/****************************************************************************************
 * Subroutine to show a string of HEX data on the HEX displays
****************************************************************************************/
void HEX_PS2(char b1, char b2, char b3)
{
    2898:	deffef04 	addi	sp,sp,-68
    289c:	dfc01015 	stw	ra,64(sp)
    28a0:	df000f15 	stw	fp,60(sp)
    28a4:	df000f04 	addi	fp,sp,60
    28a8:	2807883a 	mov	r3,r5
    28ac:	3005883a 	mov	r2,r6
    28b0:	e13ffd05 	stb	r4,-12(fp)
    28b4:	e0fffe05 	stb	r3,-8(fp)
    28b8:	e0bfff05 	stb	r2,-4(fp)
	volatile int * HEX3_HEX0_ptr = (int *) 0x10000020;
    28bc:	00840034 	movhi	r2,4096
    28c0:	10800804 	addi	r2,r2,32
    28c4:	e0bff315 	stw	r2,-52(fp)
	volatile int * HEX7_HEX4_ptr = (int *) 0x10000030;
    28c8:	00840034 	movhi	r2,4096
    28cc:	10800c04 	addi	r2,r2,48
    28d0:	e0bff415 	stw	r2,-48(fp)

	/* SEVEN_SEGMENT_DECODE_TABLE gives the on/off settings for all segments in
	 * a single 7-seg display in the DE2 Media Computer, for the hex digits 0 - F */
	unsigned char	seven_seg_decode_table[] = {	0x3F, 0x06, 0x5B, 0x4F, 0x66, 0x6D, 0x7D, 0x07,
    28d4:	008000b4 	movhi	r2,2
    28d8:	10ae2604 	addi	r2,r2,-18280
    28dc:	e0fff644 	addi	r3,fp,-39
    28e0:	100b883a 	mov	r5,r2
    28e4:	00800404 	movi	r2,16
    28e8:	1809883a 	mov	r4,r3
    28ec:	100d883a 	mov	r6,r2
    28f0:	000757c0 	call	757c <memcpy>
		  										0x7F, 0x67, 0x77, 0x7C, 0x39, 0x5E, 0x79, 0x71 };
	unsigned char	hex_segs[] = { 0, 0, 0, 0, 0, 0, 0, 0 };
    28f4:	e03ffa45 	stb	zero,-23(fp)
    28f8:	e03ffa85 	stb	zero,-22(fp)
    28fc:	e03ffac5 	stb	zero,-21(fp)
    2900:	e03ffb05 	stb	zero,-20(fp)
    2904:	e03ffb45 	stb	zero,-19(fp)
    2908:	e03ffb85 	stb	zero,-18(fp)
    290c:	e03ffbc5 	stb	zero,-17(fp)
    2910:	e03ffc05 	stb	zero,-16(fp)
	unsigned int shift_buffer, nibble;
	unsigned char code;
	int i;

	shift_buffer = (b1 << 16) | (b2 << 8) | b3;
    2914:	e0bffd07 	ldb	r2,-12(fp)
    2918:	1006943a 	slli	r3,r2,16
    291c:	e0bffe07 	ldb	r2,-8(fp)
    2920:	1004923a 	slli	r2,r2,8
    2924:	1886b03a 	or	r3,r3,r2
    2928:	e0bfff07 	ldb	r2,-4(fp)
    292c:	1884b03a 	or	r2,r3,r2
    2930:	e0bff115 	stw	r2,-60(fp)
	for ( i = 0; i < 6; ++i )
    2934:	e03ff215 	stw	zero,-56(fp)
    2938:	00001306 	br	2988 <HEX_PS2+0xf0>
	{
		nibble = shift_buffer & 0x0000000F;		// character is in rightmost nibble
    293c:	e0bff117 	ldw	r2,-60(fp)
    2940:	108003cc 	andi	r2,r2,15
    2944:	e0bff515 	stw	r2,-44(fp)
		code = seven_seg_decode_table[nibble];
    2948:	e0fff644 	addi	r3,fp,-39
    294c:	e0bff517 	ldw	r2,-44(fp)
    2950:	1885883a 	add	r2,r3,r2
    2954:	10800003 	ldbu	r2,0(r2)
    2958:	e0bff605 	stb	r2,-40(fp)
		hex_segs[i] = code;
    295c:	e0fffa44 	addi	r3,fp,-23
    2960:	e0bff217 	ldw	r2,-56(fp)
    2964:	1885883a 	add	r2,r3,r2
    2968:	e0fff603 	ldbu	r3,-40(fp)
    296c:	10c00005 	stb	r3,0(r2)
		shift_buffer = shift_buffer >> 4;
    2970:	e0bff117 	ldw	r2,-60(fp)
    2974:	1004d13a 	srli	r2,r2,4
    2978:	e0bff115 	stw	r2,-60(fp)
	unsigned int shift_buffer, nibble;
	unsigned char code;
	int i;

	shift_buffer = (b1 << 16) | (b2 << 8) | b3;
	for ( i = 0; i < 6; ++i )
    297c:	e0bff217 	ldw	r2,-56(fp)
    2980:	10800044 	addi	r2,r2,1
    2984:	e0bff215 	stw	r2,-56(fp)
    2988:	e0bff217 	ldw	r2,-56(fp)
    298c:	10800190 	cmplti	r2,r2,6
    2990:	103fea1e 	bne	r2,zero,293c <__alt_mem_Flash_flash_data+0xf400293c>
		code = seven_seg_decode_table[nibble];
		hex_segs[i] = code;
		shift_buffer = shift_buffer >> 4;
	}
	/* drive the hex displays */
	*(HEX3_HEX0_ptr) = *(int *) (hex_segs);
    2994:	e0bffa44 	addi	r2,fp,-23
    2998:	10c00017 	ldw	r3,0(r2)
    299c:	e0bff317 	ldw	r2,-52(fp)
    29a0:	10c00015 	stw	r3,0(r2)
	*(HEX7_HEX4_ptr) = *(int *) (hex_segs+4);
    29a4:	e0bffb43 	ldbu	r2,-19(fp)
    29a8:	e0fffb83 	ldbu	r3,-18(fp)
    29ac:	1806923a 	slli	r3,r3,8
    29b0:	1884b03a 	or	r2,r3,r2
    29b4:	e0fffbc3 	ldbu	r3,-17(fp)
    29b8:	1806943a 	slli	r3,r3,16
    29bc:	1884b03a 	or	r2,r3,r2
    29c0:	e0fffc03 	ldbu	r3,-16(fp)
    29c4:	1806963a 	slli	r3,r3,24
    29c8:	1884b03a 	or	r2,r3,r2
    29cc:	1007883a 	mov	r3,r2
    29d0:	e0bff417 	ldw	r2,-48(fp)
    29d4:	10c00015 	stw	r3,0(r2)
}
    29d8:	e037883a 	mov	sp,fp
    29dc:	dfc00117 	ldw	ra,4(sp)
    29e0:	df000017 	ldw	fp,0(sp)
    29e4:	dec00204 	addi	sp,sp,8
    29e8:	f800283a 	ret

000029ec <check_KEYs>:

/****************************************************************************************
 * Subroutine to read KEYs
****************************************************************************************/
void check_KEYs(int * KEY1, int * KEY2, int * counter)
{
    29ec:	defff904 	addi	sp,sp,-28
    29f0:	df000615 	stw	fp,24(sp)
    29f4:	df000604 	addi	fp,sp,24
    29f8:	e13ffd15 	stw	r4,-12(fp)
    29fc:	e17ffe15 	stw	r5,-8(fp)
    2a00:	e1bfff15 	stw	r6,-4(fp)
	volatile int * KEY_ptr = (int *) 0x10000050;		// pushbutton KEY address
    2a04:	00840034 	movhi	r2,4096
    2a08:	10801404 	addi	r2,r2,80
    2a0c:	e0bffa15 	stw	r2,-24(fp)
	volatile int * audio_ptr = (int *) 0x10003040;	// audio port address
    2a10:	00840034 	movhi	r2,4096
    2a14:	108c1004 	addi	r2,r2,12352
    2a18:	e0bffb15 	stw	r2,-20(fp)
	int KEY_value;

	KEY_value = *(KEY_ptr); 				// read the pushbutton KEY values
    2a1c:	e0bffa17 	ldw	r2,-24(fp)
    2a20:	10800017 	ldw	r2,0(r2)
    2a24:	e0bffc15 	stw	r2,-16(fp)
	while (*KEY_ptr);							// wait for pushbutton KEY release
    2a28:	0001883a 	nop
    2a2c:	e0bffa17 	ldw	r2,-24(fp)
    2a30:	10800017 	ldw	r2,0(r2)
    2a34:	103ffd1e 	bne	r2,zero,2a2c <__alt_mem_Flash_flash_data+0xf4002a2c>

	if (KEY_value == 0x2)					// check KEY1
    2a38:	e0bffc17 	ldw	r2,-16(fp)
    2a3c:	10800098 	cmpnei	r2,r2,2
    2a40:	10000b1e 	bne	r2,zero,2a70 <check_KEYs+0x84>
	{
		// reset counter to start recording
		*counter = 0;
    2a44:	e0bfff17 	ldw	r2,-4(fp)
    2a48:	10000015 	stw	zero,0(r2)
		// clear audio-in FIFO
		*(audio_ptr) = 0x4;
    2a4c:	e0bffb17 	ldw	r2,-20(fp)
    2a50:	00c00104 	movi	r3,4
    2a54:	10c00015 	stw	r3,0(r2)
		*(audio_ptr) = 0x0;
    2a58:	e0bffb17 	ldw	r2,-20(fp)
    2a5c:	10000015 	stw	zero,0(r2)

		*KEY1 = 1;
    2a60:	e0bffd17 	ldw	r2,-12(fp)
    2a64:	00c00044 	movi	r3,1
    2a68:	10c00015 	stw	r3,0(r2)
    2a6c:	00000d06 	br	2aa4 <check_KEYs+0xb8>
	}
	else if (KEY_value == 0x4)				// check KEY2
    2a70:	e0bffc17 	ldw	r2,-16(fp)
    2a74:	10800118 	cmpnei	r2,r2,4
    2a78:	10000a1e 	bne	r2,zero,2aa4 <check_KEYs+0xb8>
	{
		// reset counter to start playback
		*counter = 0;
    2a7c:	e0bfff17 	ldw	r2,-4(fp)
    2a80:	10000015 	stw	zero,0(r2)
		// clear audio-out FIFO
		*(audio_ptr) = 0x8;
    2a84:	e0bffb17 	ldw	r2,-20(fp)
    2a88:	00c00204 	movi	r3,8
    2a8c:	10c00015 	stw	r3,0(r2)
		*(audio_ptr) = 0x0;
    2a90:	e0bffb17 	ldw	r2,-20(fp)
    2a94:	10000015 	stw	zero,0(r2)

		*KEY2 = 1;
    2a98:	e0bffe17 	ldw	r2,-8(fp)
    2a9c:	00c00044 	movi	r3,1
    2aa0:	10c00015 	stw	r3,0(r2)
	}
}
    2aa4:	e037883a 	mov	sp,fp
    2aa8:	df000017 	ldw	fp,0(sp)
    2aac:	dec00104 	addi	sp,sp,4
    2ab0:	f800283a 	ret

00002ab4 <cos>:
    2ab4:	00a00034 	movhi	r2,32768
    2ab8:	defffa04 	addi	sp,sp,-24
    2abc:	10bfffc4 	addi	r2,r2,-1
    2ac0:	00cffa74 	movhi	r3,16361
    2ac4:	dfc00515 	stw	ra,20(sp)
    2ac8:	2884703a 	and	r2,r5,r2
    2acc:	18c87ec4 	addi	r3,r3,8699
    2ad0:	280f883a 	mov	r7,r5
    2ad4:	1880170e 	bge	r3,r2,2b34 <cos+0x80>
    2ad8:	00dffc34 	movhi	r3,32752
    2adc:	18ffffc4 	addi	r3,r3,-1
    2ae0:	1880050e 	bge	r3,r2,2af8 <cos+0x44>
    2ae4:	200d883a 	mov	r6,r4
    2ae8:	00069e00 	call	69e0 <__subdf3>
    2aec:	dfc00517 	ldw	ra,20(sp)
    2af0:	dec00604 	addi	sp,sp,24
    2af4:	f800283a 	ret
    2af8:	d9800104 	addi	r6,sp,4
    2afc:	0002c900 	call	2c90 <__ieee754_rem_pio2>
    2b00:	108000cc 	andi	r2,r2,3
    2b04:	00c00044 	movi	r3,1
    2b08:	10c01726 	beq	r2,r3,2b68 <cos+0xb4>
    2b0c:	01000084 	movi	r4,2
    2b10:	11000e26 	beq	r2,r4,2b4c <cos+0x98>
    2b14:	10001c26 	beq	r2,zero,2b88 <cos+0xd4>
    2b18:	d9000117 	ldw	r4,4(sp)
    2b1c:	d9400217 	ldw	r5,8(sp)
    2b20:	d9800317 	ldw	r6,12(sp)
    2b24:	d9c00417 	ldw	r7,16(sp)
    2b28:	d8c00015 	stw	r3,0(sp)
    2b2c:	00045f80 	call	45f8 <__kernel_sin>
    2b30:	003fee06 	br	2aec <__alt_mem_Flash_flash_data+0xf4002aec>
    2b34:	000d883a 	mov	r6,zero
    2b38:	000f883a 	mov	r7,zero
    2b3c:	000342c0 	call	342c <__kernel_cos>
    2b40:	dfc00517 	ldw	ra,20(sp)
    2b44:	dec00604 	addi	sp,sp,24
    2b48:	f800283a 	ret
    2b4c:	d9000117 	ldw	r4,4(sp)
    2b50:	d9400217 	ldw	r5,8(sp)
    2b54:	d9800317 	ldw	r6,12(sp)
    2b58:	d9c00417 	ldw	r7,16(sp)
    2b5c:	000342c0 	call	342c <__kernel_cos>
    2b60:	18e0003c 	xorhi	r3,r3,32768
    2b64:	003fe106 	br	2aec <__alt_mem_Flash_flash_data+0xf4002aec>
    2b68:	d9000117 	ldw	r4,4(sp)
    2b6c:	d9400217 	ldw	r5,8(sp)
    2b70:	d9800317 	ldw	r6,12(sp)
    2b74:	d9c00417 	ldw	r7,16(sp)
    2b78:	d8800015 	stw	r2,0(sp)
    2b7c:	00045f80 	call	45f8 <__kernel_sin>
    2b80:	18e0003c 	xorhi	r3,r3,32768
    2b84:	003fd906 	br	2aec <__alt_mem_Flash_flash_data+0xf4002aec>
    2b88:	d9000117 	ldw	r4,4(sp)
    2b8c:	d9400217 	ldw	r5,8(sp)
    2b90:	d9800317 	ldw	r6,12(sp)
    2b94:	d9c00417 	ldw	r7,16(sp)
    2b98:	000342c0 	call	342c <__kernel_cos>
    2b9c:	003fd306 	br	2aec <__alt_mem_Flash_flash_data+0xf4002aec>

00002ba0 <sin>:
    2ba0:	00a00034 	movhi	r2,32768
    2ba4:	defffa04 	addi	sp,sp,-24
    2ba8:	10bfffc4 	addi	r2,r2,-1
    2bac:	00cffa74 	movhi	r3,16361
    2bb0:	dfc00515 	stw	ra,20(sp)
    2bb4:	2884703a 	and	r2,r5,r2
    2bb8:	18c87ec4 	addi	r3,r3,8699
    2bbc:	280f883a 	mov	r7,r5
    2bc0:	1880170e 	bge	r3,r2,2c20 <sin+0x80>
    2bc4:	00dffc34 	movhi	r3,32752
    2bc8:	18ffffc4 	addi	r3,r3,-1
    2bcc:	1880050e 	bge	r3,r2,2be4 <sin+0x44>
    2bd0:	200d883a 	mov	r6,r4
    2bd4:	00069e00 	call	69e0 <__subdf3>
    2bd8:	dfc00517 	ldw	ra,20(sp)
    2bdc:	dec00604 	addi	sp,sp,24
    2be0:	f800283a 	ret
    2be4:	d9800104 	addi	r6,sp,4
    2be8:	0002c900 	call	2c90 <__ieee754_rem_pio2>
    2bec:	108000cc 	andi	r2,r2,3
    2bf0:	00c00044 	movi	r3,1
    2bf4:	10c01926 	beq	r2,r3,2c5c <sin+0xbc>
    2bf8:	01000084 	movi	r4,2
    2bfc:	11000f26 	beq	r2,r4,2c3c <sin+0x9c>
    2c00:	10001c26 	beq	r2,zero,2c74 <sin+0xd4>
    2c04:	d9000117 	ldw	r4,4(sp)
    2c08:	d9400217 	ldw	r5,8(sp)
    2c0c:	d9800317 	ldw	r6,12(sp)
    2c10:	d9c00417 	ldw	r7,16(sp)
    2c14:	000342c0 	call	342c <__kernel_cos>
    2c18:	18e0003c 	xorhi	r3,r3,32768
    2c1c:	003fee06 	br	2bd8 <__alt_mem_Flash_flash_data+0xf4002bd8>
    2c20:	d8000015 	stw	zero,0(sp)
    2c24:	000d883a 	mov	r6,zero
    2c28:	000f883a 	mov	r7,zero
    2c2c:	00045f80 	call	45f8 <__kernel_sin>
    2c30:	dfc00517 	ldw	ra,20(sp)
    2c34:	dec00604 	addi	sp,sp,24
    2c38:	f800283a 	ret
    2c3c:	d9000117 	ldw	r4,4(sp)
    2c40:	d9400217 	ldw	r5,8(sp)
    2c44:	d9800317 	ldw	r6,12(sp)
    2c48:	d9c00417 	ldw	r7,16(sp)
    2c4c:	d8c00015 	stw	r3,0(sp)
    2c50:	00045f80 	call	45f8 <__kernel_sin>
    2c54:	18e0003c 	xorhi	r3,r3,32768
    2c58:	003fdf06 	br	2bd8 <__alt_mem_Flash_flash_data+0xf4002bd8>
    2c5c:	d9000117 	ldw	r4,4(sp)
    2c60:	d9400217 	ldw	r5,8(sp)
    2c64:	d9800317 	ldw	r6,12(sp)
    2c68:	d9c00417 	ldw	r7,16(sp)
    2c6c:	000342c0 	call	342c <__kernel_cos>
    2c70:	003fd906 	br	2bd8 <__alt_mem_Flash_flash_data+0xf4002bd8>
    2c74:	d9000117 	ldw	r4,4(sp)
    2c78:	d9400217 	ldw	r5,8(sp)
    2c7c:	d9800317 	ldw	r6,12(sp)
    2c80:	d9c00417 	ldw	r7,16(sp)
    2c84:	d8c00015 	stw	r3,0(sp)
    2c88:	00045f80 	call	45f8 <__kernel_sin>
    2c8c:	003fd206 	br	2bd8 <__alt_mem_Flash_flash_data+0xf4002bd8>

00002c90 <__ieee754_rem_pio2>:
    2c90:	02200034 	movhi	r8,32768
    2c94:	deffea04 	addi	sp,sp,-88
    2c98:	423fffc4 	addi	r8,r8,-1
    2c9c:	00cffa74 	movhi	r3,16361
    2ca0:	ddc01315 	stw	r23,76(sp)
    2ca4:	dc400d15 	stw	r17,52(sp)
    2ca8:	dfc01515 	stw	ra,84(sp)
    2cac:	df001415 	stw	fp,80(sp)
    2cb0:	dd801215 	stw	r22,72(sp)
    2cb4:	dd401115 	stw	r21,68(sp)
    2cb8:	dd001015 	stw	r20,64(sp)
    2cbc:	dcc00f15 	stw	r19,60(sp)
    2cc0:	dc800e15 	stw	r18,56(sp)
    2cc4:	dc000c15 	stw	r16,48(sp)
    2cc8:	2a2e703a 	and	r23,r5,r8
    2ccc:	18c87ec4 	addi	r3,r3,8699
    2cd0:	2823883a 	mov	r17,r5
    2cd4:	1dc0790e 	bge	r3,r23,2ebc <__ieee754_rem_pio2+0x22c>
    2cd8:	009000f4 	movhi	r2,16387
    2cdc:	10b65ec4 	addi	r2,r2,-9861
    2ce0:	3021883a 	mov	r16,r6
    2ce4:	2027883a 	mov	r19,r4
    2ce8:	15c02316 	blt	r2,r23,2d78 <__ieee754_rem_pio2+0xe8>
    2cec:	01cffe74 	movhi	r7,16377
    2cf0:	39c87ec4 	addi	r7,r7,8699
    2cf4:	01951034 	movhi	r6,21568
    2cf8:	0141800e 	bge	zero,r5,32fc <__ieee754_rem_pio2+0x66c>
    2cfc:	00069e00 	call	69e0 <__subdf3>
    2d00:	1025883a 	mov	r18,r2
    2d04:	008ffe74 	movhi	r2,16377
    2d08:	10887ec4 	addi	r2,r2,8699
    2d0c:	1823883a 	mov	r17,r3
    2d10:	b8808426 	beq	r23,r2,2f24 <__ieee754_rem_pio2+0x294>
    2d14:	018698b4 	movhi	r6,6754
    2d18:	01cf7474 	movhi	r7,15825
    2d1c:	3198cc44 	addi	r6,r6,25393
    2d20:	39ed1844 	addi	r7,r7,-19359
    2d24:	9009883a 	mov	r4,r18
    2d28:	180b883a 	mov	r5,r3
    2d2c:	00069e00 	call	69e0 <__subdf3>
    2d30:	100d883a 	mov	r6,r2
    2d34:	180f883a 	mov	r7,r3
    2d38:	9009883a 	mov	r4,r18
    2d3c:	880b883a 	mov	r5,r17
    2d40:	80800015 	stw	r2,0(r16)
    2d44:	80c00115 	stw	r3,4(r16)
    2d48:	00069e00 	call	69e0 <__subdf3>
    2d4c:	018698b4 	movhi	r6,6754
    2d50:	01cf7474 	movhi	r7,15825
    2d54:	1009883a 	mov	r4,r2
    2d58:	180b883a 	mov	r5,r3
    2d5c:	3198cc44 	addi	r6,r6,25393
    2d60:	39ed1844 	addi	r7,r7,-19359
    2d64:	00069e00 	call	69e0 <__subdf3>
    2d68:	80800215 	stw	r2,8(r16)
    2d6c:	80c00315 	stw	r3,12(r16)
    2d70:	00800044 	movi	r2,1
    2d74:	00005606 	br	2ed0 <__ieee754_rem_pio2+0x240>
    2d78:	00904e74 	movhi	r2,16697
    2d7c:	10887ec4 	addi	r2,r2,8699
    2d80:	15c0890e 	bge	r2,r23,2fa8 <__ieee754_rem_pio2+0x318>
    2d84:	009ffc34 	movhi	r2,32752
    2d88:	10bfffc4 	addi	r2,r2,-1
    2d8c:	15c05c16 	blt	r2,r23,2f00 <__ieee754_rem_pio2+0x270>
    2d90:	b829d53a 	srai	r20,r23,20
    2d94:	a53efa84 	addi	r20,r20,-1046
    2d98:	a024953a 	slli	r18,r20,20
    2d9c:	bca5c83a 	sub	r18,r23,r18
    2da0:	900b883a 	mov	r5,r18
    2da4:	00072b00 	call	72b0 <__fixdfsi>
    2da8:	1009883a 	mov	r4,r2
    2dac:	00073380 	call	7338 <__floatsidf>
    2db0:	9809883a 	mov	r4,r19
    2db4:	900b883a 	mov	r5,r18
    2db8:	100d883a 	mov	r6,r2
    2dbc:	180f883a 	mov	r7,r3
    2dc0:	d8800215 	stw	r2,8(sp)
    2dc4:	d8c00315 	stw	r3,12(sp)
    2dc8:	00069e00 	call	69e0 <__subdf3>
    2dcc:	000d883a 	mov	r6,zero
    2dd0:	01d05c34 	movhi	r7,16752
    2dd4:	1009883a 	mov	r4,r2
    2dd8:	180b883a 	mov	r5,r3
    2ddc:	00062bc0 	call	62bc <__muldf3>
    2de0:	180b883a 	mov	r5,r3
    2de4:	1009883a 	mov	r4,r2
    2de8:	182b883a 	mov	r21,r3
    2dec:	102d883a 	mov	r22,r2
    2df0:	00072b00 	call	72b0 <__fixdfsi>
    2df4:	1009883a 	mov	r4,r2
    2df8:	00073380 	call	7338 <__floatsidf>
    2dfc:	100d883a 	mov	r6,r2
    2e00:	180f883a 	mov	r7,r3
    2e04:	b009883a 	mov	r4,r22
    2e08:	a80b883a 	mov	r5,r21
    2e0c:	1027883a 	mov	r19,r2
    2e10:	1825883a 	mov	r18,r3
    2e14:	d8800415 	stw	r2,16(sp)
    2e18:	d8c00515 	stw	r3,20(sp)
    2e1c:	00069e00 	call	69e0 <__subdf3>
    2e20:	1009883a 	mov	r4,r2
    2e24:	180b883a 	mov	r5,r3
    2e28:	000d883a 	mov	r6,zero
    2e2c:	01d05c34 	movhi	r7,16752
    2e30:	00062bc0 	call	62bc <__muldf3>
    2e34:	1009883a 	mov	r4,r2
    2e38:	180b883a 	mov	r5,r3
    2e3c:	000d883a 	mov	r6,zero
    2e40:	000f883a 	mov	r7,zero
    2e44:	d8800615 	stw	r2,24(sp)
    2e48:	d8c00715 	stw	r3,28(sp)
    2e4c:	00060780 	call	6078 <__eqdf2>
    2e50:	1001491e 	bne	r2,zero,3378 <__ieee754_rem_pio2+0x6e8>
    2e54:	000f883a 	mov	r7,zero
    2e58:	9809883a 	mov	r4,r19
    2e5c:	900b883a 	mov	r5,r18
    2e60:	000d883a 	mov	r6,zero
    2e64:	00060780 	call	6078 <__eqdf2>
    2e68:	100f003a 	cmpeq	r7,r2,zero
    2e6c:	00800084 	movi	r2,2
    2e70:	11cfc83a 	sub	r7,r2,r7
    2e74:	00800084 	movi	r2,2
    2e78:	d8800015 	stw	r2,0(sp)
    2e7c:	008000b4 	movhi	r2,2
    2e80:	10ae4a04 	addi	r2,r2,-18136
    2e84:	d8800115 	stw	r2,4(sp)
    2e88:	d9000204 	addi	r4,sp,8
    2e8c:	800b883a 	mov	r5,r16
    2e90:	a00d883a 	mov	r6,r20
    2e94:	00038d00 	call	38d0 <__kernel_rem_pio2>
    2e98:	88000d0e 	bge	r17,zero,2ed0 <__ieee754_rem_pio2+0x240>
    2e9c:	81000117 	ldw	r4,4(r16)
    2ea0:	80c00317 	ldw	r3,12(r16)
    2ea4:	0085c83a 	sub	r2,zero,r2
    2ea8:	2120003c 	xorhi	r4,r4,32768
    2eac:	18e0003c 	xorhi	r3,r3,32768
    2eb0:	81000115 	stw	r4,4(r16)
    2eb4:	80c00315 	stw	r3,12(r16)
    2eb8:	00000506 	br	2ed0 <__ieee754_rem_pio2+0x240>
    2ebc:	31000015 	stw	r4,0(r6)
    2ec0:	31400115 	stw	r5,4(r6)
    2ec4:	30000215 	stw	zero,8(r6)
    2ec8:	30000315 	stw	zero,12(r6)
    2ecc:	0005883a 	mov	r2,zero
    2ed0:	dfc01517 	ldw	ra,84(sp)
    2ed4:	df001417 	ldw	fp,80(sp)
    2ed8:	ddc01317 	ldw	r23,76(sp)
    2edc:	dd801217 	ldw	r22,72(sp)
    2ee0:	dd401117 	ldw	r21,68(sp)
    2ee4:	dd001017 	ldw	r20,64(sp)
    2ee8:	dcc00f17 	ldw	r19,60(sp)
    2eec:	dc800e17 	ldw	r18,56(sp)
    2ef0:	dc400d17 	ldw	r17,52(sp)
    2ef4:	dc000c17 	ldw	r16,48(sp)
    2ef8:	dec01604 	addi	sp,sp,88
    2efc:	f800283a 	ret
    2f00:	200d883a 	mov	r6,r4
    2f04:	280f883a 	mov	r7,r5
    2f08:	00069e00 	call	69e0 <__subdf3>
    2f0c:	80800215 	stw	r2,8(r16)
    2f10:	80800015 	stw	r2,0(r16)
    2f14:	80c00315 	stw	r3,12(r16)
    2f18:	80c00115 	stw	r3,4(r16)
    2f1c:	0005883a 	mov	r2,zero
    2f20:	003feb06 	br	2ed0 <__alt_mem_Flash_flash_data+0xf4002ed0>
    2f24:	01cf7474 	movhi	r7,15825
    2f28:	9009883a 	mov	r4,r18
    2f2c:	39ed1844 	addi	r7,r7,-19359
    2f30:	01869834 	movhi	r6,6752
    2f34:	180b883a 	mov	r5,r3
    2f38:	00069e00 	call	69e0 <__subdf3>
    2f3c:	018b80f4 	movhi	r6,11779
    2f40:	01cee8f4 	movhi	r7,15267
    2f44:	1009883a 	mov	r4,r2
    2f48:	180b883a 	mov	r5,r3
    2f4c:	319c1cc4 	addi	r6,r6,28787
    2f50:	39c66284 	addi	r7,r7,6538
    2f54:	1025883a 	mov	r18,r2
    2f58:	1823883a 	mov	r17,r3
    2f5c:	00069e00 	call	69e0 <__subdf3>
    2f60:	100d883a 	mov	r6,r2
    2f64:	180f883a 	mov	r7,r3
    2f68:	9009883a 	mov	r4,r18
    2f6c:	880b883a 	mov	r5,r17
    2f70:	80800015 	stw	r2,0(r16)
    2f74:	80c00115 	stw	r3,4(r16)
    2f78:	00069e00 	call	69e0 <__subdf3>
    2f7c:	018b80f4 	movhi	r6,11779
    2f80:	01cee8f4 	movhi	r7,15267
    2f84:	1009883a 	mov	r4,r2
    2f88:	180b883a 	mov	r5,r3
    2f8c:	319c1cc4 	addi	r6,r6,28787
    2f90:	39c66284 	addi	r7,r7,6538
    2f94:	00069e00 	call	69e0 <__subdf3>
    2f98:	80800215 	stw	r2,8(r16)
    2f9c:	80c00315 	stw	r3,12(r16)
    2fa0:	00800044 	movi	r2,1
    2fa4:	003fca06 	br	2ed0 <__alt_mem_Flash_flash_data+0xf4002ed0>
    2fa8:	00048c00 	call	48c0 <fabs>
    2fac:	019b72b4 	movhi	r6,28106
    2fb0:	01cff934 	movhi	r7,16356
    2fb4:	1009883a 	mov	r4,r2
    2fb8:	180b883a 	mov	r5,r3
    2fbc:	31b220c4 	addi	r6,r6,-14205
    2fc0:	39d7cc04 	addi	r7,r7,24368
    2fc4:	102d883a 	mov	r22,r2
    2fc8:	182b883a 	mov	r21,r3
    2fcc:	00062bc0 	call	62bc <__muldf3>
    2fd0:	000d883a 	mov	r6,zero
    2fd4:	01cff834 	movhi	r7,16352
    2fd8:	1009883a 	mov	r4,r2
    2fdc:	180b883a 	mov	r5,r3
    2fe0:	0004f100 	call	4f10 <__adddf3>
    2fe4:	180b883a 	mov	r5,r3
    2fe8:	1009883a 	mov	r4,r2
    2fec:	00072b00 	call	72b0 <__fixdfsi>
    2ff0:	1009883a 	mov	r4,r2
    2ff4:	1025883a 	mov	r18,r2
    2ff8:	00073380 	call	7338 <__floatsidf>
    2ffc:	01cffe74 	movhi	r7,16377
    3000:	1009883a 	mov	r4,r2
    3004:	180b883a 	mov	r5,r3
    3008:	39c87ec4 	addi	r7,r7,8699
    300c:	01951034 	movhi	r6,21568
    3010:	1029883a 	mov	r20,r2
    3014:	1827883a 	mov	r19,r3
    3018:	00062bc0 	call	62bc <__muldf3>
    301c:	b009883a 	mov	r4,r22
    3020:	a80b883a 	mov	r5,r21
    3024:	100d883a 	mov	r6,r2
    3028:	180f883a 	mov	r7,r3
    302c:	00069e00 	call	69e0 <__subdf3>
    3030:	018698b4 	movhi	r6,6754
    3034:	01cf7474 	movhi	r7,15825
    3038:	a009883a 	mov	r4,r20
    303c:	3198cc44 	addi	r6,r6,25393
    3040:	39ed1844 	addi	r7,r7,-19359
    3044:	980b883a 	mov	r5,r19
    3048:	1039883a 	mov	fp,r2
    304c:	d8c00815 	stw	r3,32(sp)
    3050:	00062bc0 	call	62bc <__muldf3>
    3054:	010007c4 	movi	r4,31
    3058:	e017883a 	mov	r11,fp
    305c:	da800817 	ldw	r10,32(sp)
    3060:	102d883a 	mov	r22,r2
    3064:	182b883a 	mov	r21,r3
    3068:	24802816 	blt	r4,r18,310c <__ieee754_rem_pio2+0x47c>
    306c:	927fffc4 	addi	r9,r18,-1
    3070:	4a53883a 	add	r9,r9,r9
    3074:	010000b4 	movhi	r4,2
    3078:	212e2a04 	addi	r4,r4,-18264
    307c:	4a53883a 	add	r9,r9,r9
    3080:	2253883a 	add	r9,r4,r9
    3084:	49000017 	ldw	r4,0(r9)
    3088:	25c02026 	beq	r4,r23,310c <__ieee754_rem_pio2+0x47c>
    308c:	e009883a 	mov	r4,fp
    3090:	500b883a 	mov	r5,r10
    3094:	100d883a 	mov	r6,r2
    3098:	180f883a 	mov	r7,r3
    309c:	da800b15 	stw	r10,44(sp)
    30a0:	df000a15 	stw	fp,40(sp)
    30a4:	00069e00 	call	69e0 <__subdf3>
    30a8:	da800b17 	ldw	r10,44(sp)
    30ac:	dac00a17 	ldw	r11,40(sp)
    30b0:	1019883a 	mov	r12,r2
    30b4:	1813883a 	mov	r9,r3
    30b8:	80800015 	stw	r2,0(r16)
    30bc:	80c00115 	stw	r3,4(r16)
    30c0:	600d883a 	mov	r6,r12
    30c4:	480f883a 	mov	r7,r9
    30c8:	5809883a 	mov	r4,r11
    30cc:	500b883a 	mov	r5,r10
    30d0:	da400b15 	stw	r9,44(sp)
    30d4:	db000a15 	stw	r12,40(sp)
    30d8:	00069e00 	call	69e0 <__subdf3>
    30dc:	1009883a 	mov	r4,r2
    30e0:	180b883a 	mov	r5,r3
    30e4:	b00d883a 	mov	r6,r22
    30e8:	a80f883a 	mov	r7,r21
    30ec:	00069e00 	call	69e0 <__subdf3>
    30f0:	80800215 	stw	r2,8(r16)
    30f4:	80c00315 	stw	r3,12(r16)
    30f8:	da400b17 	ldw	r9,44(sp)
    30fc:	db000a17 	ldw	r12,40(sp)
    3100:	88009f16 	blt	r17,zero,3380 <__ieee754_rem_pio2+0x6f0>
    3104:	9005883a 	mov	r2,r18
    3108:	003f7106 	br	2ed0 <__alt_mem_Flash_flash_data+0xf4002ed0>
    310c:	d9400817 	ldw	r5,32(sp)
    3110:	e009883a 	mov	r4,fp
    3114:	100d883a 	mov	r6,r2
    3118:	180f883a 	mov	r7,r3
    311c:	da800b15 	stw	r10,44(sp)
    3120:	dac00a15 	stw	r11,40(sp)
    3124:	00069e00 	call	69e0 <__subdf3>
    3128:	1019883a 	mov	r12,r2
    312c:	1804d53a 	srli	r2,r3,20
    3130:	b811d53a 	srai	r8,r23,20
    3134:	1813883a 	mov	r9,r3
    3138:	1081ffcc 	andi	r2,r2,2047
    313c:	80c00115 	stw	r3,4(r16)
    3140:	83000015 	stw	r12,0(r16)
    3144:	4085c83a 	sub	r2,r8,r2
    3148:	00c00404 	movi	r3,16
    314c:	da800b17 	ldw	r10,44(sp)
    3150:	dac00a17 	ldw	r11,40(sp)
    3154:	18bfda0e 	bge	r3,r2,30c0 <__alt_mem_Flash_flash_data+0xf40030c0>
    3158:	01cf7474 	movhi	r7,15825
    315c:	39ed1844 	addi	r7,r7,-19359
    3160:	a009883a 	mov	r4,r20
    3164:	980b883a 	mov	r5,r19
    3168:	01869834 	movhi	r6,6752
    316c:	da000a15 	stw	r8,40(sp)
    3170:	00062bc0 	call	62bc <__muldf3>
    3174:	d9400817 	ldw	r5,32(sp)
    3178:	e009883a 	mov	r4,fp
    317c:	100d883a 	mov	r6,r2
    3180:	180f883a 	mov	r7,r3
    3184:	102d883a 	mov	r22,r2
    3188:	182b883a 	mov	r21,r3
    318c:	00069e00 	call	69e0 <__subdf3>
    3190:	d9400817 	ldw	r5,32(sp)
    3194:	e009883a 	mov	r4,fp
    3198:	100d883a 	mov	r6,r2
    319c:	180f883a 	mov	r7,r3
    31a0:	182f883a 	mov	r23,r3
    31a4:	d8800915 	stw	r2,36(sp)
    31a8:	00069e00 	call	69e0 <__subdf3>
    31ac:	b00d883a 	mov	r6,r22
    31b0:	a80f883a 	mov	r7,r21
    31b4:	1009883a 	mov	r4,r2
    31b8:	180b883a 	mov	r5,r3
    31bc:	00069e00 	call	69e0 <__subdf3>
    31c0:	018b80f4 	movhi	r6,11779
    31c4:	01cee8f4 	movhi	r7,15267
    31c8:	a009883a 	mov	r4,r20
    31cc:	980b883a 	mov	r5,r19
    31d0:	319c1cc4 	addi	r6,r6,28787
    31d4:	39c66284 	addi	r7,r7,6538
    31d8:	102d883a 	mov	r22,r2
    31dc:	182b883a 	mov	r21,r3
    31e0:	00062bc0 	call	62bc <__muldf3>
    31e4:	b00d883a 	mov	r6,r22
    31e8:	a80f883a 	mov	r7,r21
    31ec:	1009883a 	mov	r4,r2
    31f0:	180b883a 	mov	r5,r3
    31f4:	00069e00 	call	69e0 <__subdf3>
    31f8:	d9000917 	ldw	r4,36(sp)
    31fc:	b80b883a 	mov	r5,r23
    3200:	100d883a 	mov	r6,r2
    3204:	180f883a 	mov	r7,r3
    3208:	102d883a 	mov	r22,r2
    320c:	182b883a 	mov	r21,r3
    3210:	00069e00 	call	69e0 <__subdf3>
    3214:	1019883a 	mov	r12,r2
    3218:	1804d53a 	srli	r2,r3,20
    321c:	da000a17 	ldw	r8,40(sp)
    3220:	83000015 	stw	r12,0(r16)
    3224:	1081ffcc 	andi	r2,r2,2047
    3228:	4091c83a 	sub	r8,r8,r2
    322c:	80c00115 	stw	r3,4(r16)
    3230:	00800c44 	movi	r2,49
    3234:	1813883a 	mov	r9,r3
    3238:	1200790e 	bge	r2,r8,3420 <__ieee754_rem_pio2+0x790>
    323c:	01cee8f4 	movhi	r7,15267
    3240:	39c66284 	addi	r7,r7,6538
    3244:	a009883a 	mov	r4,r20
    3248:	980b883a 	mov	r5,r19
    324c:	018b8034 	movhi	r6,11776
    3250:	00062bc0 	call	62bc <__muldf3>
    3254:	d9000917 	ldw	r4,36(sp)
    3258:	b80b883a 	mov	r5,r23
    325c:	100d883a 	mov	r6,r2
    3260:	180f883a 	mov	r7,r3
    3264:	102d883a 	mov	r22,r2
    3268:	182b883a 	mov	r21,r3
    326c:	00069e00 	call	69e0 <__subdf3>
    3270:	d9000917 	ldw	r4,36(sp)
    3274:	b80b883a 	mov	r5,r23
    3278:	100d883a 	mov	r6,r2
    327c:	180f883a 	mov	r7,r3
    3280:	d8c00b15 	stw	r3,44(sp)
    3284:	d8800a15 	stw	r2,40(sp)
    3288:	00069e00 	call	69e0 <__subdf3>
    328c:	b00d883a 	mov	r6,r22
    3290:	a80f883a 	mov	r7,r21
    3294:	1009883a 	mov	r4,r2
    3298:	180b883a 	mov	r5,r3
    329c:	00069e00 	call	69e0 <__subdf3>
    32a0:	01894834 	movhi	r6,9504
    32a4:	01ce5f34 	movhi	r7,14716
    32a8:	a009883a 	mov	r4,r20
    32ac:	980b883a 	mov	r5,r19
    32b0:	31927044 	addi	r6,r6,18881
    32b4:	39e0e684 	addi	r7,r7,-31846
    32b8:	102d883a 	mov	r22,r2
    32bc:	182b883a 	mov	r21,r3
    32c0:	00062bc0 	call	62bc <__muldf3>
    32c4:	b00d883a 	mov	r6,r22
    32c8:	a80f883a 	mov	r7,r21
    32cc:	1009883a 	mov	r4,r2
    32d0:	180b883a 	mov	r5,r3
    32d4:	00069e00 	call	69e0 <__subdf3>
    32d8:	dac00a17 	ldw	r11,40(sp)
    32dc:	da800b17 	ldw	r10,44(sp)
    32e0:	102d883a 	mov	r22,r2
    32e4:	182b883a 	mov	r21,r3
    32e8:	5809883a 	mov	r4,r11
    32ec:	500b883a 	mov	r5,r10
    32f0:	100d883a 	mov	r6,r2
    32f4:	180f883a 	mov	r7,r3
    32f8:	003f6a06 	br	30a4 <__alt_mem_Flash_flash_data+0xf40030a4>
    32fc:	0004f100 	call	4f10 <__adddf3>
    3300:	1025883a 	mov	r18,r2
    3304:	008ffe74 	movhi	r2,16377
    3308:	10887ec4 	addi	r2,r2,8699
    330c:	1823883a 	mov	r17,r3
    3310:	b8802226 	beq	r23,r2,339c <__ieee754_rem_pio2+0x70c>
    3314:	018698b4 	movhi	r6,6754
    3318:	01cf7474 	movhi	r7,15825
    331c:	3198cc44 	addi	r6,r6,25393
    3320:	39ed1844 	addi	r7,r7,-19359
    3324:	9009883a 	mov	r4,r18
    3328:	180b883a 	mov	r5,r3
    332c:	0004f100 	call	4f10 <__adddf3>
    3330:	100d883a 	mov	r6,r2
    3334:	180f883a 	mov	r7,r3
    3338:	9009883a 	mov	r4,r18
    333c:	880b883a 	mov	r5,r17
    3340:	80800015 	stw	r2,0(r16)
    3344:	80c00115 	stw	r3,4(r16)
    3348:	00069e00 	call	69e0 <__subdf3>
    334c:	018698b4 	movhi	r6,6754
    3350:	01cf7474 	movhi	r7,15825
    3354:	1009883a 	mov	r4,r2
    3358:	180b883a 	mov	r5,r3
    335c:	3198cc44 	addi	r6,r6,25393
    3360:	39ed1844 	addi	r7,r7,-19359
    3364:	0004f100 	call	4f10 <__adddf3>
    3368:	80800215 	stw	r2,8(r16)
    336c:	80c00315 	stw	r3,12(r16)
    3370:	00bfffc4 	movi	r2,-1
    3374:	003ed606 	br	2ed0 <__alt_mem_Flash_flash_data+0xf4002ed0>
    3378:	01c000c4 	movi	r7,3
    337c:	003ebd06 	br	2e74 <__alt_mem_Flash_flash_data+0xf4002e74>
    3380:	4a60003c 	xorhi	r9,r9,32768
    3384:	18e0003c 	xorhi	r3,r3,32768
    3388:	83000015 	stw	r12,0(r16)
    338c:	82400115 	stw	r9,4(r16)
    3390:	80c00315 	stw	r3,12(r16)
    3394:	0485c83a 	sub	r2,zero,r18
    3398:	003ecd06 	br	2ed0 <__alt_mem_Flash_flash_data+0xf4002ed0>
    339c:	01cf7474 	movhi	r7,15825
    33a0:	9009883a 	mov	r4,r18
    33a4:	39ed1844 	addi	r7,r7,-19359
    33a8:	01869834 	movhi	r6,6752
    33ac:	180b883a 	mov	r5,r3
    33b0:	0004f100 	call	4f10 <__adddf3>
    33b4:	018b80f4 	movhi	r6,11779
    33b8:	01cee8f4 	movhi	r7,15267
    33bc:	1009883a 	mov	r4,r2
    33c0:	180b883a 	mov	r5,r3
    33c4:	319c1cc4 	addi	r6,r6,28787
    33c8:	39c66284 	addi	r7,r7,6538
    33cc:	1025883a 	mov	r18,r2
    33d0:	1823883a 	mov	r17,r3
    33d4:	0004f100 	call	4f10 <__adddf3>
    33d8:	100d883a 	mov	r6,r2
    33dc:	180f883a 	mov	r7,r3
    33e0:	9009883a 	mov	r4,r18
    33e4:	880b883a 	mov	r5,r17
    33e8:	80800015 	stw	r2,0(r16)
    33ec:	80c00115 	stw	r3,4(r16)
    33f0:	00069e00 	call	69e0 <__subdf3>
    33f4:	018b80f4 	movhi	r6,11779
    33f8:	01cee8f4 	movhi	r7,15267
    33fc:	1009883a 	mov	r4,r2
    3400:	180b883a 	mov	r5,r3
    3404:	319c1cc4 	addi	r6,r6,28787
    3408:	39c66284 	addi	r7,r7,6538
    340c:	0004f100 	call	4f10 <__adddf3>
    3410:	80800215 	stw	r2,8(r16)
    3414:	80c00315 	stw	r3,12(r16)
    3418:	00bfffc4 	movi	r2,-1
    341c:	003eac06 	br	2ed0 <__alt_mem_Flash_flash_data+0xf4002ed0>
    3420:	dac00917 	ldw	r11,36(sp)
    3424:	b815883a 	mov	r10,r23
    3428:	003f2506 	br	30c0 <__alt_mem_Flash_flash_data+0xf40030c0>

0000342c <__kernel_cos>:
    342c:	defff304 	addi	sp,sp,-52
    3430:	dc000315 	stw	r16,12(sp)
    3434:	04200034 	movhi	r16,32768
    3438:	843fffc4 	addi	r16,r16,-1
    343c:	008f9034 	movhi	r2,15936
    3440:	df000b15 	stw	fp,44(sp)
    3444:	ddc00a15 	stw	r23,40(sp)
    3448:	dd800915 	stw	r22,36(sp)
    344c:	dcc00615 	stw	r19,24(sp)
    3450:	dfc00c15 	stw	ra,48(sp)
    3454:	dd400815 	stw	r21,32(sp)
    3458:	dd000715 	stw	r20,28(sp)
    345c:	dc800515 	stw	r18,20(sp)
    3460:	dc400415 	stw	r17,16(sp)
    3464:	2c20703a 	and	r16,r5,r16
    3468:	10bfffc4 	addi	r2,r2,-1
    346c:	2827883a 	mov	r19,r5
    3470:	202d883a 	mov	r22,r4
    3474:	302f883a 	mov	r23,r6
    3478:	3839883a 	mov	fp,r7
    347c:	14007516 	blt	r2,r16,3654 <__kernel_cos+0x228>
    3480:	00072b00 	call	72b0 <__fixdfsi>
    3484:	10010f26 	beq	r2,zero,38c4 <__kernel_cos+0x498>
    3488:	b00d883a 	mov	r6,r22
    348c:	980f883a 	mov	r7,r19
    3490:	b009883a 	mov	r4,r22
    3494:	980b883a 	mov	r5,r19
    3498:	00062bc0 	call	62bc <__muldf3>
    349c:	01afa234 	movhi	r6,48776
    34a0:	01ef6a74 	movhi	r7,48553
    34a4:	1009883a 	mov	r4,r2
    34a8:	180b883a 	mov	r5,r3
    34ac:	318e3504 	addi	r6,r6,14548
    34b0:	39feba44 	addi	r7,r7,-1303
    34b4:	102b883a 	mov	r21,r2
    34b8:	1829883a 	mov	r20,r3
    34bc:	00062bc0 	call	62bc <__muldf3>
    34c0:	01af6d74 	movhi	r6,48565
    34c4:	01cf88b4 	movhi	r7,15906
    34c8:	1009883a 	mov	r4,r2
    34cc:	180b883a 	mov	r5,r3
    34d0:	31ac7104 	addi	r6,r6,-20028
    34d4:	39fba784 	addi	r7,r7,-4450
    34d8:	0004f100 	call	4f10 <__adddf3>
    34dc:	1009883a 	mov	r4,r2
    34e0:	180b883a 	mov	r5,r3
    34e4:	a80d883a 	mov	r6,r21
    34e8:	a00f883a 	mov	r7,r20
    34ec:	00062bc0 	call	62bc <__muldf3>
    34f0:	01a02734 	movhi	r6,32924
    34f4:	01cfa4b4 	movhi	r7,16018
    34f8:	1009883a 	mov	r4,r2
    34fc:	180b883a 	mov	r5,r3
    3500:	3194ab44 	addi	r6,r6,21165
    3504:	39df93c4 	addi	r7,r7,32335
    3508:	00069e00 	call	69e0 <__subdf3>
    350c:	1009883a 	mov	r4,r2
    3510:	180b883a 	mov	r5,r3
    3514:	a80d883a 	mov	r6,r21
    3518:	a00f883a 	mov	r7,r20
    351c:	00062bc0 	call	62bc <__muldf3>
    3520:	018672f4 	movhi	r6,6603
    3524:	01cfbeb4 	movhi	r7,16122
    3528:	1009883a 	mov	r4,r2
    352c:	180b883a 	mov	r5,r3
    3530:	31856404 	addi	r6,r6,5520
    3534:	39c06804 	addi	r7,r7,416
    3538:	0004f100 	call	4f10 <__adddf3>
    353c:	1009883a 	mov	r4,r2
    3540:	180b883a 	mov	r5,r3
    3544:	a80d883a 	mov	r6,r21
    3548:	a00f883a 	mov	r7,r20
    354c:	00062bc0 	call	62bc <__muldf3>
    3550:	0185b074 	movhi	r6,5825
    3554:	01cfd5f4 	movhi	r7,16215
    3558:	1009883a 	mov	r4,r2
    355c:	180b883a 	mov	r5,r3
    3560:	31945dc4 	addi	r6,r6,20855
    3564:	39f05b04 	addi	r7,r7,-16020
    3568:	00069e00 	call	69e0 <__subdf3>
    356c:	1009883a 	mov	r4,r2
    3570:	180b883a 	mov	r5,r3
    3574:	a80d883a 	mov	r6,r21
    3578:	a00f883a 	mov	r7,r20
    357c:	00062bc0 	call	62bc <__muldf3>
    3580:	01955574 	movhi	r6,21845
    3584:	01cfe974 	movhi	r7,16293
    3588:	1009883a 	mov	r4,r2
    358c:	180b883a 	mov	r5,r3
    3590:	31955304 	addi	r6,r6,21836
    3594:	39d55544 	addi	r7,r7,21845
    3598:	0004f100 	call	4f10 <__adddf3>
    359c:	1009883a 	mov	r4,r2
    35a0:	180b883a 	mov	r5,r3
    35a4:	a80d883a 	mov	r6,r21
    35a8:	a00f883a 	mov	r7,r20
    35ac:	00062bc0 	call	62bc <__muldf3>
    35b0:	1017883a 	mov	r11,r2
    35b4:	1815883a 	mov	r10,r3
    35b8:	a809883a 	mov	r4,r21
    35bc:	a00b883a 	mov	r5,r20
    35c0:	000d883a 	mov	r6,zero
    35c4:	01cff834 	movhi	r7,16352
    35c8:	da800215 	stw	r10,8(sp)
    35cc:	dac00115 	stw	r11,4(sp)
    35d0:	00062bc0 	call	62bc <__muldf3>
    35d4:	dac00117 	ldw	r11,4(sp)
    35d8:	da800217 	ldw	r10,8(sp)
    35dc:	a809883a 	mov	r4,r21
    35e0:	580d883a 	mov	r6,r11
    35e4:	500f883a 	mov	r7,r10
    35e8:	a00b883a 	mov	r5,r20
    35ec:	1023883a 	mov	r17,r2
    35f0:	1821883a 	mov	r16,r3
    35f4:	00062bc0 	call	62bc <__muldf3>
    35f8:	b009883a 	mov	r4,r22
    35fc:	980b883a 	mov	r5,r19
    3600:	b80d883a 	mov	r6,r23
    3604:	e00f883a 	mov	r7,fp
    3608:	1029883a 	mov	r20,r2
    360c:	1825883a 	mov	r18,r3
    3610:	00062bc0 	call	62bc <__muldf3>
    3614:	a009883a 	mov	r4,r20
    3618:	900b883a 	mov	r5,r18
    361c:	100d883a 	mov	r6,r2
    3620:	180f883a 	mov	r7,r3
    3624:	00069e00 	call	69e0 <__subdf3>
    3628:	8809883a 	mov	r4,r17
    362c:	800b883a 	mov	r5,r16
    3630:	100d883a 	mov	r6,r2
    3634:	180f883a 	mov	r7,r3
    3638:	00069e00 	call	69e0 <__subdf3>
    363c:	0009883a 	mov	r4,zero
    3640:	014ffc34 	movhi	r5,16368
    3644:	100d883a 	mov	r6,r2
    3648:	180f883a 	mov	r7,r3
    364c:	00069e00 	call	69e0 <__subdf3>
    3650:	00008b06 	br	3880 <__kernel_cos+0x454>
    3654:	200d883a 	mov	r6,r4
    3658:	280f883a 	mov	r7,r5
    365c:	00062bc0 	call	62bc <__muldf3>
    3660:	01afa234 	movhi	r6,48776
    3664:	01ef6a74 	movhi	r7,48553
    3668:	318e3504 	addi	r6,r6,14548
    366c:	39feba44 	addi	r7,r7,-1303
    3670:	1009883a 	mov	r4,r2
    3674:	180b883a 	mov	r5,r3
    3678:	1025883a 	mov	r18,r2
    367c:	1823883a 	mov	r17,r3
    3680:	00062bc0 	call	62bc <__muldf3>
    3684:	01af6d74 	movhi	r6,48565
    3688:	01cf88b4 	movhi	r7,15906
    368c:	1009883a 	mov	r4,r2
    3690:	180b883a 	mov	r5,r3
    3694:	31ac7104 	addi	r6,r6,-20028
    3698:	39fba784 	addi	r7,r7,-4450
    369c:	0004f100 	call	4f10 <__adddf3>
    36a0:	1009883a 	mov	r4,r2
    36a4:	180b883a 	mov	r5,r3
    36a8:	900d883a 	mov	r6,r18
    36ac:	880f883a 	mov	r7,r17
    36b0:	00062bc0 	call	62bc <__muldf3>
    36b4:	01a02734 	movhi	r6,32924
    36b8:	01cfa4b4 	movhi	r7,16018
    36bc:	1009883a 	mov	r4,r2
    36c0:	180b883a 	mov	r5,r3
    36c4:	3194ab44 	addi	r6,r6,21165
    36c8:	39df93c4 	addi	r7,r7,32335
    36cc:	00069e00 	call	69e0 <__subdf3>
    36d0:	1009883a 	mov	r4,r2
    36d4:	180b883a 	mov	r5,r3
    36d8:	900d883a 	mov	r6,r18
    36dc:	880f883a 	mov	r7,r17
    36e0:	00062bc0 	call	62bc <__muldf3>
    36e4:	018672f4 	movhi	r6,6603
    36e8:	01cfbeb4 	movhi	r7,16122
    36ec:	1009883a 	mov	r4,r2
    36f0:	180b883a 	mov	r5,r3
    36f4:	31856404 	addi	r6,r6,5520
    36f8:	39c06804 	addi	r7,r7,416
    36fc:	0004f100 	call	4f10 <__adddf3>
    3700:	1009883a 	mov	r4,r2
    3704:	180b883a 	mov	r5,r3
    3708:	900d883a 	mov	r6,r18
    370c:	880f883a 	mov	r7,r17
    3710:	00062bc0 	call	62bc <__muldf3>
    3714:	0185b074 	movhi	r6,5825
    3718:	01cfd5f4 	movhi	r7,16215
    371c:	1009883a 	mov	r4,r2
    3720:	180b883a 	mov	r5,r3
    3724:	31945dc4 	addi	r6,r6,20855
    3728:	39f05b04 	addi	r7,r7,-16020
    372c:	00069e00 	call	69e0 <__subdf3>
    3730:	1009883a 	mov	r4,r2
    3734:	180b883a 	mov	r5,r3
    3738:	900d883a 	mov	r6,r18
    373c:	880f883a 	mov	r7,r17
    3740:	00062bc0 	call	62bc <__muldf3>
    3744:	01955574 	movhi	r6,21845
    3748:	01cfe974 	movhi	r7,16293
    374c:	1009883a 	mov	r4,r2
    3750:	180b883a 	mov	r5,r3
    3754:	31955304 	addi	r6,r6,21836
    3758:	39d55544 	addi	r7,r7,21845
    375c:	0004f100 	call	4f10 <__adddf3>
    3760:	1009883a 	mov	r4,r2
    3764:	180b883a 	mov	r5,r3
    3768:	900d883a 	mov	r6,r18
    376c:	880f883a 	mov	r7,r17
    3770:	00062bc0 	call	62bc <__muldf3>
    3774:	1013883a 	mov	r9,r2
    3778:	1017883a 	mov	r11,r2
    377c:	008ff4f4 	movhi	r2,16339
    3780:	108ccc84 	addi	r2,r2,13106
    3784:	902b883a 	mov	r21,r18
    3788:	8829883a 	mov	r20,r17
    378c:	1811883a 	mov	r8,r3
    3790:	1815883a 	mov	r10,r3
    3794:	143f880e 	bge	r2,r16,35b8 <__alt_mem_Flash_flash_data+0xf40035b8>
    3798:	008ffa74 	movhi	r2,16361
    379c:	14004416 	blt	r2,r16,38b0 <__kernel_cos+0x484>
    37a0:	00bff834 	movhi	r2,65504
    37a4:	80a1883a 	add	r16,r16,r2
    37a8:	0009883a 	mov	r4,zero
    37ac:	014ffc34 	movhi	r5,16368
    37b0:	000d883a 	mov	r6,zero
    37b4:	800f883a 	mov	r7,r16
    37b8:	da400115 	stw	r9,4(sp)
    37bc:	d8c00215 	stw	r3,8(sp)
    37c0:	00069e00 	call	69e0 <__subdf3>
    37c4:	da000217 	ldw	r8,8(sp)
    37c8:	da400117 	ldw	r9,4(sp)
    37cc:	102b883a 	mov	r21,r2
    37d0:	d8c00015 	stw	r3,0(sp)
    37d4:	9009883a 	mov	r4,r18
    37d8:	880b883a 	mov	r5,r17
    37dc:	000d883a 	mov	r6,zero
    37e0:	01cff834 	movhi	r7,16352
    37e4:	da000215 	stw	r8,8(sp)
    37e8:	da400115 	stw	r9,4(sp)
    37ec:	00062bc0 	call	62bc <__muldf3>
    37f0:	800f883a 	mov	r7,r16
    37f4:	1009883a 	mov	r4,r2
    37f8:	180b883a 	mov	r5,r3
    37fc:	000d883a 	mov	r6,zero
    3800:	00069e00 	call	69e0 <__subdf3>
    3804:	da400117 	ldw	r9,4(sp)
    3808:	da000217 	ldw	r8,8(sp)
    380c:	9009883a 	mov	r4,r18
    3810:	480d883a 	mov	r6,r9
    3814:	400f883a 	mov	r7,r8
    3818:	880b883a 	mov	r5,r17
    381c:	1029883a 	mov	r20,r2
    3820:	1821883a 	mov	r16,r3
    3824:	00062bc0 	call	62bc <__muldf3>
    3828:	b009883a 	mov	r4,r22
    382c:	980b883a 	mov	r5,r19
    3830:	b80d883a 	mov	r6,r23
    3834:	e00f883a 	mov	r7,fp
    3838:	1025883a 	mov	r18,r2
    383c:	1823883a 	mov	r17,r3
    3840:	00062bc0 	call	62bc <__muldf3>
    3844:	9009883a 	mov	r4,r18
    3848:	880b883a 	mov	r5,r17
    384c:	100d883a 	mov	r6,r2
    3850:	180f883a 	mov	r7,r3
    3854:	00069e00 	call	69e0 <__subdf3>
    3858:	a009883a 	mov	r4,r20
    385c:	800b883a 	mov	r5,r16
    3860:	100d883a 	mov	r6,r2
    3864:	180f883a 	mov	r7,r3
    3868:	00069e00 	call	69e0 <__subdf3>
    386c:	d9400017 	ldw	r5,0(sp)
    3870:	a809883a 	mov	r4,r21
    3874:	100d883a 	mov	r6,r2
    3878:	180f883a 	mov	r7,r3
    387c:	00069e00 	call	69e0 <__subdf3>
    3880:	dfc00c17 	ldw	ra,48(sp)
    3884:	df000b17 	ldw	fp,44(sp)
    3888:	ddc00a17 	ldw	r23,40(sp)
    388c:	dd800917 	ldw	r22,36(sp)
    3890:	dd400817 	ldw	r21,32(sp)
    3894:	dd000717 	ldw	r20,28(sp)
    3898:	dcc00617 	ldw	r19,24(sp)
    389c:	dc800517 	ldw	r18,20(sp)
    38a0:	dc400417 	ldw	r17,16(sp)
    38a4:	dc000317 	ldw	r16,12(sp)
    38a8:	dec00d04 	addi	sp,sp,52
    38ac:	f800283a 	ret
    38b0:	008ff9f4 	movhi	r2,16359
    38b4:	002b883a 	mov	r21,zero
    38b8:	d8800015 	stw	r2,0(sp)
    38bc:	040ff4b4 	movhi	r16,16338
    38c0:	003fc406 	br	37d4 <__alt_mem_Flash_flash_data+0xf40037d4>
    38c4:	0005883a 	mov	r2,zero
    38c8:	00cffc34 	movhi	r3,16368
    38cc:	003fec06 	br	3880 <__alt_mem_Flash_flash_data+0xf4003880>

000038d0 <__kernel_rem_pio2>:
    38d0:	deff5b04 	addi	sp,sp,-660
    38d4:	da00a517 	ldw	r8,660(sp)
    38d8:	00c000b4 	movhi	r3,2
    38dc:	18ee9c04 	addi	r3,r3,-17808
    38e0:	4205883a 	add	r2,r8,r8
    38e4:	1085883a 	add	r2,r2,r2
    38e8:	1885883a 	add	r2,r3,r2
    38ec:	d9008d15 	stw	r4,564(sp)
    38f0:	d9409015 	stw	r5,576(sp)
    38f4:	313fff44 	addi	r4,r6,-3
    38f8:	01400604 	movi	r5,24
    38fc:	dd80a115 	stw	r22,644(sp)
    3900:	dc009b15 	stw	r16,620(sp)
    3904:	dfc0a415 	stw	ra,656(sp)
    3908:	df00a315 	stw	fp,652(sp)
    390c:	ddc0a215 	stw	r23,648(sp)
    3910:	dd40a015 	stw	r21,640(sp)
    3914:	dd009f15 	stw	r20,636(sp)
    3918:	dcc09e15 	stw	r19,632(sp)
    391c:	dc809d15 	stw	r18,628(sp)
    3920:	dc409c15 	stw	r17,624(sp)
    3924:	3021883a 	mov	r16,r6
    3928:	d9c09315 	stw	r7,588(sp)
    392c:	15800017 	ldw	r22,0(r2)
    3930:	0004d1c0 	call	4d1c <__divsi3>
    3934:	da009317 	ldw	r8,588(sp)
    3938:	d8809215 	stw	r2,584(sp)
    393c:	423fffc4 	addi	r8,r8,-1
    3940:	da008c15 	stw	r8,560(sp)
    3944:	10032a16 	blt	r2,zero,45f0 <__kernel_rem_pio2+0xd20>
    3948:	da009217 	ldw	r8,584(sp)
    394c:	d9009217 	ldw	r4,584(sp)
    3950:	0206303a 	nor	r3,zero,r8
    3954:	18c00624 	muli	r3,r3,24
    3958:	da008c17 	ldw	r8,560(sp)
    395c:	1c07883a 	add	r3,r3,r16
    3960:	4585883a 	add	r2,r8,r22
    3964:	d8c08f15 	stw	r3,572(sp)
    3968:	2223c83a 	sub	r17,r4,r8
    396c:	10001016 	blt	r2,zero,39b0 <__kernel_rem_pio2+0xe0>
    3970:	da00a617 	ldw	r8,664(sp)
    3974:	8c65883a 	add	r18,r17,r17
    3978:	94a5883a 	add	r18,r18,r18
    397c:	8885883a 	add	r2,r17,r2
    3980:	dcc05004 	addi	r19,sp,320
    3984:	44a5883a 	add	r18,r8,r18
    3988:	14000044 	addi	r16,r2,1
    398c:	88014516 	blt	r17,zero,3ea4 <__kernel_rem_pio2+0x5d4>
    3990:	91000017 	ldw	r4,0(r18)
    3994:	00073380 	call	7338 <__floatsidf>
    3998:	98800015 	stw	r2,0(r19)
    399c:	98c00115 	stw	r3,4(r19)
    39a0:	8c400044 	addi	r17,r17,1
    39a4:	9cc00204 	addi	r19,r19,8
    39a8:	94800104 	addi	r18,r18,4
    39ac:	8c3ff71e 	bne	r17,r16,398c <__alt_mem_Flash_flash_data+0xf400398c>
    39b0:	b0002116 	blt	r22,zero,3a38 <__kernel_rem_pio2+0x168>
    39b4:	da009317 	ldw	r8,588(sp)
    39b8:	b02490fa 	slli	r18,r22,3
    39bc:	d8805004 	addi	r2,sp,320
    39c0:	402e90fa 	slli	r23,r8,3
    39c4:	d823883a 	mov	r17,sp
    39c8:	dc004e04 	addi	r16,sp,312
    39cc:	14b9883a 	add	fp,r2,r18
    39d0:	da008c17 	ldw	r8,560(sp)
    39d4:	40015816 	blt	r8,zero,3f38 <__kernel_rem_pio2+0x668>
    39d8:	dcc08d17 	ldw	r19,564(sp)
    39dc:	85e5883a 	add	r18,r16,r23
    39e0:	002b883a 	mov	r21,zero
    39e4:	0029883a 	mov	r20,zero
    39e8:	99000017 	ldw	r4,0(r19)
    39ec:	99400117 	ldw	r5,4(r19)
    39f0:	91800017 	ldw	r6,0(r18)
    39f4:	91c00117 	ldw	r7,4(r18)
    39f8:	94bffe04 	addi	r18,r18,-8
    39fc:	9cc00204 	addi	r19,r19,8
    3a00:	00062bc0 	call	62bc <__muldf3>
    3a04:	a809883a 	mov	r4,r21
    3a08:	a00b883a 	mov	r5,r20
    3a0c:	100d883a 	mov	r6,r2
    3a10:	180f883a 	mov	r7,r3
    3a14:	0004f100 	call	4f10 <__adddf3>
    3a18:	102b883a 	mov	r21,r2
    3a1c:	1829883a 	mov	r20,r3
    3a20:	84bff11e 	bne	r16,r18,39e8 <__alt_mem_Flash_flash_data+0xf40039e8>
    3a24:	8d400015 	stw	r21,0(r17)
    3a28:	8d000115 	stw	r20,4(r17)
    3a2c:	84000204 	addi	r16,r16,8
    3a30:	8c400204 	addi	r17,r17,8
    3a34:	873fe61e 	bne	r16,fp,39d0 <__alt_mem_Flash_flash_data+0xf40039d0>
    3a38:	da009317 	ldw	r8,588(sp)
    3a3c:	b00690ba 	slli	r3,r22,2
    3a40:	b0bfffc4 	addi	r2,r22,-1
    3a44:	423ffe24 	muli	r8,r8,-8
    3a48:	193fff04 	addi	r4,r3,-4
    3a4c:	1085883a 	add	r2,r2,r2
    3a50:	da008e15 	stw	r8,568(sp)
    3a54:	18fffe04 	addi	r3,r3,-8
    3a58:	da007804 	addi	r8,sp,480
    3a5c:	40d1883a 	add	r8,r8,r3
    3a60:	1085883a 	add	r2,r2,r2
    3a64:	d885883a 	add	r2,sp,r2
    3a68:	da009515 	stw	r8,596(sp)
    3a6c:	da007804 	addi	r8,sp,480
    3a70:	4111883a 	add	r8,r8,r4
    3a74:	10807804 	addi	r2,r2,480
    3a78:	da009615 	stw	r8,600(sp)
    3a7c:	b021883a 	mov	r16,r22
    3a80:	d8809715 	stw	r2,604(sp)
    3a84:	dd809415 	stw	r22,592(sp)
    3a88:	800490fa 	slli	r2,r16,3
    3a8c:	d885883a 	add	r2,sp,r2
    3a90:	15c00017 	ldw	r23,0(r2)
    3a94:	15000117 	ldw	r20,4(r2)
    3a98:	04002d0e 	bge	zero,r16,3b50 <__kernel_rem_pio2+0x280>
    3a9c:	00880034 	movhi	r2,8192
    3aa0:	10bfffc4 	addi	r2,r2,-1
    3aa4:	80a5883a 	add	r18,r16,r2
    3aa8:	902490fa 	slli	r18,r18,3
    3aac:	8423883a 	add	r17,r16,r16
    3ab0:	8c63883a 	add	r17,r17,r17
    3ab4:	dcc07804 	addi	r19,sp,480
    3ab8:	dca5883a 	add	r18,sp,r18
    3abc:	9c63883a 	add	r17,r19,r17
    3ac0:	000d883a 	mov	r6,zero
    3ac4:	01cf9c34 	movhi	r7,15984
    3ac8:	b809883a 	mov	r4,r23
    3acc:	a00b883a 	mov	r5,r20
    3ad0:	00062bc0 	call	62bc <__muldf3>
    3ad4:	180b883a 	mov	r5,r3
    3ad8:	1009883a 	mov	r4,r2
    3adc:	00072b00 	call	72b0 <__fixdfsi>
    3ae0:	1009883a 	mov	r4,r2
    3ae4:	00073380 	call	7338 <__floatsidf>
    3ae8:	1009883a 	mov	r4,r2
    3aec:	180b883a 	mov	r5,r3
    3af0:	000d883a 	mov	r6,zero
    3af4:	01d05c34 	movhi	r7,16752
    3af8:	102d883a 	mov	r22,r2
    3afc:	182b883a 	mov	r21,r3
    3b00:	00062bc0 	call	62bc <__muldf3>
    3b04:	b809883a 	mov	r4,r23
    3b08:	a00b883a 	mov	r5,r20
    3b0c:	100d883a 	mov	r6,r2
    3b10:	180f883a 	mov	r7,r3
    3b14:	00069e00 	call	69e0 <__subdf3>
    3b18:	180b883a 	mov	r5,r3
    3b1c:	1009883a 	mov	r4,r2
    3b20:	00072b00 	call	72b0 <__fixdfsi>
    3b24:	91800017 	ldw	r6,0(r18)
    3b28:	91c00117 	ldw	r7,4(r18)
    3b2c:	98800015 	stw	r2,0(r19)
    3b30:	b009883a 	mov	r4,r22
    3b34:	a80b883a 	mov	r5,r21
    3b38:	0004f100 	call	4f10 <__adddf3>
    3b3c:	9cc00104 	addi	r19,r19,4
    3b40:	102f883a 	mov	r23,r2
    3b44:	1829883a 	mov	r20,r3
    3b48:	94bffe04 	addi	r18,r18,-8
    3b4c:	9c7fdc1e 	bne	r19,r17,3ac0 <__alt_mem_Flash_flash_data+0xf4003ac0>
    3b50:	d9808f17 	ldw	r6,572(sp)
    3b54:	a00b883a 	mov	r5,r20
    3b58:	b809883a 	mov	r4,r23
    3b5c:	0004ac80 	call	4ac8 <scalbn>
    3b60:	000d883a 	mov	r6,zero
    3b64:	01cff034 	movhi	r7,16320
    3b68:	1009883a 	mov	r4,r2
    3b6c:	180b883a 	mov	r5,r3
    3b70:	1025883a 	mov	r18,r2
    3b74:	1823883a 	mov	r17,r3
    3b78:	00062bc0 	call	62bc <__muldf3>
    3b7c:	1009883a 	mov	r4,r2
    3b80:	180b883a 	mov	r5,r3
    3b84:	00048d40 	call	48d4 <floor>
    3b88:	1009883a 	mov	r4,r2
    3b8c:	180b883a 	mov	r5,r3
    3b90:	000d883a 	mov	r6,zero
    3b94:	01d00834 	movhi	r7,16416
    3b98:	00062bc0 	call	62bc <__muldf3>
    3b9c:	100d883a 	mov	r6,r2
    3ba0:	180f883a 	mov	r7,r3
    3ba4:	9009883a 	mov	r4,r18
    3ba8:	880b883a 	mov	r5,r17
    3bac:	00069e00 	call	69e0 <__subdf3>
    3bb0:	180b883a 	mov	r5,r3
    3bb4:	1009883a 	mov	r4,r2
    3bb8:	1825883a 	mov	r18,r3
    3bbc:	1027883a 	mov	r19,r2
    3bc0:	00072b00 	call	72b0 <__fixdfsi>
    3bc4:	1009883a 	mov	r4,r2
    3bc8:	1023883a 	mov	r17,r2
    3bcc:	00073380 	call	7338 <__floatsidf>
    3bd0:	9809883a 	mov	r4,r19
    3bd4:	900b883a 	mov	r5,r18
    3bd8:	100d883a 	mov	r6,r2
    3bdc:	180f883a 	mov	r7,r3
    3be0:	00069e00 	call	69e0 <__subdf3>
    3be4:	da008f17 	ldw	r8,572(sp)
    3be8:	1019883a 	mov	r12,r2
    3bec:	1029883a 	mov	r20,r2
    3bf0:	1817883a 	mov	r11,r3
    3bf4:	0200ae0e 	bge	zero,r8,3eb0 <__kernel_rem_pio2+0x5e0>
    3bf8:	80bfffc4 	addi	r2,r16,-1
    3bfc:	1085883a 	add	r2,r2,r2
    3c00:	1085883a 	add	r2,r2,r2
    3c04:	d885883a 	add	r2,sp,r2
    3c08:	10807804 	addi	r2,r2,480
    3c0c:	11400017 	ldw	r5,0(r2)
    3c10:	01000604 	movi	r4,24
    3c14:	2209c83a 	sub	r4,r4,r8
    3c18:	290dd83a 	sra	r6,r5,r4
    3c1c:	048005c4 	movi	r18,23
    3c20:	9225c83a 	sub	r18,r18,r8
    3c24:	3108983a 	sll	r4,r6,r4
    3c28:	89a3883a 	add	r17,r17,r6
    3c2c:	2909c83a 	sub	r4,r5,r4
    3c30:	24a5d83a 	sra	r18,r4,r18
    3c34:	11000015 	stw	r4,0(r2)
    3c38:	04802a0e 	bge	zero,r18,3ce4 <__kernel_rem_pio2+0x414>
    3c3c:	8c400044 	addi	r17,r17,1
    3c40:	0400c40e 	bge	zero,r16,3f54 <__kernel_rem_pio2+0x684>
    3c44:	01404034 	movhi	r5,256
    3c48:	297fffc4 	addi	r5,r5,-1
    3c4c:	da007804 	addi	r8,sp,480
    3c50:	0015883a 	mov	r10,zero
    3c54:	0027883a 	mov	r19,zero
    3c58:	01004034 	movhi	r4,256
    3c5c:	00000706 	br	3c7c <__kernel_rem_pio2+0x3ac>
    3c60:	208dc83a 	sub	r6,r4,r2
    3c64:	10000226 	beq	r2,zero,3c70 <__kernel_rem_pio2+0x3a0>
    3c68:	41800015 	stw	r6,0(r8)
    3c6c:	04c00044 	movi	r19,1
    3c70:	52800044 	addi	r10,r10,1
    3c74:	42000104 	addi	r8,r8,4
    3c78:	5400080e 	bge	r10,r16,3c9c <__kernel_rem_pio2+0x3cc>
    3c7c:	40800017 	ldw	r2,0(r8)
    3c80:	983ff726 	beq	r19,zero,3c60 <__alt_mem_Flash_flash_data+0xf4003c60>
    3c84:	2885c83a 	sub	r2,r5,r2
    3c88:	40800015 	stw	r2,0(r8)
    3c8c:	52800044 	addi	r10,r10,1
    3c90:	04c00044 	movi	r19,1
    3c94:	42000104 	addi	r8,r8,4
    3c98:	543ff816 	blt	r10,r16,3c7c <__alt_mem_Flash_flash_data+0xf4003c7c>
    3c9c:	da008f17 	ldw	r8,572(sp)
    3ca0:	02000e0e 	bge	zero,r8,3cdc <__kernel_rem_pio2+0x40c>
    3ca4:	00800044 	movi	r2,1
    3ca8:	40808a26 	beq	r8,r2,3ed4 <__kernel_rem_pio2+0x604>
    3cac:	00800084 	movi	r2,2
    3cb0:	40800a1e 	bne	r8,r2,3cdc <__kernel_rem_pio2+0x40c>
    3cb4:	80bfffc4 	addi	r2,r16,-1
    3cb8:	1085883a 	add	r2,r2,r2
    3cbc:	1085883a 	add	r2,r2,r2
    3cc0:	d885883a 	add	r2,sp,r2
    3cc4:	10807804 	addi	r2,r2,480
    3cc8:	11400017 	ldw	r5,0(r2)
    3ccc:	01001034 	movhi	r4,64
    3cd0:	213fffc4 	addi	r4,r4,-1
    3cd4:	2908703a 	and	r4,r5,r4
    3cd8:	11000015 	stw	r4,0(r2)
    3cdc:	00800084 	movi	r2,2
    3ce0:	90805a26 	beq	r18,r2,3e4c <__kernel_rem_pio2+0x57c>
    3ce4:	580b883a 	mov	r5,r11
    3ce8:	a009883a 	mov	r4,r20
    3cec:	000d883a 	mov	r6,zero
    3cf0:	000f883a 	mov	r7,zero
    3cf4:	dac09a15 	stw	r11,616(sp)
    3cf8:	00060780 	call	6078 <__eqdf2>
    3cfc:	dac09a17 	ldw	r11,616(sp)
    3d00:	1000961e 	bne	r2,zero,3f5c <__kernel_rem_pio2+0x68c>
    3d04:	da009417 	ldw	r8,592(sp)
    3d08:	817fffc4 	addi	r5,r16,-1
    3d0c:	2a000b16 	blt	r5,r8,3d3c <__kernel_rem_pio2+0x46c>
    3d10:	800490ba 	slli	r2,r16,2
    3d14:	d9809617 	ldw	r6,600(sp)
    3d18:	d9007804 	addi	r4,sp,480
    3d1c:	10bfff04 	addi	r2,r2,-4
    3d20:	0007883a 	mov	r3,zero
    3d24:	2085883a 	add	r2,r4,r2
    3d28:	11000017 	ldw	r4,0(r2)
    3d2c:	10bfff04 	addi	r2,r2,-4
    3d30:	1906b03a 	or	r3,r3,r4
    3d34:	11bffc1e 	bne	r2,r6,3d28 <__alt_mem_Flash_flash_data+0xf4003d28>
    3d38:	18013c1e 	bne	r3,zero,422c <__kernel_rem_pio2+0x95c>
    3d3c:	da009717 	ldw	r8,604(sp)
    3d40:	40800017 	ldw	r2,0(r8)
    3d44:	1001371e 	bne	r2,zero,4224 <__kernel_rem_pio2+0x954>
    3d48:	d8809517 	ldw	r2,596(sp)
    3d4c:	00c00044 	movi	r3,1
    3d50:	10bfff04 	addi	r2,r2,-4
    3d54:	11000117 	ldw	r4,4(r2)
    3d58:	18c00044 	addi	r3,r3,1
    3d5c:	203ffc26 	beq	r4,zero,3d50 <__alt_mem_Flash_flash_data+0xf4003d50>
    3d60:	80c7883a 	add	r3,r16,r3
    3d64:	80800044 	addi	r2,r16,1
    3d68:	d8c09115 	stw	r3,580(sp)
    3d6c:	18803216 	blt	r3,r2,3e38 <__kernel_rem_pio2+0x568>
    3d70:	da009317 	ldw	r8,588(sp)
    3d74:	8223883a 	add	r17,r16,r8
    3d78:	da009117 	ldw	r8,580(sp)
    3d7c:	882290fa 	slli	r17,r17,3
    3d80:	45000044 	addi	r20,r8,1
    3d84:	da009217 	ldw	r8,584(sp)
    3d88:	a02890fa 	slli	r20,r20,3
    3d8c:	1227883a 	add	r19,r2,r8
    3d90:	100490fa 	slli	r2,r2,3
    3d94:	da00a617 	ldw	r8,664(sp)
    3d98:	9ce7883a 	add	r19,r19,r19
    3d9c:	9ce7883a 	add	r19,r19,r19
    3da0:	d8a5883a 	add	r18,sp,r2
    3da4:	d8805004 	addi	r2,sp,320
    3da8:	44e7883a 	add	r19,r8,r19
    3dac:	1463883a 	add	r17,r2,r17
    3db0:	dd29883a 	add	r20,sp,r20
    3db4:	99000017 	ldw	r4,0(r19)
    3db8:	00073380 	call	7338 <__floatsidf>
    3dbc:	da008c17 	ldw	r8,560(sp)
    3dc0:	88800015 	stw	r2,0(r17)
    3dc4:	88c00115 	stw	r3,4(r17)
    3dc8:	40001d16 	blt	r8,zero,3e40 <__kernel_rem_pio2+0x570>
    3dcc:	da008e17 	ldw	r8,568(sp)
    3dd0:	dd808d17 	ldw	r22,564(sp)
    3dd4:	8821883a 	mov	r16,r17
    3dd8:	8a2b883a 	add	r21,r17,r8
    3ddc:	0039883a 	mov	fp,zero
    3de0:	002f883a 	mov	r23,zero
    3de4:	b1000017 	ldw	r4,0(r22)
    3de8:	b1400117 	ldw	r5,4(r22)
    3dec:	81800017 	ldw	r6,0(r16)
    3df0:	81c00117 	ldw	r7,4(r16)
    3df4:	843ffe04 	addi	r16,r16,-8
    3df8:	b5800204 	addi	r22,r22,8
    3dfc:	00062bc0 	call	62bc <__muldf3>
    3e00:	e009883a 	mov	r4,fp
    3e04:	b80b883a 	mov	r5,r23
    3e08:	100d883a 	mov	r6,r2
    3e0c:	180f883a 	mov	r7,r3
    3e10:	0004f100 	call	4f10 <__adddf3>
    3e14:	1039883a 	mov	fp,r2
    3e18:	182f883a 	mov	r23,r3
    3e1c:	857ff11e 	bne	r16,r21,3de4 <__alt_mem_Flash_flash_data+0xf4003de4>
    3e20:	97000015 	stw	fp,0(r18)
    3e24:	95c00115 	stw	r23,4(r18)
    3e28:	94800204 	addi	r18,r18,8
    3e2c:	9cc00104 	addi	r19,r19,4
    3e30:	8c400204 	addi	r17,r17,8
    3e34:	953fdf1e 	bne	r18,r20,3db4 <__alt_mem_Flash_flash_data+0xf4003db4>
    3e38:	dc009117 	ldw	r16,580(sp)
    3e3c:	003f1206 	br	3a88 <__alt_mem_Flash_flash_data+0xf4003a88>
    3e40:	0039883a 	mov	fp,zero
    3e44:	002f883a 	mov	r23,zero
    3e48:	003ff506 	br	3e20 <__alt_mem_Flash_flash_data+0xf4003e20>
    3e4c:	0009883a 	mov	r4,zero
    3e50:	014ffc34 	movhi	r5,16368
    3e54:	600d883a 	mov	r6,r12
    3e58:	180f883a 	mov	r7,r3
    3e5c:	00069e00 	call	69e0 <__subdf3>
    3e60:	1029883a 	mov	r20,r2
    3e64:	1817883a 	mov	r11,r3
    3e68:	983f9e26 	beq	r19,zero,3ce4 <__alt_mem_Flash_flash_data+0xf4003ce4>
    3e6c:	d9808f17 	ldw	r6,572(sp)
    3e70:	0009883a 	mov	r4,zero
    3e74:	014ffc34 	movhi	r5,16368
    3e78:	d8c09a15 	stw	r3,616(sp)
    3e7c:	0004ac80 	call	4ac8 <scalbn>
    3e80:	dac09a17 	ldw	r11,616(sp)
    3e84:	a009883a 	mov	r4,r20
    3e88:	100d883a 	mov	r6,r2
    3e8c:	580b883a 	mov	r5,r11
    3e90:	180f883a 	mov	r7,r3
    3e94:	00069e00 	call	69e0 <__subdf3>
    3e98:	1029883a 	mov	r20,r2
    3e9c:	1817883a 	mov	r11,r3
    3ea0:	003f9006 	br	3ce4 <__alt_mem_Flash_flash_data+0xf4003ce4>
    3ea4:	0005883a 	mov	r2,zero
    3ea8:	0007883a 	mov	r3,zero
    3eac:	003eba06 	br	3998 <__alt_mem_Flash_flash_data+0xf4003998>
    3eb0:	da008f17 	ldw	r8,572(sp)
    3eb4:	4000121e 	bne	r8,zero,3f00 <__kernel_rem_pio2+0x630>
    3eb8:	80bfffc4 	addi	r2,r16,-1
    3ebc:	1085883a 	add	r2,r2,r2
    3ec0:	1085883a 	add	r2,r2,r2
    3ec4:	d885883a 	add	r2,sp,r2
    3ec8:	14807817 	ldw	r18,480(r2)
    3ecc:	9025d5fa 	srai	r18,r18,23
    3ed0:	003f5906 	br	3c38 <__alt_mem_Flash_flash_data+0xf4003c38>
    3ed4:	80bfffc4 	addi	r2,r16,-1
    3ed8:	1085883a 	add	r2,r2,r2
    3edc:	1085883a 	add	r2,r2,r2
    3ee0:	d885883a 	add	r2,sp,r2
    3ee4:	10807804 	addi	r2,r2,480
    3ee8:	11000017 	ldw	r4,0(r2)
    3eec:	01402034 	movhi	r5,128
    3ef0:	297fffc4 	addi	r5,r5,-1
    3ef4:	2148703a 	and	r4,r4,r5
    3ef8:	11000015 	stw	r4,0(r2)
    3efc:	003f7706 	br	3cdc <__alt_mem_Flash_flash_data+0xf4003cdc>
    3f00:	180b883a 	mov	r5,r3
    3f04:	1009883a 	mov	r4,r2
    3f08:	000d883a 	mov	r6,zero
    3f0c:	01cff834 	movhi	r7,16352
    3f10:	d8c09915 	stw	r3,612(sp)
    3f14:	d8c09a15 	stw	r3,616(sp)
    3f18:	d8809815 	stw	r2,608(sp)
    3f1c:	00060fc0 	call	60fc <__gedf2>
    3f20:	d8c09917 	ldw	r3,612(sp)
    3f24:	dac09a17 	ldw	r11,616(sp)
    3f28:	db009817 	ldw	r12,608(sp)
    3f2c:	1000050e 	bge	r2,zero,3f44 <__kernel_rem_pio2+0x674>
    3f30:	0025883a 	mov	r18,zero
    3f34:	003f6b06 	br	3ce4 <__alt_mem_Flash_flash_data+0xf4003ce4>
    3f38:	002b883a 	mov	r21,zero
    3f3c:	0029883a 	mov	r20,zero
    3f40:	003eb806 	br	3a24 <__alt_mem_Flash_flash_data+0xf4003a24>
    3f44:	8c400044 	addi	r17,r17,1
    3f48:	0401960e 	bge	zero,r16,45a4 <__kernel_rem_pio2+0xcd4>
    3f4c:	04800084 	movi	r18,2
    3f50:	003f3c06 	br	3c44 <__alt_mem_Flash_flash_data+0xf4003c44>
    3f54:	0027883a 	mov	r19,zero
    3f58:	003f5006 	br	3c9c <__alt_mem_Flash_flash_data+0xf4003c9c>
    3f5c:	da008f17 	ldw	r8,572(sp)
    3f60:	a009883a 	mov	r4,r20
    3f64:	580b883a 	mov	r5,r11
    3f68:	020dc83a 	sub	r6,zero,r8
    3f6c:	dc808c15 	stw	r18,560(sp)
    3f70:	dd809417 	ldw	r22,592(sp)
    3f74:	dc408e15 	stw	r17,568(sp)
    3f78:	0004ac80 	call	4ac8 <scalbn>
    3f7c:	1009883a 	mov	r4,r2
    3f80:	180b883a 	mov	r5,r3
    3f84:	000d883a 	mov	r6,zero
    3f88:	01d05c34 	movhi	r7,16752
    3f8c:	1029883a 	mov	r20,r2
    3f90:	182f883a 	mov	r23,r3
    3f94:	00060fc0 	call	60fc <__gedf2>
    3f98:	10018b16 	blt	r2,zero,45c8 <__kernel_rem_pio2+0xcf8>
    3f9c:	01cf9c34 	movhi	r7,15984
    3fa0:	000d883a 	mov	r6,zero
    3fa4:	a009883a 	mov	r4,r20
    3fa8:	b80b883a 	mov	r5,r23
    3fac:	00062bc0 	call	62bc <__muldf3>
    3fb0:	180b883a 	mov	r5,r3
    3fb4:	1009883a 	mov	r4,r2
    3fb8:	00072b00 	call	72b0 <__fixdfsi>
    3fbc:	840d883a 	add	r6,r16,r16
    3fc0:	318d883a 	add	r6,r6,r6
    3fc4:	1009883a 	mov	r4,r2
    3fc8:	d9a7883a 	add	r19,sp,r6
    3fcc:	102b883a 	mov	r21,r2
    3fd0:	00073380 	call	7338 <__floatsidf>
    3fd4:	1009883a 	mov	r4,r2
    3fd8:	180b883a 	mov	r5,r3
    3fdc:	000d883a 	mov	r6,zero
    3fe0:	01d05c34 	movhi	r7,16752
    3fe4:	00062bc0 	call	62bc <__muldf3>
    3fe8:	a009883a 	mov	r4,r20
    3fec:	b80b883a 	mov	r5,r23
    3ff0:	100d883a 	mov	r6,r2
    3ff4:	180f883a 	mov	r7,r3
    3ff8:	00069e00 	call	69e0 <__subdf3>
    3ffc:	180b883a 	mov	r5,r3
    4000:	1009883a 	mov	r4,r2
    4004:	00072b00 	call	72b0 <__fixdfsi>
    4008:	da008f17 	ldw	r8,572(sp)
    400c:	84400044 	addi	r17,r16,1
    4010:	8c47883a 	add	r3,r17,r17
    4014:	9cc07804 	addi	r19,r19,480
    4018:	18c7883a 	add	r3,r3,r3
    401c:	98800015 	stw	r2,0(r19)
    4020:	d8c7883a 	add	r3,sp,r3
    4024:	42000604 	addi	r8,r8,24
    4028:	da008f15 	stw	r8,572(sp)
    402c:	1d407815 	stw	r21,480(r3)
    4030:	d9808f17 	ldw	r6,572(sp)
    4034:	0009883a 	mov	r4,zero
    4038:	014ffc34 	movhi	r5,16368
    403c:	0004ac80 	call	4ac8 <scalbn>
    4040:	1029883a 	mov	r20,r2
    4044:	182b883a 	mov	r21,r3
    4048:	88006e16 	blt	r17,zero,4204 <__kernel_rem_pio2+0x934>
    404c:	881090fa 	slli	r8,r17,3
    4050:	d8c07804 	addi	r3,sp,480
    4054:	dc3ffe04 	addi	r16,sp,-8
    4058:	da008d15 	stw	r8,564(sp)
    405c:	d8808d17 	ldw	r2,564(sp)
    4060:	8c51883a 	add	r8,r17,r17
    4064:	4211883a 	add	r8,r8,r8
    4068:	d8a7883a 	add	r19,sp,r2
    406c:	1a2f883a 	add	r23,r3,r8
    4070:	9839883a 	mov	fp,r19
    4074:	b9000017 	ldw	r4,0(r23)
    4078:	e73ffe04 	addi	fp,fp,-8
    407c:	bdffff04 	addi	r23,r23,-4
    4080:	00073380 	call	7338 <__floatsidf>
    4084:	a00d883a 	mov	r6,r20
    4088:	a80f883a 	mov	r7,r21
    408c:	1009883a 	mov	r4,r2
    4090:	180b883a 	mov	r5,r3
    4094:	00062bc0 	call	62bc <__muldf3>
    4098:	a009883a 	mov	r4,r20
    409c:	a80b883a 	mov	r5,r21
    40a0:	e0800215 	stw	r2,8(fp)
    40a4:	e0c00315 	stw	r3,12(fp)
    40a8:	000d883a 	mov	r6,zero
    40ac:	01cf9c34 	movhi	r7,15984
    40b0:	00062bc0 	call	62bc <__muldf3>
    40b4:	1029883a 	mov	r20,r2
    40b8:	182b883a 	mov	r21,r3
    40bc:	e43fed1e 	bne	fp,r16,4074 <__alt_mem_Flash_flash_data+0xf4004074>
    40c0:	8a000044 	addi	r8,r17,1
    40c4:	0029883a 	mov	r20,zero
    40c8:	4039883a 	mov	fp,r8
    40cc:	dc408f15 	stw	r17,572(sp)
    40d0:	b0004916 	blt	r22,zero,41f8 <__kernel_rem_pio2+0x928>
    40d4:	a0004816 	blt	r20,zero,41f8 <__kernel_rem_pio2+0x928>
    40d8:	040000b4 	movhi	r16,2
    40dc:	842e8c04 	addi	r16,r16,-17872
    40e0:	982b883a 	mov	r21,r19
    40e4:	0023883a 	mov	r17,zero
    40e8:	002f883a 	mov	r23,zero
    40ec:	0025883a 	mov	r18,zero
    40f0:	00000206 	br	40fc <__kernel_rem_pio2+0x82c>
    40f4:	ad400204 	addi	r21,r21,8
    40f8:	a4800f16 	blt	r20,r18,4138 <__kernel_rem_pio2+0x868>
    40fc:	81000017 	ldw	r4,0(r16)
    4100:	81400117 	ldw	r5,4(r16)
    4104:	a9800017 	ldw	r6,0(r21)
    4108:	a9c00117 	ldw	r7,4(r21)
    410c:	94800044 	addi	r18,r18,1
    4110:	84000204 	addi	r16,r16,8
    4114:	00062bc0 	call	62bc <__muldf3>
    4118:	8809883a 	mov	r4,r17
    411c:	b80b883a 	mov	r5,r23
    4120:	100d883a 	mov	r6,r2
    4124:	180f883a 	mov	r7,r3
    4128:	0004f100 	call	4f10 <__adddf3>
    412c:	1023883a 	mov	r17,r2
    4130:	182f883a 	mov	r23,r3
    4134:	b4bfef0e 	bge	r22,r18,40f4 <__alt_mem_Flash_flash_data+0xf40040f4>
    4138:	a00490fa 	slli	r2,r20,3
    413c:	a5000044 	addi	r20,r20,1
    4140:	9cfffe04 	addi	r19,r19,-8
    4144:	d885883a 	add	r2,sp,r2
    4148:	10802804 	addi	r2,r2,160
    414c:	14400015 	stw	r17,0(r2)
    4150:	15c00115 	stw	r23,4(r2)
    4154:	a73fde1e 	bne	r20,fp,40d0 <__alt_mem_Flash_flash_data+0xf40040d0>
    4158:	da00a517 	ldw	r8,660(sp)
    415c:	00800084 	movi	r2,2
    4160:	dc408f17 	ldw	r17,572(sp)
    4164:	12007316 	blt	r2,r8,4334 <__kernel_rem_pio2+0xa64>
    4168:	02004816 	blt	zero,r8,428c <__kernel_rem_pio2+0x9bc>
    416c:	4000141e 	bne	r8,zero,41c0 <__kernel_rem_pio2+0x8f0>
    4170:	da008d17 	ldw	r8,564(sp)
    4174:	d8802804 	addi	r2,sp,160
    4178:	0007883a 	mov	r3,zero
    417c:	1221883a 	add	r16,r2,r8
    4180:	04ffffc4 	movi	r19,-1
    4184:	0005883a 	mov	r2,zero
    4188:	81800017 	ldw	r6,0(r16)
    418c:	81c00117 	ldw	r7,4(r16)
    4190:	1009883a 	mov	r4,r2
    4194:	180b883a 	mov	r5,r3
    4198:	8c7fffc4 	addi	r17,r17,-1
    419c:	0004f100 	call	4f10 <__adddf3>
    41a0:	843ffe04 	addi	r16,r16,-8
    41a4:	8cfff81e 	bne	r17,r19,4188 <__alt_mem_Flash_flash_data+0xf4004188>
    41a8:	da008c17 	ldw	r8,560(sp)
    41ac:	40000126 	beq	r8,zero,41b4 <__kernel_rem_pio2+0x8e4>
    41b0:	18e0003c 	xorhi	r3,r3,32768
    41b4:	da009017 	ldw	r8,576(sp)
    41b8:	40800015 	stw	r2,0(r8)
    41bc:	40c00115 	stw	r3,4(r8)
    41c0:	da008e17 	ldw	r8,568(sp)
    41c4:	408001cc 	andi	r2,r8,7
    41c8:	dfc0a417 	ldw	ra,656(sp)
    41cc:	df00a317 	ldw	fp,652(sp)
    41d0:	ddc0a217 	ldw	r23,648(sp)
    41d4:	dd80a117 	ldw	r22,644(sp)
    41d8:	dd40a017 	ldw	r21,640(sp)
    41dc:	dd009f17 	ldw	r20,636(sp)
    41e0:	dcc09e17 	ldw	r19,632(sp)
    41e4:	dc809d17 	ldw	r18,628(sp)
    41e8:	dc409c17 	ldw	r17,624(sp)
    41ec:	dc009b17 	ldw	r16,620(sp)
    41f0:	dec0a504 	addi	sp,sp,660
    41f4:	f800283a 	ret
    41f8:	0023883a 	mov	r17,zero
    41fc:	002f883a 	mov	r23,zero
    4200:	003fcd06 	br	4138 <__alt_mem_Flash_flash_data+0xf4004138>
    4204:	da00a517 	ldw	r8,660(sp)
    4208:	00800084 	movi	r2,2
    420c:	1200d216 	blt	r2,r8,4558 <__kernel_rem_pio2+0xc88>
    4210:	0200c016 	blt	zero,r8,4514 <__kernel_rem_pio2+0xc44>
    4214:	403fea1e 	bne	r8,zero,41c0 <__alt_mem_Flash_flash_data+0xf40041c0>
    4218:	0005883a 	mov	r2,zero
    421c:	0007883a 	mov	r3,zero
    4220:	003fe106 	br	41a8 <__alt_mem_Flash_flash_data+0xf40041a8>
    4224:	00c00044 	movi	r3,1
    4228:	003ecd06 	br	3d60 <__alt_mem_Flash_flash_data+0xf4003d60>
    422c:	2945883a 	add	r2,r5,r5
    4230:	da008f17 	ldw	r8,572(sp)
    4234:	1085883a 	add	r2,r2,r2
    4238:	d885883a 	add	r2,sp,r2
    423c:	10807817 	ldw	r2,480(r2)
    4240:	423ffa04 	addi	r8,r8,-24
    4244:	dc408e15 	stw	r17,568(sp)
    4248:	dc808c15 	stw	r18,560(sp)
    424c:	da008f15 	stw	r8,572(sp)
    4250:	dd809417 	ldw	r22,592(sp)
    4254:	2823883a 	mov	r17,r5
    4258:	103f751e 	bne	r2,zero,4030 <__alt_mem_Flash_flash_data+0xf4004030>
    425c:	280490ba 	slli	r2,r5,2
    4260:	d8c07804 	addi	r3,sp,480
    4264:	10bfff04 	addi	r2,r2,-4
    4268:	1885883a 	add	r2,r3,r2
    426c:	4007883a 	mov	r3,r8
    4270:	10bfff04 	addi	r2,r2,-4
    4274:	11000117 	ldw	r4,4(r2)
    4278:	8c7fffc4 	addi	r17,r17,-1
    427c:	18fffa04 	addi	r3,r3,-24
    4280:	203ffb26 	beq	r4,zero,4270 <__alt_mem_Flash_flash_data+0xf4004270>
    4284:	d8c08f15 	stw	r3,572(sp)
    4288:	003f6906 	br	4030 <__alt_mem_Flash_flash_data+0xf4004030>
    428c:	da008d17 	ldw	r8,564(sp)
    4290:	d8802804 	addi	r2,sp,160
    4294:	dcc02604 	addi	r19,sp,152
    4298:	1221883a 	add	r16,r2,r8
    429c:	0007883a 	mov	r3,zero
    42a0:	0005883a 	mov	r2,zero
    42a4:	81800017 	ldw	r6,0(r16)
    42a8:	81c00117 	ldw	r7,4(r16)
    42ac:	1009883a 	mov	r4,r2
    42b0:	843ffe04 	addi	r16,r16,-8
    42b4:	180b883a 	mov	r5,r3
    42b8:	0004f100 	call	4f10 <__adddf3>
    42bc:	84fff91e 	bne	r16,r19,42a4 <__alt_mem_Flash_flash_data+0xf40042a4>
    42c0:	da008c17 	ldw	r8,560(sp)
    42c4:	d9002817 	ldw	r4,160(sp)
    42c8:	d9402917 	ldw	r5,164(sp)
    42cc:	40009726 	beq	r8,zero,452c <__kernel_rem_pio2+0xc5c>
    42d0:	da009017 	ldw	r8,576(sp)
    42d4:	19a0003c 	xorhi	r6,r3,32768
    42d8:	180f883a 	mov	r7,r3
    42dc:	41800115 	stw	r6,4(r8)
    42e0:	40800015 	stw	r2,0(r8)
    42e4:	100d883a 	mov	r6,r2
    42e8:	00069e00 	call	69e0 <__subdf3>
    42ec:	04400c0e 	bge	zero,r17,4320 <__kernel_rem_pio2+0xa50>
    42f0:	dc002a04 	addi	r16,sp,168
    42f4:	04c00044 	movi	r19,1
    42f8:	81800017 	ldw	r6,0(r16)
    42fc:	81c00117 	ldw	r7,4(r16)
    4300:	1009883a 	mov	r4,r2
    4304:	180b883a 	mov	r5,r3
    4308:	9cc00044 	addi	r19,r19,1
    430c:	0004f100 	call	4f10 <__adddf3>
    4310:	84000204 	addi	r16,r16,8
    4314:	8cfff80e 	bge	r17,r19,42f8 <__alt_mem_Flash_flash_data+0xf40042f8>
    4318:	da008c17 	ldw	r8,560(sp)
    431c:	40000126 	beq	r8,zero,4324 <__kernel_rem_pio2+0xa54>
    4320:	18e0003c 	xorhi	r3,r3,32768
    4324:	da009017 	ldw	r8,576(sp)
    4328:	40800215 	stw	r2,8(r8)
    432c:	40c00315 	stw	r3,12(r8)
    4330:	003fa306 	br	41c0 <__alt_mem_Flash_flash_data+0xf40041c0>
    4334:	da00a517 	ldw	r8,660(sp)
    4338:	008000c4 	movi	r2,3
    433c:	40bfa01e 	bne	r8,r2,41c0 <__alt_mem_Flash_flash_data+0xf40041c0>
    4340:	0440880e 	bge	zero,r17,4564 <__kernel_rem_pio2+0xc94>
    4344:	da008d17 	ldw	r8,564(sp)
    4348:	882690fa 	slli	r19,r17,3
    434c:	dd402804 	addi	r21,sp,160
    4350:	da05883a 	add	r2,sp,r8
    4354:	10802804 	addi	r2,r2,160
    4358:	15c00017 	ldw	r23,0(r2)
    435c:	15800117 	ldw	r22,4(r2)
    4360:	9829883a 	mov	r20,r19
    4364:	9cfffe04 	addi	r19,r19,-8
    4368:	ace7883a 	add	r19,r21,r19
    436c:	ad29883a 	add	r20,r21,r20
    4370:	dac02604 	addi	r11,sp,152
    4374:	8811883a 	mov	r8,r17
    4378:	9c400017 	ldw	r17,0(r19)
    437c:	9f000117 	ldw	fp,4(r19)
    4380:	b809883a 	mov	r4,r23
    4384:	b00b883a 	mov	r5,r22
    4388:	880d883a 	mov	r6,r17
    438c:	e00f883a 	mov	r7,fp
    4390:	da009815 	stw	r8,608(sp)
    4394:	dac09a15 	stw	r11,616(sp)
    4398:	0004f100 	call	4f10 <__adddf3>
    439c:	8809883a 	mov	r4,r17
    43a0:	e00b883a 	mov	r5,fp
    43a4:	100d883a 	mov	r6,r2
    43a8:	180f883a 	mov	r7,r3
    43ac:	1025883a 	mov	r18,r2
    43b0:	1821883a 	mov	r16,r3
    43b4:	00069e00 	call	69e0 <__subdf3>
    43b8:	b809883a 	mov	r4,r23
    43bc:	b00b883a 	mov	r5,r22
    43c0:	100d883a 	mov	r6,r2
    43c4:	180f883a 	mov	r7,r3
    43c8:	0004f100 	call	4f10 <__adddf3>
    43cc:	dac09a17 	ldw	r11,616(sp)
    43d0:	a0800015 	stw	r2,0(r20)
    43d4:	a0c00115 	stw	r3,4(r20)
    43d8:	9c800015 	stw	r18,0(r19)
    43dc:	9c000115 	stw	r16,4(r19)
    43e0:	9cfffe04 	addi	r19,r19,-8
    43e4:	a53ffe04 	addi	r20,r20,-8
    43e8:	902f883a 	mov	r23,r18
    43ec:	802d883a 	mov	r22,r16
    43f0:	da009817 	ldw	r8,608(sp)
    43f4:	9affe01e 	bne	r19,r11,4378 <__alt_mem_Flash_flash_data+0xf4004378>
    43f8:	00800044 	movi	r2,1
    43fc:	1200590e 	bge	r2,r8,4564 <__kernel_rem_pio2+0xc94>
    4400:	402290fa 	slli	r17,r8,3
    4404:	da008d17 	ldw	r8,564(sp)
    4408:	8c3ffe04 	addi	r16,r17,-8
    440c:	da05883a 	add	r2,sp,r8
    4410:	10802804 	addi	r2,r2,160
    4414:	15800017 	ldw	r22,0(r2)
    4418:	15000117 	ldw	r20,4(r2)
    441c:	ac63883a 	add	r17,r21,r17
    4420:	ac21883a 	add	r16,r21,r16
    4424:	8827883a 	mov	r19,r17
    4428:	8811883a 	mov	r8,r17
    442c:	84400017 	ldw	r17,0(r16)
    4430:	87000117 	ldw	fp,4(r16)
    4434:	b00d883a 	mov	r6,r22
    4438:	a00f883a 	mov	r7,r20
    443c:	8809883a 	mov	r4,r17
    4440:	e00b883a 	mov	r5,fp
    4444:	da009815 	stw	r8,608(sp)
    4448:	0004f100 	call	4f10 <__adddf3>
    444c:	8809883a 	mov	r4,r17
    4450:	e00b883a 	mov	r5,fp
    4454:	100d883a 	mov	r6,r2
    4458:	180f883a 	mov	r7,r3
    445c:	102f883a 	mov	r23,r2
    4460:	1825883a 	mov	r18,r3
    4464:	00069e00 	call	69e0 <__subdf3>
    4468:	b00d883a 	mov	r6,r22
    446c:	a00f883a 	mov	r7,r20
    4470:	1009883a 	mov	r4,r2
    4474:	180b883a 	mov	r5,r3
    4478:	0004f100 	call	4f10 <__adddf3>
    447c:	98800015 	stw	r2,0(r19)
    4480:	98c00115 	stw	r3,4(r19)
    4484:	85c00015 	stw	r23,0(r16)
    4488:	84800115 	stw	r18,4(r16)
    448c:	843ffe04 	addi	r16,r16,-8
    4490:	9cfffe04 	addi	r19,r19,-8
    4494:	b82d883a 	mov	r22,r23
    4498:	9029883a 	mov	r20,r18
    449c:	da009817 	ldw	r8,608(sp)
    44a0:	ac3fe21e 	bne	r21,r16,442c <__alt_mem_Flash_flash_data+0xf400442c>
    44a4:	4023883a 	mov	r17,r8
    44a8:	dc002a04 	addi	r16,sp,168
    44ac:	0005883a 	mov	r2,zero
    44b0:	0007883a 	mov	r3,zero
    44b4:	89800017 	ldw	r6,0(r17)
    44b8:	89c00117 	ldw	r7,4(r17)
    44bc:	1009883a 	mov	r4,r2
    44c0:	8c7ffe04 	addi	r17,r17,-8
    44c4:	180b883a 	mov	r5,r3
    44c8:	0004f100 	call	4f10 <__adddf3>
    44cc:	8c3ff91e 	bne	r17,r16,44b4 <__alt_mem_Flash_flash_data+0xf40044b4>
    44d0:	da008c17 	ldw	r8,560(sp)
    44d4:	40002726 	beq	r8,zero,4574 <__kernel_rem_pio2+0xca4>
    44d8:	d9002b17 	ldw	r4,172(sp)
    44dc:	d9402917 	ldw	r5,164(sp)
    44e0:	d9802a17 	ldw	r6,168(sp)
    44e4:	da009017 	ldw	r8,576(sp)
    44e8:	d9c02817 	ldw	r7,160(sp)
    44ec:	2960003c 	xorhi	r5,r5,32768
    44f0:	2120003c 	xorhi	r4,r4,32768
    44f4:	18e0003c 	xorhi	r3,r3,32768
    44f8:	41c00015 	stw	r7,0(r8)
    44fc:	41400115 	stw	r5,4(r8)
    4500:	41800215 	stw	r6,8(r8)
    4504:	41000315 	stw	r4,12(r8)
    4508:	40800415 	stw	r2,16(r8)
    450c:	40c00515 	stw	r3,20(r8)
    4510:	003f2b06 	br	41c0 <__alt_mem_Flash_flash_data+0xf40041c0>
    4514:	da008c17 	ldw	r8,560(sp)
    4518:	0005883a 	mov	r2,zero
    451c:	0007883a 	mov	r3,zero
    4520:	d9002817 	ldw	r4,160(sp)
    4524:	d9402917 	ldw	r5,164(sp)
    4528:	403f691e 	bne	r8,zero,42d0 <__alt_mem_Flash_flash_data+0xf40042d0>
    452c:	da009017 	ldw	r8,576(sp)
    4530:	100d883a 	mov	r6,r2
    4534:	180f883a 	mov	r7,r3
    4538:	40800015 	stw	r2,0(r8)
    453c:	40c00115 	stw	r3,4(r8)
    4540:	00069e00 	call	69e0 <__subdf3>
    4544:	047f6a16 	blt	zero,r17,42f0 <__alt_mem_Flash_flash_data+0xf40042f0>
    4548:	da009017 	ldw	r8,576(sp)
    454c:	40800215 	stw	r2,8(r8)
    4550:	40c00315 	stw	r3,12(r8)
    4554:	003f1a06 	br	41c0 <__alt_mem_Flash_flash_data+0xf40041c0>
    4558:	da00a517 	ldw	r8,660(sp)
    455c:	008000c4 	movi	r2,3
    4560:	40bf171e 	bne	r8,r2,41c0 <__alt_mem_Flash_flash_data+0xf40041c0>
    4564:	da008c17 	ldw	r8,560(sp)
    4568:	0005883a 	mov	r2,zero
    456c:	0007883a 	mov	r3,zero
    4570:	403fd91e 	bne	r8,zero,44d8 <__alt_mem_Flash_flash_data+0xf40044d8>
    4574:	da009017 	ldw	r8,576(sp)
    4578:	d9802817 	ldw	r6,160(sp)
    457c:	d9402a17 	ldw	r5,168(sp)
    4580:	d9002b17 	ldw	r4,172(sp)
    4584:	41800015 	stw	r6,0(r8)
    4588:	d9802917 	ldw	r6,164(sp)
    458c:	41400215 	stw	r5,8(r8)
    4590:	41000315 	stw	r4,12(r8)
    4594:	41800115 	stw	r6,4(r8)
    4598:	40800415 	stw	r2,16(r8)
    459c:	40c00515 	stw	r3,20(r8)
    45a0:	003f0706 	br	41c0 <__alt_mem_Flash_flash_data+0xf40041c0>
    45a4:	a00d883a 	mov	r6,r20
    45a8:	580f883a 	mov	r7,r11
    45ac:	0009883a 	mov	r4,zero
    45b0:	014ffc34 	movhi	r5,16368
    45b4:	00069e00 	call	69e0 <__subdf3>
    45b8:	1029883a 	mov	r20,r2
    45bc:	1817883a 	mov	r11,r3
    45c0:	04800084 	movi	r18,2
    45c4:	003dc706 	br	3ce4 <__alt_mem_Flash_flash_data+0xf4003ce4>
    45c8:	840d883a 	add	r6,r16,r16
    45cc:	318d883a 	add	r6,r6,r6
    45d0:	d9a3883a 	add	r17,sp,r6
    45d4:	a009883a 	mov	r4,r20
    45d8:	b80b883a 	mov	r5,r23
    45dc:	8c407804 	addi	r17,r17,480
    45e0:	00072b00 	call	72b0 <__fixdfsi>
    45e4:	88800015 	stw	r2,0(r17)
    45e8:	8023883a 	mov	r17,r16
    45ec:	003e9006 	br	4030 <__alt_mem_Flash_flash_data+0xf4004030>
    45f0:	d8009215 	stw	zero,584(sp)
    45f4:	003cd406 	br	3948 <__alt_mem_Flash_flash_data+0xf4003948>

000045f8 <__kernel_sin>:
    45f8:	00a00034 	movhi	r2,32768
    45fc:	defff404 	addi	sp,sp,-48
    4600:	10bfffc4 	addi	r2,r2,-1
    4604:	00cf9034 	movhi	r3,15936
    4608:	ddc00915 	stw	r23,36(sp)
    460c:	dd800815 	stw	r22,32(sp)
    4610:	dc400315 	stw	r17,12(sp)
    4614:	dc000215 	stw	r16,8(sp)
    4618:	dfc00b15 	stw	ra,44(sp)
    461c:	df000a15 	stw	fp,40(sp)
    4620:	dd400715 	stw	r21,28(sp)
    4624:	dd000615 	stw	r20,24(sp)
    4628:	dcc00515 	stw	r19,20(sp)
    462c:	dc800415 	stw	r18,16(sp)
    4630:	2884703a 	and	r2,r5,r2
    4634:	18ffffc4 	addi	r3,r3,-1
    4638:	2821883a 	mov	r16,r5
    463c:	2023883a 	mov	r17,r4
    4640:	302f883a 	mov	r23,r6
    4644:	382d883a 	mov	r22,r7
    4648:	18800216 	blt	r3,r2,4654 <__kernel_sin+0x5c>
    464c:	00072b00 	call	72b0 <__fixdfsi>
    4650:	10009826 	beq	r2,zero,48b4 <__kernel_sin+0x2bc>
    4654:	8809883a 	mov	r4,r17
    4658:	800b883a 	mov	r5,r16
    465c:	880d883a 	mov	r6,r17
    4660:	800f883a 	mov	r7,r16
    4664:	00062bc0 	call	62bc <__muldf3>
    4668:	1009883a 	mov	r4,r2
    466c:	180b883a 	mov	r5,r3
    4670:	880d883a 	mov	r6,r17
    4674:	800f883a 	mov	r7,r16
    4678:	1027883a 	mov	r19,r2
    467c:	1825883a 	mov	r18,r3
    4680:	00062bc0 	call	62bc <__muldf3>
    4684:	0196b434 	movhi	r6,23248
    4688:	01cf79b4 	movhi	r7,15846
    468c:	9809883a 	mov	r4,r19
    4690:	900b883a 	mov	r5,r18
    4694:	31b55f04 	addi	r6,r6,-10884
    4698:	39f64e84 	addi	r7,r7,-9926
    469c:	102b883a 	mov	r21,r2
    46a0:	1829883a 	mov	r20,r3
    46a4:	00062bc0 	call	62bc <__muldf3>
    46a8:	01a28b34 	movhi	r6,35372
    46ac:	01cf96f4 	movhi	r7,15963
    46b0:	1009883a 	mov	r4,r2
    46b4:	180b883a 	mov	r5,r3
    46b8:	31a73ac4 	addi	r6,r6,-25365
    46bc:	39f97984 	addi	r7,r7,-6682
    46c0:	00069e00 	call	69e0 <__subdf3>
    46c4:	1009883a 	mov	r4,r2
    46c8:	180b883a 	mov	r5,r3
    46cc:	980d883a 	mov	r6,r19
    46d0:	900f883a 	mov	r7,r18
    46d4:	00062bc0 	call	62bc <__muldf3>
    46d8:	0195ecb4 	movhi	r6,22450
    46dc:	01cfb1f4 	movhi	r7,16071
    46e0:	1009883a 	mov	r4,r2
    46e4:	180b883a 	mov	r5,r3
    46e8:	31bf9f44 	addi	r6,r6,-387
    46ec:	39c778c4 	addi	r7,r7,7651
    46f0:	0004f100 	call	4f10 <__adddf3>
    46f4:	1009883a 	mov	r4,r2
    46f8:	180b883a 	mov	r5,r3
    46fc:	980d883a 	mov	r6,r19
    4700:	900f883a 	mov	r7,r18
    4704:	00062bc0 	call	62bc <__muldf3>
    4708:	01867074 	movhi	r6,6593
    470c:	01cfcab4 	movhi	r7,16170
    4710:	1009883a 	mov	r4,r2
    4714:	180b883a 	mov	r5,r3
    4718:	31987544 	addi	r6,r6,25045
    471c:	39c06804 	addi	r7,r7,416
    4720:	00069e00 	call	69e0 <__subdf3>
    4724:	1009883a 	mov	r4,r2
    4728:	180b883a 	mov	r5,r3
    472c:	980d883a 	mov	r6,r19
    4730:	900f883a 	mov	r7,r18
    4734:	00062bc0 	call	62bc <__muldf3>
    4738:	01844474 	movhi	r6,4369
    473c:	01cfe074 	movhi	r7,16257
    4740:	1009883a 	mov	r4,r2
    4744:	180b883a 	mov	r5,r3
    4748:	31be2984 	addi	r6,r6,-1882
    474c:	39c44444 	addi	r7,r7,4369
    4750:	0004f100 	call	4f10 <__adddf3>
    4754:	d9000c17 	ldw	r4,48(sp)
    4758:	1839883a 	mov	fp,r3
    475c:	20003e26 	beq	r4,zero,4858 <__kernel_sin+0x260>
    4760:	b809883a 	mov	r4,r23
    4764:	b00b883a 	mov	r5,r22
    4768:	000d883a 	mov	r6,zero
    476c:	01cff834 	movhi	r7,16352
    4770:	d8800015 	stw	r2,0(sp)
    4774:	00062bc0 	call	62bc <__muldf3>
    4778:	da000017 	ldw	r8,0(sp)
    477c:	a809883a 	mov	r4,r21
    4780:	a00b883a 	mov	r5,r20
    4784:	400d883a 	mov	r6,r8
    4788:	e00f883a 	mov	r7,fp
    478c:	d8c00115 	stw	r3,4(sp)
    4790:	d8800015 	stw	r2,0(sp)
    4794:	00062bc0 	call	62bc <__muldf3>
    4798:	da800017 	ldw	r10,0(sp)
    479c:	da400117 	ldw	r9,4(sp)
    47a0:	100d883a 	mov	r6,r2
    47a4:	5009883a 	mov	r4,r10
    47a8:	480b883a 	mov	r5,r9
    47ac:	180f883a 	mov	r7,r3
    47b0:	00069e00 	call	69e0 <__subdf3>
    47b4:	980d883a 	mov	r6,r19
    47b8:	900f883a 	mov	r7,r18
    47bc:	1009883a 	mov	r4,r2
    47c0:	180b883a 	mov	r5,r3
    47c4:	00062bc0 	call	62bc <__muldf3>
    47c8:	1009883a 	mov	r4,r2
    47cc:	180b883a 	mov	r5,r3
    47d0:	b80d883a 	mov	r6,r23
    47d4:	b00f883a 	mov	r7,r22
    47d8:	00069e00 	call	69e0 <__subdf3>
    47dc:	01955574 	movhi	r6,21845
    47e0:	01cff174 	movhi	r7,16325
    47e4:	a809883a 	mov	r4,r21
    47e8:	a00b883a 	mov	r5,r20
    47ec:	31955244 	addi	r6,r6,21833
    47f0:	39d55544 	addi	r7,r7,21845
    47f4:	1027883a 	mov	r19,r2
    47f8:	1825883a 	mov	r18,r3
    47fc:	00062bc0 	call	62bc <__muldf3>
    4800:	9809883a 	mov	r4,r19
    4804:	900b883a 	mov	r5,r18
    4808:	100d883a 	mov	r6,r2
    480c:	180f883a 	mov	r7,r3
    4810:	0004f100 	call	4f10 <__adddf3>
    4814:	8809883a 	mov	r4,r17
    4818:	800b883a 	mov	r5,r16
    481c:	100d883a 	mov	r6,r2
    4820:	180f883a 	mov	r7,r3
    4824:	00069e00 	call	69e0 <__subdf3>
    4828:	dfc00b17 	ldw	ra,44(sp)
    482c:	df000a17 	ldw	fp,40(sp)
    4830:	ddc00917 	ldw	r23,36(sp)
    4834:	dd800817 	ldw	r22,32(sp)
    4838:	dd400717 	ldw	r21,28(sp)
    483c:	dd000617 	ldw	r20,24(sp)
    4840:	dcc00517 	ldw	r19,20(sp)
    4844:	dc800417 	ldw	r18,16(sp)
    4848:	dc400317 	ldw	r17,12(sp)
    484c:	dc000217 	ldw	r16,8(sp)
    4850:	dec00c04 	addi	sp,sp,48
    4854:	f800283a 	ret
    4858:	9809883a 	mov	r4,r19
    485c:	900b883a 	mov	r5,r18
    4860:	100d883a 	mov	r6,r2
    4864:	180f883a 	mov	r7,r3
    4868:	00062bc0 	call	62bc <__muldf3>
    486c:	01955574 	movhi	r6,21845
    4870:	01cff174 	movhi	r7,16325
    4874:	1009883a 	mov	r4,r2
    4878:	180b883a 	mov	r5,r3
    487c:	31955244 	addi	r6,r6,21833
    4880:	39d55544 	addi	r7,r7,21845
    4884:	00069e00 	call	69e0 <__subdf3>
    4888:	a80d883a 	mov	r6,r21
    488c:	a00f883a 	mov	r7,r20
    4890:	1009883a 	mov	r4,r2
    4894:	180b883a 	mov	r5,r3
    4898:	00062bc0 	call	62bc <__muldf3>
    489c:	1009883a 	mov	r4,r2
    48a0:	180b883a 	mov	r5,r3
    48a4:	880d883a 	mov	r6,r17
    48a8:	800f883a 	mov	r7,r16
    48ac:	0004f100 	call	4f10 <__adddf3>
    48b0:	003fdd06 	br	4828 <__alt_mem_Flash_flash_data+0xf4004828>
    48b4:	8805883a 	mov	r2,r17
    48b8:	8007883a 	mov	r3,r16
    48bc:	003fda06 	br	4828 <__alt_mem_Flash_flash_data+0xf4004828>

000048c0 <fabs>:
    48c0:	00e00034 	movhi	r3,32768
    48c4:	18ffffc4 	addi	r3,r3,-1
    48c8:	2005883a 	mov	r2,r4
    48cc:	28c6703a 	and	r3,r5,r3
    48d0:	f800283a 	ret

000048d4 <floor>:
    48d4:	defff904 	addi	sp,sp,-28
    48d8:	dc800215 	stw	r18,8(sp)
    48dc:	2825d53a 	srai	r18,r5,20
    48e0:	dd000415 	stw	r20,16(sp)
    48e4:	dcc00315 	stw	r19,12(sp)
    48e8:	9481ffcc 	andi	r18,r18,2047
    48ec:	dc400115 	stw	r17,4(sp)
    48f0:	dc000015 	stw	r16,0(sp)
    48f4:	dfc00615 	stw	ra,24(sp)
    48f8:	dd400515 	stw	r21,20(sp)
    48fc:	94ff0044 	addi	r19,r18,-1023
    4900:	018004c4 	movi	r6,19
    4904:	2821883a 	mov	r16,r5
    4908:	2005883a 	mov	r2,r4
    490c:	280f883a 	mov	r7,r5
    4910:	2829883a 	mov	r20,r5
    4914:	2023883a 	mov	r17,r4
    4918:	34c01916 	blt	r6,r19,4980 <floor+0xac>
    491c:	98003d16 	blt	r19,zero,4a14 <floor+0x140>
    4920:	04800434 	movhi	r18,16
    4924:	94bfffc4 	addi	r18,r18,-1
    4928:	94e5d83a 	sra	r18,r18,r19
    492c:	914c703a 	and	r6,r18,r5
    4930:	310cb03a 	or	r6,r6,r4
    4934:	30001626 	beq	r6,zero,4990 <floor+0xbc>
    4938:	01a20034 	movhi	r6,34816
    493c:	01df8e34 	movhi	r7,32312
    4940:	319d6704 	addi	r6,r6,30108
    4944:	39f90f04 	addi	r7,r7,-7108
    4948:	0004f100 	call	4f10 <__adddf3>
    494c:	1009883a 	mov	r4,r2
    4950:	180b883a 	mov	r5,r3
    4954:	000d883a 	mov	r6,zero
    4958:	000f883a 	mov	r7,zero
    495c:	00060fc0 	call	60fc <__gedf2>
    4960:	0080040e 	bge	zero,r2,4974 <floor+0xa0>
    4964:	80003d16 	blt	r16,zero,4a5c <floor+0x188>
    4968:	04a0303a 	nor	r16,zero,r18
    496c:	a420703a 	and	r16,r20,r16
    4970:	0023883a 	mov	r17,zero
    4974:	8805883a 	mov	r2,r17
    4978:	8007883a 	mov	r3,r16
    497c:	00000506 	br	4994 <floor+0xc0>
    4980:	01800cc4 	movi	r6,51
    4984:	34c00c0e 	bge	r6,r19,49b8 <floor+0xe4>
    4988:	01810004 	movi	r6,1024
    498c:	99803026 	beq	r19,r6,4a50 <floor+0x17c>
    4990:	3807883a 	mov	r3,r7
    4994:	dfc00617 	ldw	ra,24(sp)
    4998:	dd400517 	ldw	r21,20(sp)
    499c:	dd000417 	ldw	r20,16(sp)
    49a0:	dcc00317 	ldw	r19,12(sp)
    49a4:	dc800217 	ldw	r18,8(sp)
    49a8:	dc400117 	ldw	r17,4(sp)
    49ac:	dc000017 	ldw	r16,0(sp)
    49b0:	dec00704 	addi	sp,sp,28
    49b4:	f800283a 	ret
    49b8:	01bfffc4 	movi	r6,-1
    49bc:	957efb44 	addi	r21,r18,-1043
    49c0:	356ad83a 	srl	r21,r6,r21
    49c4:	a90c703a 	and	r6,r21,r4
    49c8:	303ff126 	beq	r6,zero,4990 <__alt_mem_Flash_flash_data+0xf4004990>
    49cc:	01a20034 	movhi	r6,34816
    49d0:	01df8e34 	movhi	r7,32312
    49d4:	319d6704 	addi	r6,r6,30108
    49d8:	39f90f04 	addi	r7,r7,-7108
    49dc:	0004f100 	call	4f10 <__adddf3>
    49e0:	1009883a 	mov	r4,r2
    49e4:	180b883a 	mov	r5,r3
    49e8:	000d883a 	mov	r6,zero
    49ec:	000f883a 	mov	r7,zero
    49f0:	00060fc0 	call	60fc <__gedf2>
    49f4:	00bfdf0e 	bge	zero,r2,4974 <__alt_mem_Flash_flash_data+0xf4004974>
    49f8:	80001c16 	blt	r16,zero,4a6c <floor+0x198>
    49fc:	056a303a 	nor	r21,zero,r21
    4a00:	a021883a 	mov	r16,r20
    4a04:	8d62703a 	and	r17,r17,r21
    4a08:	8805883a 	mov	r2,r17
    4a0c:	8007883a 	mov	r3,r16
    4a10:	003fe006 	br	4994 <__alt_mem_Flash_flash_data+0xf4004994>
    4a14:	01a20034 	movhi	r6,34816
    4a18:	01df8e34 	movhi	r7,32312
    4a1c:	319d6704 	addi	r6,r6,30108
    4a20:	39f90f04 	addi	r7,r7,-7108
    4a24:	0004f100 	call	4f10 <__adddf3>
    4a28:	1009883a 	mov	r4,r2
    4a2c:	180b883a 	mov	r5,r3
    4a30:	000d883a 	mov	r6,zero
    4a34:	000f883a 	mov	r7,zero
    4a38:	00060fc0 	call	60fc <__gedf2>
    4a3c:	00bfcd0e 	bge	zero,r2,4974 <__alt_mem_Flash_flash_data+0xf4004974>
    4a40:	80001516 	blt	r16,zero,4a98 <floor+0x1c4>
    4a44:	0023883a 	mov	r17,zero
    4a48:	0021883a 	mov	r16,zero
    4a4c:	003fc906 	br	4974 <__alt_mem_Flash_flash_data+0xf4004974>
    4a50:	200d883a 	mov	r6,r4
    4a54:	0004f100 	call	4f10 <__adddf3>
    4a58:	003fce06 	br	4994 <__alt_mem_Flash_flash_data+0xf4004994>
    4a5c:	00800434 	movhi	r2,16
    4a60:	14e7d83a 	sra	r19,r2,r19
    4a64:	84e9883a 	add	r20,r16,r19
    4a68:	003fbf06 	br	4968 <__alt_mem_Flash_flash_data+0xf4004968>
    4a6c:	00800504 	movi	r2,20
    4a70:	98801326 	beq	r19,r2,4ac0 <floor+0x1ec>
    4a74:	00810cc4 	movi	r2,1075
    4a78:	14a5c83a 	sub	r18,r2,r18
    4a7c:	00800044 	movi	r2,1
    4a80:	1484983a 	sll	r2,r2,r18
    4a84:	1445883a 	add	r2,r2,r17
    4a88:	14400b2e 	bgeu	r2,r17,4ab8 <floor+0x1e4>
    4a8c:	85000044 	addi	r20,r16,1
    4a90:	1023883a 	mov	r17,r2
    4a94:	003fd906 	br	49fc <__alt_mem_Flash_flash_data+0xf40049fc>
    4a98:	00a00034 	movhi	r2,32768
    4a9c:	10bfffc4 	addi	r2,r2,-1
    4aa0:	8084703a 	and	r2,r16,r2
    4aa4:	1462b03a 	or	r17,r2,r17
    4aa8:	883fb226 	beq	r17,zero,4974 <__alt_mem_Flash_flash_data+0xf4004974>
    4aac:	0023883a 	mov	r17,zero
    4ab0:	042ffc34 	movhi	r16,49136
    4ab4:	003faf06 	br	4974 <__alt_mem_Flash_flash_data+0xf4004974>
    4ab8:	1023883a 	mov	r17,r2
    4abc:	003fcf06 	br	49fc <__alt_mem_Flash_flash_data+0xf40049fc>
    4ac0:	85000044 	addi	r20,r16,1
    4ac4:	003fcd06 	br	49fc <__alt_mem_Flash_flash_data+0xf40049fc>

00004ac8 <scalbn>:
    4ac8:	2a1ffc2c 	andhi	r8,r5,32752
    4acc:	4011d53a 	srai	r8,r8,20
    4ad0:	defffe04 	addi	sp,sp,-8
    4ad4:	dc000015 	stw	r16,0(sp)
    4ad8:	dfc00115 	stw	ra,4(sp)
    4adc:	280f883a 	mov	r7,r5
    4ae0:	2015883a 	mov	r10,r4
    4ae4:	3021883a 	mov	r16,r6
    4ae8:	4000251e 	bne	r8,zero,4b80 <scalbn+0xb8>
    4aec:	00a00034 	movhi	r2,32768
    4af0:	10bfffc4 	addi	r2,r2,-1
    4af4:	2884703a 	and	r2,r5,r2
    4af8:	1104b03a 	or	r2,r2,r4
    4afc:	10003126 	beq	r2,zero,4bc4 <scalbn+0xfc>
    4b00:	01d0d434 	movhi	r7,17232
    4b04:	000d883a 	mov	r6,zero
    4b08:	00062bc0 	call	62bc <__muldf3>
    4b0c:	013ffff4 	movhi	r4,65535
    4b10:	210f2c04 	addi	r4,r4,15536
    4b14:	1015883a 	mov	r10,r2
    4b18:	180f883a 	mov	r7,r3
    4b1c:	81002f16 	blt	r16,r4,4bdc <scalbn+0x114>
    4b20:	1a5ffc2c 	andhi	r9,r3,32752
    4b24:	4813d53a 	srai	r9,r9,20
    4b28:	0081ff84 	movi	r2,2046
    4b2c:	180d883a 	mov	r6,r3
    4b30:	4a3ff284 	addi	r8,r9,-54
    4b34:	4411883a 	add	r8,r8,r16
    4b38:	1200170e 	bge	r2,r8,4b98 <scalbn+0xd0>
    4b3c:	01220034 	movhi	r4,34816
    4b40:	015f8e34 	movhi	r5,32312
    4b44:	500d883a 	mov	r6,r10
    4b48:	211d6704 	addi	r4,r4,30108
    4b4c:	29790f04 	addi	r5,r5,-7108
    4b50:	0004c940 	call	4c94 <copysign>
    4b54:	01a20034 	movhi	r6,34816
    4b58:	01df8e34 	movhi	r7,32312
    4b5c:	1009883a 	mov	r4,r2
    4b60:	180b883a 	mov	r5,r3
    4b64:	319d6704 	addi	r6,r6,30108
    4b68:	39f90f04 	addi	r7,r7,-7108
    4b6c:	00062bc0 	call	62bc <__muldf3>
    4b70:	dfc00117 	ldw	ra,4(sp)
    4b74:	dc000017 	ldw	r16,0(sp)
    4b78:	dec00204 	addi	sp,sp,8
    4b7c:	f800283a 	ret
    4b80:	0081ffc4 	movi	r2,2047
    4b84:	280d883a 	mov	r6,r5
    4b88:	40803126 	beq	r8,r2,4c50 <scalbn+0x188>
    4b8c:	4411883a 	add	r8,r8,r16
    4b90:	0081ff84 	movi	r2,2046
    4b94:	123fe916 	blt	r2,r8,4b3c <__alt_mem_Flash_flash_data+0xf4004b3c>
    4b98:	02001b0e 	bge	zero,r8,4c08 <scalbn+0x140>
    4b9c:	4010953a 	slli	r8,r8,20
    4ba0:	00e00434 	movhi	r3,32784
    4ba4:	18ffffc4 	addi	r3,r3,-1
    4ba8:	30ce703a 	and	r7,r6,r3
    4bac:	5005883a 	mov	r2,r10
    4bb0:	41c6b03a 	or	r3,r8,r7
    4bb4:	dfc00117 	ldw	ra,4(sp)
    4bb8:	dc000017 	ldw	r16,0(sp)
    4bbc:	dec00204 	addi	sp,sp,8
    4bc0:	f800283a 	ret
    4bc4:	2005883a 	mov	r2,r4
    4bc8:	2807883a 	mov	r3,r5
    4bcc:	dfc00117 	ldw	ra,4(sp)
    4bd0:	dc000017 	ldw	r16,0(sp)
    4bd4:	dec00204 	addi	sp,sp,8
    4bd8:	f800283a 	ret
    4bdc:	01b0be74 	movhi	r6,49913
    4be0:	01c06974 	movhi	r7,421
    4be4:	31bcd644 	addi	r6,r6,-3239
    4be8:	39db87c4 	addi	r7,r7,28191
    4bec:	1009883a 	mov	r4,r2
    4bf0:	180b883a 	mov	r5,r3
    4bf4:	00062bc0 	call	62bc <__muldf3>
    4bf8:	dfc00117 	ldw	ra,4(sp)
    4bfc:	dc000017 	ldw	r16,0(sp)
    4c00:	dec00204 	addi	sp,sp,8
    4c04:	f800283a 	ret
    4c08:	00bff2c4 	movi	r2,-53
    4c0c:	4080160e 	bge	r8,r2,4c68 <scalbn+0x1a0>
    4c10:	00b0d414 	movui	r2,50000
    4c14:	143fc916 	blt	r2,r16,4b3c <__alt_mem_Flash_flash_data+0xf4004b3c>
    4c18:	0130be74 	movhi	r4,49913
    4c1c:	01406974 	movhi	r5,421
    4c20:	500d883a 	mov	r6,r10
    4c24:	213cd644 	addi	r4,r4,-3239
    4c28:	295b87c4 	addi	r5,r5,28191
    4c2c:	0004c940 	call	4c94 <copysign>
    4c30:	01b0be74 	movhi	r6,49913
    4c34:	01c06974 	movhi	r7,421
    4c38:	1009883a 	mov	r4,r2
    4c3c:	180b883a 	mov	r5,r3
    4c40:	31bcd644 	addi	r6,r6,-3239
    4c44:	39db87c4 	addi	r7,r7,28191
    4c48:	00062bc0 	call	62bc <__muldf3>
    4c4c:	003fd906 	br	4bb4 <__alt_mem_Flash_flash_data+0xf4004bb4>
    4c50:	200d883a 	mov	r6,r4
    4c54:	0004f100 	call	4f10 <__adddf3>
    4c58:	dfc00117 	ldw	ra,4(sp)
    4c5c:	dc000017 	ldw	r16,0(sp)
    4c60:	dec00204 	addi	sp,sp,8
    4c64:	f800283a 	ret
    4c68:	42000d84 	addi	r8,r8,54
    4c6c:	4012953a 	slli	r9,r8,20
    4c70:	01e00434 	movhi	r7,32784
    4c74:	39ffffc4 	addi	r7,r7,-1
    4c78:	31ca703a 	and	r5,r6,r7
    4c7c:	5009883a 	mov	r4,r10
    4c80:	494ab03a 	or	r5,r9,r5
    4c84:	000d883a 	mov	r6,zero
    4c88:	01cf2434 	movhi	r7,15504
    4c8c:	00062bc0 	call	62bc <__muldf3>
    4c90:	003fc806 	br	4bb4 <__alt_mem_Flash_flash_data+0xf4004bb4>

00004c94 <copysign>:
    4c94:	2005883a 	mov	r2,r4
    4c98:	01200034 	movhi	r4,32768
    4c9c:	213fffc4 	addi	r4,r4,-1
    4ca0:	38e0002c 	andhi	r3,r7,32768
    4ca4:	290a703a 	and	r5,r5,r4
    4ca8:	1946b03a 	or	r3,r3,r5
    4cac:	f800283a 	ret

00004cb0 <udivmodsi4>:
    4cb0:	2900182e 	bgeu	r5,r4,4d14 <udivmodsi4+0x64>
    4cb4:	28001716 	blt	r5,zero,4d14 <udivmodsi4+0x64>
    4cb8:	00800804 	movi	r2,32
    4cbc:	00c00044 	movi	r3,1
    4cc0:	00000206 	br	4ccc <udivmodsi4+0x1c>
    4cc4:	10001126 	beq	r2,zero,4d0c <udivmodsi4+0x5c>
    4cc8:	28000516 	blt	r5,zero,4ce0 <udivmodsi4+0x30>
    4ccc:	294b883a 	add	r5,r5,r5
    4cd0:	10bfffc4 	addi	r2,r2,-1
    4cd4:	18c7883a 	add	r3,r3,r3
    4cd8:	293ffa36 	bltu	r5,r4,4cc4 <__alt_mem_Flash_flash_data+0xf4004cc4>
    4cdc:	18000b26 	beq	r3,zero,4d0c <udivmodsi4+0x5c>
    4ce0:	0005883a 	mov	r2,zero
    4ce4:	21400236 	bltu	r4,r5,4cf0 <udivmodsi4+0x40>
    4ce8:	2149c83a 	sub	r4,r4,r5
    4cec:	10c4b03a 	or	r2,r2,r3
    4cf0:	1806d07a 	srli	r3,r3,1
    4cf4:	280ad07a 	srli	r5,r5,1
    4cf8:	183ffa1e 	bne	r3,zero,4ce4 <__alt_mem_Flash_flash_data+0xf4004ce4>
    4cfc:	3000011e 	bne	r6,zero,4d04 <udivmodsi4+0x54>
    4d00:	f800283a 	ret
    4d04:	2005883a 	mov	r2,r4
    4d08:	f800283a 	ret
    4d0c:	0005883a 	mov	r2,zero
    4d10:	003ffa06 	br	4cfc <__alt_mem_Flash_flash_data+0xf4004cfc>
    4d14:	00c00044 	movi	r3,1
    4d18:	003ff106 	br	4ce0 <__alt_mem_Flash_flash_data+0xf4004ce0>

00004d1c <__divsi3>:
    4d1c:	defffe04 	addi	sp,sp,-8
    4d20:	dfc00115 	stw	ra,4(sp)
    4d24:	dc000015 	stw	r16,0(sp)
    4d28:	20000b16 	blt	r4,zero,4d58 <__divsi3+0x3c>
    4d2c:	0021883a 	mov	r16,zero
    4d30:	28000c16 	blt	r5,zero,4d64 <__divsi3+0x48>
    4d34:	000d883a 	mov	r6,zero
    4d38:	0004cb00 	call	4cb0 <udivmodsi4>
    4d3c:	0407c83a 	sub	r3,zero,r16
    4d40:	1884f03a 	xor	r2,r3,r2
    4d44:	1405883a 	add	r2,r2,r16
    4d48:	dfc00117 	ldw	ra,4(sp)
    4d4c:	dc000017 	ldw	r16,0(sp)
    4d50:	dec00204 	addi	sp,sp,8
    4d54:	f800283a 	ret
    4d58:	0109c83a 	sub	r4,zero,r4
    4d5c:	04000044 	movi	r16,1
    4d60:	283ff40e 	bge	r5,zero,4d34 <__alt_mem_Flash_flash_data+0xf4004d34>
    4d64:	014bc83a 	sub	r5,zero,r5
    4d68:	8400005c 	xori	r16,r16,1
    4d6c:	003ff106 	br	4d34 <__alt_mem_Flash_flash_data+0xf4004d34>

00004d70 <__modsi3>:
    4d70:	defffd04 	addi	sp,sp,-12
    4d74:	dfc00215 	stw	ra,8(sp)
    4d78:	dc400115 	stw	r17,4(sp)
    4d7c:	dc000015 	stw	r16,0(sp)
    4d80:	20000c16 	blt	r4,zero,4db4 <__modsi3+0x44>
    4d84:	0023883a 	mov	r17,zero
    4d88:	0021883a 	mov	r16,zero
    4d8c:	28000d16 	blt	r5,zero,4dc4 <__modsi3+0x54>
    4d90:	01800044 	movi	r6,1
    4d94:	0004cb00 	call	4cb0 <udivmodsi4>
    4d98:	1404f03a 	xor	r2,r2,r16
    4d9c:	8885883a 	add	r2,r17,r2
    4da0:	dfc00217 	ldw	ra,8(sp)
    4da4:	dc400117 	ldw	r17,4(sp)
    4da8:	dc000017 	ldw	r16,0(sp)
    4dac:	dec00304 	addi	sp,sp,12
    4db0:	f800283a 	ret
    4db4:	0109c83a 	sub	r4,zero,r4
    4db8:	04400044 	movi	r17,1
    4dbc:	043fffc4 	movi	r16,-1
    4dc0:	283ff30e 	bge	r5,zero,4d90 <__alt_mem_Flash_flash_data+0xf4004d90>
    4dc4:	014bc83a 	sub	r5,zero,r5
    4dc8:	003ff106 	br	4d90 <__alt_mem_Flash_flash_data+0xf4004d90>

00004dcc <__udivsi3>:
    4dcc:	000d883a 	mov	r6,zero
    4dd0:	0004cb01 	jmpi	4cb0 <udivmodsi4>

00004dd4 <__umodsi3>:
    4dd4:	01800044 	movi	r6,1
    4dd8:	0004cb01 	jmpi	4cb0 <udivmodsi4>

00004ddc <__floatsisf>:
    4ddc:	defffd04 	addi	sp,sp,-12
    4de0:	dc000015 	stw	r16,0(sp)
    4de4:	dfc00215 	stw	ra,8(sp)
    4de8:	dc400115 	stw	r17,4(sp)
    4dec:	2021883a 	mov	r16,r4
    4df0:	20003a26 	beq	r4,zero,4edc <__floatsisf+0x100>
    4df4:	2022d7fa 	srli	r17,r4,31
    4df8:	88000126 	beq	r17,zero,4e00 <__floatsisf+0x24>
    4dfc:	0121c83a 	sub	r16,zero,r4
    4e00:	8009883a 	mov	r4,r16
    4e04:	00075180 	call	7518 <__clzsi2>
    4e08:	00c02784 	movi	r3,158
    4e0c:	1887c83a 	sub	r3,r3,r2
    4e10:	01802584 	movi	r6,150
    4e14:	800b883a 	mov	r5,r16
    4e18:	30c01616 	blt	r6,r3,4e74 <__floatsisf+0x98>
    4e1c:	01000204 	movi	r4,8
    4e20:	2080020e 	bge	r4,r2,4e2c <__floatsisf+0x50>
    4e24:	10bffe04 	addi	r2,r2,-8
    4e28:	80a0983a 	sll	r16,r16,r2
    4e2c:	00802034 	movhi	r2,128
    4e30:	10bfffc4 	addi	r2,r2,-1
    4e34:	8809883a 	mov	r4,r17
    4e38:	80a0703a 	and	r16,r16,r2
    4e3c:	18803fcc 	andi	r2,r3,255
    4e40:	100695fa 	slli	r3,r2,23
    4e44:	20803fcc 	andi	r2,r4,255
    4e48:	100897fa 	slli	r4,r2,31
    4e4c:	00802034 	movhi	r2,128
    4e50:	10bfffc4 	addi	r2,r2,-1
    4e54:	8084703a 	and	r2,r16,r2
    4e58:	10c4b03a 	or	r2,r2,r3
    4e5c:	1104b03a 	or	r2,r2,r4
    4e60:	dfc00217 	ldw	ra,8(sp)
    4e64:	dc400117 	ldw	r17,4(sp)
    4e68:	dc000017 	ldw	r16,0(sp)
    4e6c:	dec00304 	addi	sp,sp,12
    4e70:	f800283a 	ret
    4e74:	01002644 	movi	r4,153
    4e78:	20c01c16 	blt	r4,r3,4eec <__floatsisf+0x110>
    4e7c:	01000144 	movi	r4,5
    4e80:	2080020e 	bge	r4,r2,4e8c <__floatsisf+0xb0>
    4e84:	113ffec4 	addi	r4,r2,-5
    4e88:	290a983a 	sll	r5,r5,r4
    4e8c:	043f0034 	movhi	r16,64512
    4e90:	843fffc4 	addi	r16,r16,-1
    4e94:	298001cc 	andi	r6,r5,7
    4e98:	2c20703a 	and	r16,r5,r16
    4e9c:	30000426 	beq	r6,zero,4eb0 <__floatsisf+0xd4>
    4ea0:	294003cc 	andi	r5,r5,15
    4ea4:	01000104 	movi	r4,4
    4ea8:	29000126 	beq	r5,r4,4eb0 <__floatsisf+0xd4>
    4eac:	8121883a 	add	r16,r16,r4
    4eb0:	8101002c 	andhi	r4,r16,1024
    4eb4:	20000526 	beq	r4,zero,4ecc <__floatsisf+0xf0>
    4eb8:	00c027c4 	movi	r3,159
    4ebc:	1887c83a 	sub	r3,r3,r2
    4ec0:	00bf0034 	movhi	r2,64512
    4ec4:	10bfffc4 	addi	r2,r2,-1
    4ec8:	80a0703a 	and	r16,r16,r2
    4ecc:	802091ba 	slli	r16,r16,6
    4ed0:	8809883a 	mov	r4,r17
    4ed4:	8020d27a 	srli	r16,r16,9
    4ed8:	003fd806 	br	4e3c <__alt_mem_Flash_flash_data+0xf4004e3c>
    4edc:	0009883a 	mov	r4,zero
    4ee0:	0007883a 	mov	r3,zero
    4ee4:	0021883a 	mov	r16,zero
    4ee8:	003fd406 	br	4e3c <__alt_mem_Flash_flash_data+0xf4004e3c>
    4eec:	01800144 	movi	r6,5
    4ef0:	110006c4 	addi	r4,r2,27
    4ef4:	8108983a 	sll	r4,r16,r4
    4ef8:	308fc83a 	sub	r7,r6,r2
    4efc:	81cad83a 	srl	r5,r16,r7
    4f00:	2008c03a 	cmpne	r4,r4,zero
    4f04:	214ab03a 	or	r5,r4,r5
    4f08:	30bfe00e 	bge	r6,r2,4e8c <__alt_mem_Flash_flash_data+0xf4004e8c>
    4f0c:	003fdd06 	br	4e84 <__alt_mem_Flash_flash_data+0xf4004e84>

00004f10 <__adddf3>:
    4f10:	02000434 	movhi	r8,16
    4f14:	423fffc4 	addi	r8,r8,-1
    4f18:	defffb04 	addi	sp,sp,-20
    4f1c:	2a12703a 	and	r9,r5,r8
    4f20:	2806d7fa 	srli	r3,r5,31
    4f24:	3a10703a 	and	r8,r7,r8
    4f28:	3804d53a 	srli	r2,r7,20
    4f2c:	3014d77a 	srli	r10,r6,29
    4f30:	dc000015 	stw	r16,0(sp)
    4f34:	481290fa 	slli	r9,r9,3
    4f38:	2820d53a 	srli	r16,r5,20
    4f3c:	401090fa 	slli	r8,r8,3
    4f40:	200ad77a 	srli	r5,r4,29
    4f44:	380ed7fa 	srli	r7,r7,31
    4f48:	dc800215 	stw	r18,8(sp)
    4f4c:	dc400115 	stw	r17,4(sp)
    4f50:	dfc00415 	stw	ra,16(sp)
    4f54:	dcc00315 	stw	r19,12(sp)
    4f58:	1c803fcc 	andi	r18,r3,255
    4f5c:	8401ffcc 	andi	r16,r16,2047
    4f60:	494ab03a 	or	r5,r9,r5
    4f64:	202290fa 	slli	r17,r4,3
    4f68:	1081ffcc 	andi	r2,r2,2047
    4f6c:	4290b03a 	or	r8,r8,r10
    4f70:	300c90fa 	slli	r6,r6,3
    4f74:	91c07026 	beq	r18,r7,5138 <__adddf3+0x228>
    4f78:	8087c83a 	sub	r3,r16,r2
    4f7c:	00c0b30e 	bge	zero,r3,524c <__adddf3+0x33c>
    4f80:	10002a1e 	bne	r2,zero,502c <__adddf3+0x11c>
    4f84:	4184b03a 	or	r2,r8,r6
    4f88:	1000991e 	bne	r2,zero,51f0 <__adddf3+0x2e0>
    4f8c:	888001cc 	andi	r2,r17,7
    4f90:	10005b26 	beq	r2,zero,5100 <__adddf3+0x1f0>
    4f94:	88c003cc 	andi	r3,r17,15
    4f98:	00800104 	movi	r2,4
    4f9c:	18805826 	beq	r3,r2,5100 <__adddf3+0x1f0>
    4fa0:	89800104 	addi	r6,r17,4
    4fa4:	3463803a 	cmpltu	r17,r6,r17
    4fa8:	2c4b883a 	add	r5,r5,r17
    4fac:	2880202c 	andhi	r2,r5,128
    4fb0:	9007883a 	mov	r3,r18
    4fb4:	3023883a 	mov	r17,r6
    4fb8:	10005426 	beq	r2,zero,510c <__adddf3+0x1fc>
    4fbc:	84000044 	addi	r16,r16,1
    4fc0:	0081ffc4 	movi	r2,2047
    4fc4:	8080c126 	beq	r16,r2,52cc <__adddf3+0x3bc>
    4fc8:	013fe034 	movhi	r4,65408
    4fcc:	213fffc4 	addi	r4,r4,-1
    4fd0:	290a703a 	and	r5,r5,r4
    4fd4:	2804977a 	slli	r2,r5,29
    4fd8:	280a927a 	slli	r5,r5,9
    4fdc:	8822d0fa 	srli	r17,r17,3
    4fe0:	8401ffcc 	andi	r16,r16,2047
    4fe4:	2808d33a 	srli	r4,r5,12
    4fe8:	1444b03a 	or	r2,r2,r17
    4fec:	8401ffcc 	andi	r16,r16,2047
    4ff0:	800a953a 	slli	r5,r16,20
    4ff4:	18c03fcc 	andi	r3,r3,255
    4ff8:	04000434 	movhi	r16,16
    4ffc:	180697fa 	slli	r3,r3,31
    5000:	843fffc4 	addi	r16,r16,-1
    5004:	2420703a 	and	r16,r4,r16
    5008:	8160b03a 	or	r16,r16,r5
    500c:	80c6b03a 	or	r3,r16,r3
    5010:	dfc00417 	ldw	ra,16(sp)
    5014:	dcc00317 	ldw	r19,12(sp)
    5018:	dc800217 	ldw	r18,8(sp)
    501c:	dc400117 	ldw	r17,4(sp)
    5020:	dc000017 	ldw	r16,0(sp)
    5024:	dec00504 	addi	sp,sp,20
    5028:	f800283a 	ret
    502c:	0081ffc4 	movi	r2,2047
    5030:	80bfd626 	beq	r16,r2,4f8c <__alt_mem_Flash_flash_data+0xf4004f8c>
    5034:	42002034 	orhi	r8,r8,128
    5038:	00800e04 	movi	r2,56
    503c:	10c0a616 	blt	r2,r3,52d8 <__adddf3+0x3c8>
    5040:	008007c4 	movi	r2,31
    5044:	10c0c916 	blt	r2,r3,536c <__adddf3+0x45c>
    5048:	00800804 	movi	r2,32
    504c:	10c5c83a 	sub	r2,r2,r3
    5050:	408e983a 	sll	r7,r8,r2
    5054:	30c8d83a 	srl	r4,r6,r3
    5058:	3084983a 	sll	r2,r6,r2
    505c:	40c6d83a 	srl	r3,r8,r3
    5060:	390cb03a 	or	r6,r7,r4
    5064:	1004c03a 	cmpne	r2,r2,zero
    5068:	308cb03a 	or	r6,r6,r2
    506c:	898dc83a 	sub	r6,r17,r6
    5070:	89a3803a 	cmpltu	r17,r17,r6
    5074:	28cbc83a 	sub	r5,r5,r3
    5078:	2c4bc83a 	sub	r5,r5,r17
    507c:	3023883a 	mov	r17,r6
    5080:	2880202c 	andhi	r2,r5,128
    5084:	10006d26 	beq	r2,zero,523c <__adddf3+0x32c>
    5088:	04c02034 	movhi	r19,128
    508c:	9cffffc4 	addi	r19,r19,-1
    5090:	2ce6703a 	and	r19,r5,r19
    5094:	98007e26 	beq	r19,zero,5290 <__adddf3+0x380>
    5098:	9809883a 	mov	r4,r19
    509c:	00075180 	call	7518 <__clzsi2>
    50a0:	10fffe04 	addi	r3,r2,-8
    50a4:	010007c4 	movi	r4,31
    50a8:	20c07f16 	blt	r4,r3,52a8 <__adddf3+0x398>
    50ac:	01400a04 	movi	r5,40
    50b0:	2885c83a 	sub	r2,r5,r2
    50b4:	888ad83a 	srl	r5,r17,r2
    50b8:	98e6983a 	sll	r19,r19,r3
    50bc:	88e2983a 	sll	r17,r17,r3
    50c0:	2ce6b03a 	or	r19,r5,r19
    50c4:	1c007c16 	blt	r3,r16,52b8 <__adddf3+0x3a8>
    50c8:	1c21c83a 	sub	r16,r3,r16
    50cc:	81400044 	addi	r5,r16,1
    50d0:	00c007c4 	movi	r3,31
    50d4:	19409816 	blt	r3,r5,5338 <__adddf3+0x428>
    50d8:	1c21c83a 	sub	r16,r3,r16
    50dc:	8c08983a 	sll	r4,r17,r16
    50e0:	8946d83a 	srl	r3,r17,r5
    50e4:	9c20983a 	sll	r16,r19,r16
    50e8:	2008c03a 	cmpne	r4,r4,zero
    50ec:	994ad83a 	srl	r5,r19,r5
    50f0:	1c06b03a 	or	r3,r3,r16
    50f4:	1922b03a 	or	r17,r3,r4
    50f8:	0021883a 	mov	r16,zero
    50fc:	003fa306 	br	4f8c <__alt_mem_Flash_flash_data+0xf4004f8c>
    5100:	2880202c 	andhi	r2,r5,128
    5104:	9007883a 	mov	r3,r18
    5108:	103fac1e 	bne	r2,zero,4fbc <__alt_mem_Flash_flash_data+0xf4004fbc>
    510c:	2804977a 	slli	r2,r5,29
    5110:	8822d0fa 	srli	r17,r17,3
    5114:	0101ffc4 	movi	r4,2047
    5118:	280ad0fa 	srli	r5,r5,3
    511c:	1444b03a 	or	r2,r2,r17
    5120:	81002c26 	beq	r16,r4,51d4 <__adddf3+0x2c4>
    5124:	8120703a 	and	r16,r16,r4
    5128:	01000434 	movhi	r4,16
    512c:	213fffc4 	addi	r4,r4,-1
    5130:	2908703a 	and	r4,r5,r4
    5134:	003fad06 	br	4fec <__alt_mem_Flash_flash_data+0xf4004fec>
    5138:	8089c83a 	sub	r4,r16,r2
    513c:	01006a0e 	bge	zero,r4,52e8 <__adddf3+0x3d8>
    5140:	10003326 	beq	r2,zero,5210 <__adddf3+0x300>
    5144:	0081ffc4 	movi	r2,2047
    5148:	80bf9026 	beq	r16,r2,4f8c <__alt_mem_Flash_flash_data+0xf4004f8c>
    514c:	42002034 	orhi	r8,r8,128
    5150:	00800e04 	movi	r2,56
    5154:	1100b116 	blt	r2,r4,541c <__adddf3+0x50c>
    5158:	008007c4 	movi	r2,31
    515c:	1100e216 	blt	r2,r4,54e8 <__adddf3+0x5d8>
    5160:	00800804 	movi	r2,32
    5164:	1105c83a 	sub	r2,r2,r4
    5168:	4092983a 	sll	r9,r8,r2
    516c:	310ed83a 	srl	r7,r6,r4
    5170:	3084983a 	sll	r2,r6,r2
    5174:	4110d83a 	srl	r8,r8,r4
    5178:	49ccb03a 	or	r6,r9,r7
    517c:	1004c03a 	cmpne	r2,r2,zero
    5180:	308cb03a 	or	r6,r6,r2
    5184:	344d883a 	add	r6,r6,r17
    5188:	3463803a 	cmpltu	r17,r6,r17
    518c:	414b883a 	add	r5,r8,r5
    5190:	2c4b883a 	add	r5,r5,r17
    5194:	3023883a 	mov	r17,r6
    5198:	2880202c 	andhi	r2,r5,128
    519c:	10002726 	beq	r2,zero,523c <__adddf3+0x32c>
    51a0:	84000044 	addi	r16,r16,1
    51a4:	0081ffc4 	movi	r2,2047
    51a8:	8080ae26 	beq	r16,r2,5464 <__adddf3+0x554>
    51ac:	00bfe034 	movhi	r2,65408
    51b0:	10bfffc4 	addi	r2,r2,-1
    51b4:	288a703a 	and	r5,r5,r2
    51b8:	880cd07a 	srli	r6,r17,1
    51bc:	280897fa 	slli	r4,r5,31
    51c0:	88c0004c 	andi	r3,r17,1
    51c4:	30e2b03a 	or	r17,r6,r3
    51c8:	280ad07a 	srli	r5,r5,1
    51cc:	8922b03a 	or	r17,r17,r4
    51d0:	003f6e06 	br	4f8c <__alt_mem_Flash_flash_data+0xf4004f8c>
    51d4:	1148b03a 	or	r4,r2,r5
    51d8:	20003c26 	beq	r4,zero,52cc <__adddf3+0x3bc>
    51dc:	29000234 	orhi	r4,r5,8
    51e0:	01400434 	movhi	r5,16
    51e4:	297fffc4 	addi	r5,r5,-1
    51e8:	2148703a 	and	r4,r4,r5
    51ec:	003f7f06 	br	4fec <__alt_mem_Flash_flash_data+0xf4004fec>
    51f0:	18ffffc4 	addi	r3,r3,-1
    51f4:	18004d1e 	bne	r3,zero,532c <__adddf3+0x41c>
    51f8:	898dc83a 	sub	r6,r17,r6
    51fc:	89a3803a 	cmpltu	r17,r17,r6
    5200:	2a0bc83a 	sub	r5,r5,r8
    5204:	2c4bc83a 	sub	r5,r5,r17
    5208:	3023883a 	mov	r17,r6
    520c:	003f9c06 	br	5080 <__alt_mem_Flash_flash_data+0xf4005080>
    5210:	4184b03a 	or	r2,r8,r6
    5214:	103f5d26 	beq	r2,zero,4f8c <__alt_mem_Flash_flash_data+0xf4004f8c>
    5218:	213fffc4 	addi	r4,r4,-1
    521c:	203fd926 	beq	r4,zero,5184 <__alt_mem_Flash_flash_data+0xf4005184>
    5220:	0081ffc4 	movi	r2,2047
    5224:	80bfca1e 	bne	r16,r2,5150 <__alt_mem_Flash_flash_data+0xf4005150>
    5228:	003f5806 	br	4f8c <__alt_mem_Flash_flash_data+0xf4004f8c>
    522c:	10c8b03a 	or	r4,r2,r3
    5230:	20008b26 	beq	r4,zero,5460 <__adddf3+0x550>
    5234:	100b883a 	mov	r5,r2
    5238:	1823883a 	mov	r17,r3
    523c:	888001cc 	andi	r2,r17,7
    5240:	103f541e 	bne	r2,zero,4f94 <__alt_mem_Flash_flash_data+0xf4004f94>
    5244:	9007883a 	mov	r3,r18
    5248:	003fb006 	br	510c <__alt_mem_Flash_flash_data+0xf400510c>
    524c:	1800531e 	bne	r3,zero,539c <__adddf3+0x48c>
    5250:	80800044 	addi	r2,r16,1
    5254:	1081ffcc 	andi	r2,r2,2047
    5258:	00c00044 	movi	r3,1
    525c:	1880990e 	bge	r3,r2,54c4 <__adddf3+0x5b4>
    5260:	8985c83a 	sub	r2,r17,r6
    5264:	8887803a 	cmpltu	r3,r17,r2
    5268:	2a27c83a 	sub	r19,r5,r8
    526c:	98e7c83a 	sub	r19,r19,r3
    5270:	98c0202c 	andhi	r3,r19,128
    5274:	18006226 	beq	r3,zero,5400 <__adddf3+0x4f0>
    5278:	3463c83a 	sub	r17,r6,r17
    527c:	4151c83a 	sub	r8,r8,r5
    5280:	344d803a 	cmpltu	r6,r6,r17
    5284:	41a7c83a 	sub	r19,r8,r6
    5288:	3825883a 	mov	r18,r7
    528c:	983f821e 	bne	r19,zero,5098 <__alt_mem_Flash_flash_data+0xf4005098>
    5290:	8809883a 	mov	r4,r17
    5294:	00075180 	call	7518 <__clzsi2>
    5298:	10800804 	addi	r2,r2,32
    529c:	10fffe04 	addi	r3,r2,-8
    52a0:	010007c4 	movi	r4,31
    52a4:	20ff810e 	bge	r4,r3,50ac <__alt_mem_Flash_flash_data+0xf40050ac>
    52a8:	14fff604 	addi	r19,r2,-40
    52ac:	8ce6983a 	sll	r19,r17,r19
    52b0:	0023883a 	mov	r17,zero
    52b4:	1c3f840e 	bge	r3,r16,50c8 <__alt_mem_Flash_flash_data+0xf40050c8>
    52b8:	017fe034 	movhi	r5,65408
    52bc:	297fffc4 	addi	r5,r5,-1
    52c0:	80e1c83a 	sub	r16,r16,r3
    52c4:	994a703a 	and	r5,r19,r5
    52c8:	003f3006 	br	4f8c <__alt_mem_Flash_flash_data+0xf4004f8c>
    52cc:	0009883a 	mov	r4,zero
    52d0:	0005883a 	mov	r2,zero
    52d4:	003f4506 	br	4fec <__alt_mem_Flash_flash_data+0xf4004fec>
    52d8:	418cb03a 	or	r6,r8,r6
    52dc:	300cc03a 	cmpne	r6,r6,zero
    52e0:	0007883a 	mov	r3,zero
    52e4:	003f6106 	br	506c <__alt_mem_Flash_flash_data+0xf400506c>
    52e8:	2000921e 	bne	r4,zero,5534 <__adddf3+0x624>
    52ec:	80800044 	addi	r2,r16,1
    52f0:	11c1ffcc 	andi	r7,r2,2047
    52f4:	01000044 	movi	r4,1
    52f8:	21c0610e 	bge	r4,r7,5480 <__adddf3+0x570>
    52fc:	0101ffc4 	movi	r4,2047
    5300:	1100a326 	beq	r2,r4,5590 <__adddf3+0x680>
    5304:	344d883a 	add	r6,r6,r17
    5308:	3463803a 	cmpltu	r17,r6,r17
    530c:	414b883a 	add	r5,r8,r5
    5310:	2c4b883a 	add	r5,r5,r17
    5314:	282297fa 	slli	r17,r5,31
    5318:	300cd07a 	srli	r6,r6,1
    531c:	280ad07a 	srli	r5,r5,1
    5320:	1021883a 	mov	r16,r2
    5324:	89a2b03a 	or	r17,r17,r6
    5328:	003f1806 	br	4f8c <__alt_mem_Flash_flash_data+0xf4004f8c>
    532c:	0081ffc4 	movi	r2,2047
    5330:	80bf411e 	bne	r16,r2,5038 <__alt_mem_Flash_flash_data+0xf4005038>
    5334:	003f1506 	br	4f8c <__alt_mem_Flash_flash_data+0xf4004f8c>
    5338:	80bff844 	addi	r2,r16,-31
    533c:	00c00804 	movi	r3,32
    5340:	9884d83a 	srl	r2,r19,r2
    5344:	28c04a26 	beq	r5,r3,5470 <__adddf3+0x560>
    5348:	00c00fc4 	movi	r3,63
    534c:	1c21c83a 	sub	r16,r3,r16
    5350:	9c26983a 	sll	r19,r19,r16
    5354:	9c62b03a 	or	r17,r19,r17
    5358:	8822c03a 	cmpne	r17,r17,zero
    535c:	88a2b03a 	or	r17,r17,r2
    5360:	000b883a 	mov	r5,zero
    5364:	0021883a 	mov	r16,zero
    5368:	003fb406 	br	523c <__alt_mem_Flash_flash_data+0xf400523c>
    536c:	18bff804 	addi	r2,r3,-32
    5370:	01000804 	movi	r4,32
    5374:	4084d83a 	srl	r2,r8,r2
    5378:	19003f26 	beq	r3,r4,5478 <__adddf3+0x568>
    537c:	01001004 	movi	r4,64
    5380:	20c7c83a 	sub	r3,r4,r3
    5384:	40d0983a 	sll	r8,r8,r3
    5388:	418cb03a 	or	r6,r8,r6
