Archive member included to satisfy reference by file (symbol)

c:/altera_lite/15.1/nios2eds/bin/gnu/h-x86_64-mingw32/bin/../lib/gcc/nios2-elf/4.9.2/../../../../../H-x86_64-mingw32/nios2-elf/lib/mhw-mulx\libm.a(lib_a-s_cos.o)
                              obj/default/hello_ucosii.o (cos)
c:/altera_lite/15.1/nios2eds/bin/gnu/h-x86_64-mingw32/bin/../lib/gcc/nios2-elf/4.9.2/../../../../../H-x86_64-mingw32/nios2-elf/lib/mhw-mulx\libm.a(lib_a-s_sin.o)
                              obj/default/hello_ucosii.o (sin)
c:/altera_lite/15.1/nios2eds/bin/gnu/h-x86_64-mingw32/bin/../lib/gcc/nios2-elf/4.9.2/../../../../../H-x86_64-mingw32/nios2-elf/lib/mhw-mulx\libm.a(lib_a-e_rem_pio2.o)
                              c:/altera_lite/15.1/nios2eds/bin/gnu/h-x86_64-mingw32/bin/../lib/gcc/nios2-elf/4.9.2/../../../../../H-x86_64-mingw32/nios2-elf/lib/mhw-mulx\libm.a(lib_a-s_cos.o) (__ieee754_rem_pio2)
c:/altera_lite/15.1/nios2eds/bin/gnu/h-x86_64-mingw32/bin/../lib/gcc/nios2-elf/4.9.2/../../../../../H-x86_64-mingw32/nios2-elf/lib/mhw-mulx\libm.a(lib_a-k_cos.o)
                              c:/altera_lite/15.1/nios2eds/bin/gnu/h-x86_64-mingw32/bin/../lib/gcc/nios2-elf/4.9.2/../../../../../H-x86_64-mingw32/nios2-elf/lib/mhw-mulx\libm.a(lib_a-s_cos.o) (__kernel_cos)
c:/altera_lite/15.1/nios2eds/bin/gnu/h-x86_64-mingw32/bin/../lib/gcc/nios2-elf/4.9.2/../../../../../H-x86_64-mingw32/nios2-elf/lib/mhw-mulx\libm.a(lib_a-k_rem_pio2.o)
                              c:/altera_lite/15.1/nios2eds/bin/gnu/h-x86_64-mingw32/bin/../lib/gcc/nios2-elf/4.9.2/../../../../../H-x86_64-mingw32/nios2-elf/lib/mhw-mulx\libm.a(lib_a-e_rem_pio2.o) (__kernel_rem_pio2)
c:/altera_lite/15.1/nios2eds/bin/gnu/h-x86_64-mingw32/bin/../lib/gcc/nios2-elf/4.9.2/../../../../../H-x86_64-mingw32/nios2-elf/lib/mhw-mulx\libm.a(lib_a-k_sin.o)
                              c:/altera_lite/15.1/nios2eds/bin/gnu/h-x86_64-mingw32/bin/../lib/gcc/nios2-elf/4.9.2/../../../../../H-x86_64-mingw32/nios2-elf/lib/mhw-mulx\libm.a(lib_a-s_cos.o) (__kernel_sin)
c:/altera_lite/15.1/nios2eds/bin/gnu/h-x86_64-mingw32/bin/../lib/gcc/nios2-elf/4.9.2/../../../../../H-x86_64-mingw32/nios2-elf/lib/mhw-mulx\libm.a(lib_a-s_fabs.o)
                              c:/altera_lite/15.1/nios2eds/bin/gnu/h-x86_64-mingw32/bin/../lib/gcc/nios2-elf/4.9.2/../../../../../H-x86_64-mingw32/nios2-elf/lib/mhw-mulx\libm.a(lib_a-e_rem_pio2.o) (fabs)
c:/altera_lite/15.1/nios2eds/bin/gnu/h-x86_64-mingw32/bin/../lib/gcc/nios2-elf/4.9.2/../../../../../H-x86_64-mingw32/nios2-elf/lib/mhw-mulx\libm.a(lib_a-s_floor.o)
                              c:/altera_lite/15.1/nios2eds/bin/gnu/h-x86_64-mingw32/bin/../lib/gcc/nios2-elf/4.9.2/../../../../../H-x86_64-mingw32/nios2-elf/lib/mhw-mulx\libm.a(lib_a-k_rem_pio2.o) (floor)
c:/altera_lite/15.1/nios2eds/bin/gnu/h-x86_64-mingw32/bin/../lib/gcc/nios2-elf/4.9.2/../../../../../H-x86_64-mingw32/nios2-elf/lib/mhw-mulx\libm.a(lib_a-s_scalbn.o)
                              c:/altera_lite/15.1/nios2eds/bin/gnu/h-x86_64-mingw32/bin/../lib/gcc/nios2-elf/4.9.2/../../../../../H-x86_64-mingw32/nios2-elf/lib/mhw-mulx\libm.a(lib_a-k_rem_pio2.o) (scalbn)
c:/altera_lite/15.1/nios2eds/bin/gnu/h-x86_64-mingw32/bin/../lib/gcc/nios2-elf/4.9.2/../../../../../H-x86_64-mingw32/nios2-elf/lib/mhw-mulx\libm.a(lib_a-s_copysign.o)
                              c:/altera_lite/15.1/nios2eds/bin/gnu/h-x86_64-mingw32/bin/../lib/gcc/nios2-elf/4.9.2/../../../../../H-x86_64-mingw32/nios2-elf/lib/mhw-mulx\libm.a(lib_a-s_scalbn.o) (copysign)
c:/altera_lite/15.1/nios2eds/bin/gnu/h-x86_64-mingw32/bin/../lib/gcc/nios2-elf/4.9.2/mhw-mulx\libgcc.a(lib2-divmod.o)
                              c:/altera_lite/15.1/nios2eds/bin/gnu/h-x86_64-mingw32/bin/../lib/gcc/nios2-elf/4.9.2/../../../../../H-x86_64-mingw32/nios2-elf/lib/mhw-mulx\libm.a(lib_a-k_rem_pio2.o) (__divsi3)
c:/altera_lite/15.1/nios2eds/bin/gnu/h-x86_64-mingw32/bin/../lib/gcc/nios2-elf/4.9.2/mhw-mulx\libgcc.a(floatsisf.o)
                              obj/default/hello_ucosii.o (__floatsisf)
c:/altera_lite/15.1/nios2eds/bin/gnu/h-x86_64-mingw32/bin/../lib/gcc/nios2-elf/4.9.2/mhw-mulx\libgcc.a(adddf3.o)
                              obj/default/hello_ucosii.o (__adddf3)
c:/altera_lite/15.1/nios2eds/bin/gnu/h-x86_64-mingw32/bin/../lib/gcc/nios2-elf/4.9.2/mhw-mulx\libgcc.a(divdf3.o)
                              obj/default/hello_ucosii.o (__divdf3)
c:/altera_lite/15.1/nios2eds/bin/gnu/h-x86_64-mingw32/bin/../lib/gcc/nios2-elf/4.9.2/mhw-mulx\libgcc.a(eqdf2.o)
                              obj/default/hello_ucosii.o (__eqdf2)
c:/altera_lite/15.1/nios2eds/bin/gnu/h-x86_64-mingw32/bin/../lib/gcc/nios2-elf/4.9.2/mhw-mulx\libgcc.a(gedf2.o)
                              c:/altera_lite/15.1/nios2eds/bin/gnu/h-x86_64-mingw32/bin/../lib/gcc/nios2-elf/4.9.2/../../../../../H-x86_64-mingw32/nios2-elf/lib/mhw-mulx\libm.a(lib_a-k_rem_pio2.o) (__gedf2)
c:/altera_lite/15.1/nios2eds/bin/gnu/h-x86_64-mingw32/bin/../lib/gcc/nios2-elf/4.9.2/mhw-mulx\libgcc.a(ledf2.o)
                              obj/default/hello_ucosii.o (__ledf2)
c:/altera_lite/15.1/nios2eds/bin/gnu/h-x86_64-mingw32/bin/../lib/gcc/nios2-elf/4.9.2/mhw-mulx\libgcc.a(muldf3.o)
                              obj/default/hello_ucosii.o (__muldf3)
c:/altera_lite/15.1/nios2eds/bin/gnu/h-x86_64-mingw32/bin/../lib/gcc/nios2-elf/4.9.2/mhw-mulx\libgcc.a(subdf3.o)
                              obj/default/hello_ucosii.o (__subdf3)
c:/altera_lite/15.1/nios2eds/bin/gnu/h-x86_64-mingw32/bin/../lib/gcc/nios2-elf/4.9.2/mhw-mulx\libgcc.a(fixdfsi.o)
                              obj/default/hello_ucosii.o (__fixdfsi)
c:/altera_lite/15.1/nios2eds/bin/gnu/h-x86_64-mingw32/bin/../lib/gcc/nios2-elf/4.9.2/mhw-mulx\libgcc.a(floatsidf.o)
                              obj/default/hello_ucosii.o (__floatsidf)
c:/altera_lite/15.1/nios2eds/bin/gnu/h-x86_64-mingw32/bin/../lib/gcc/nios2-elf/4.9.2/mhw-mulx\libgcc.a(extendsfdf2.o)
                              obj/default/hello_ucosii.o (__extendsfdf2)
c:/altera_lite/15.1/nios2eds/bin/gnu/h-x86_64-mingw32/bin/../lib/gcc/nios2-elf/4.9.2/mhw-mulx\libgcc.a(_clzsi2.o)
                              c:/altera_lite/15.1/nios2eds/bin/gnu/h-x86_64-mingw32/bin/../lib/gcc/nios2-elf/4.9.2/mhw-mulx\libgcc.a(floatsisf.o) (__clzsi2)
c:/altera_lite/15.1/nios2eds/bin/gnu/h-x86_64-mingw32/bin/../lib/gcc/nios2-elf/4.9.2/mhw-mulx\libgcc.a(_clz.o)
                              c:/altera_lite/15.1/nios2eds/bin/gnu/h-x86_64-mingw32/bin/../lib/gcc/nios2-elf/4.9.2/mhw-mulx\libgcc.a(_clzsi2.o) (__clz_tab)
c:/altera_lite/15.1/nios2eds/bin/gnu/h-x86_64-mingw32/bin/../lib/gcc/nios2-elf/4.9.2/../../../../../H-x86_64-mingw32/nios2-elf/lib/mhw-mulx\libc.a(lib_a-memcpy.o)
                              obj/default/hello_ucosii.o (memcpy)
c:/altera_lite/15.1/nios2eds/bin/gnu/h-x86_64-mingw32/bin/../lib/gcc/nios2-elf/4.9.2/../../../../../H-x86_64-mingw32/nios2-elf/lib/mhw-mulx\libc.a(lib_a-sprintf.o)
                              obj/default/hello_ucosii.o (sprintf)
c:/altera_lite/15.1/nios2eds/bin/gnu/h-x86_64-mingw32/bin/../lib/gcc/nios2-elf/4.9.2/../../../../../H-x86_64-mingw32/nios2-elf/lib/mhw-mulx\libc.a(lib_a-svfprintf.o)
                              c:/altera_lite/15.1/nios2eds/bin/gnu/h-x86_64-mingw32/bin/../lib/gcc/nios2-elf/4.9.2/../../../../../H-x86_64-mingw32/nios2-elf/lib/mhw-mulx\libc.a(lib_a-sprintf.o) (___svfprintf_internal_r)
c:/altera_lite/15.1/nios2eds/bin/gnu/h-x86_64-mingw32/bin/../lib/gcc/nios2-elf/4.9.2/../../../../../H-x86_64-mingw32/nios2-elf/lib/mhw-mulx\libc.a(lib_a-dtoa.o)
                              c:/altera_lite/15.1/nios2eds/bin/gnu/h-x86_64-mingw32/bin/../lib/gcc/nios2-elf/4.9.2/../../../../../H-x86_64-mingw32/nios2-elf/lib/mhw-mulx\libc.a(lib_a-svfprintf.o) (_dtoa_r)
c:/altera_lite/15.1/nios2eds/bin/gnu/h-x86_64-mingw32/bin/../lib/gcc/nios2-elf/4.9.2/../../../../../H-x86_64-mingw32/nios2-elf/lib/mhw-mulx\libc.a(lib_a-impure.o)
                              c:/altera_lite/15.1/nios2eds/bin/gnu/h-x86_64-mingw32/bin/../lib/gcc/nios2-elf/4.9.2/../../../../../H-x86_64-mingw32/nios2-elf/lib/mhw-mulx\libc.a(lib_a-sprintf.o) (_impure_ptr)
c:/altera_lite/15.1/nios2eds/bin/gnu/h-x86_64-mingw32/bin/../lib/gcc/nios2-elf/4.9.2/../../../../../H-x86_64-mingw32/nios2-elf/lib/mhw-mulx\libc.a(lib_a-locale.o)
                              c:/altera_lite/15.1/nios2eds/bin/gnu/h-x86_64-mingw32/bin/../lib/gcc/nios2-elf/4.9.2/../../../../../H-x86_64-mingw32/nios2-elf/lib/mhw-mulx\libc.a(lib_a-svfprintf.o) (_localeconv_r)
c:/altera_lite/15.1/nios2eds/bin/gnu/h-x86_64-mingw32/bin/../lib/gcc/nios2-elf/4.9.2/../../../../../H-x86_64-mingw32/nios2-elf/lib/mhw-mulx\libc.a(lib_a-mallocr.o)
                              c:/altera_lite/15.1/nios2eds/bin/gnu/h-x86_64-mingw32/bin/../lib/gcc/nios2-elf/4.9.2/../../../../../H-x86_64-mingw32/nios2-elf/lib/mhw-mulx\libc.a(lib_a-svfprintf.o) (_malloc_r)
c:/altera_lite/15.1/nios2eds/bin/gnu/h-x86_64-mingw32/bin/../lib/gcc/nios2-elf/4.9.2/../../../../../H-x86_64-mingw32/nios2-elf/lib/mhw-mulx\libc.a(lib_a-memchr.o)
                              c:/altera_lite/15.1/nios2eds/bin/gnu/h-x86_64-mingw32/bin/../lib/gcc/nios2-elf/4.9.2/../../../../../H-x86_64-mingw32/nios2-elf/lib/mhw-mulx\libc.a(lib_a-svfprintf.o) (memchr)
c:/altera_lite/15.1/nios2eds/bin/gnu/h-x86_64-mingw32/bin/../lib/gcc/nios2-elf/4.9.2/../../../../../H-x86_64-mingw32/nios2-elf/lib/mhw-mulx\libc.a(lib_a-mprec.o)
                              c:/altera_lite/15.1/nios2eds/bin/gnu/h-x86_64-mingw32/bin/../lib/gcc/nios2-elf/4.9.2/../../../../../H-x86_64-mingw32/nios2-elf/lib/mhw-mulx\libc.a(lib_a-dtoa.o) (_Balloc)
c:/altera_lite/15.1/nios2eds/bin/gnu/h-x86_64-mingw32/bin/../lib/gcc/nios2-elf/4.9.2/../../../../../H-x86_64-mingw32/nios2-elf/lib/mhw-mulx\libc.a(lib_a-s_fpclassify.o)
                              c:/altera_lite/15.1/nios2eds/bin/gnu/h-x86_64-mingw32/bin/../lib/gcc/nios2-elf/4.9.2/../../../../../H-x86_64-mingw32/nios2-elf/lib/mhw-mulx\libc.a(lib_a-svfprintf.o) (__fpclassifyd)
c:/altera_lite/15.1/nios2eds/bin/gnu/h-x86_64-mingw32/bin/../lib/gcc/nios2-elf/4.9.2/../../../../../H-x86_64-mingw32/nios2-elf/lib/mhw-mulx\libc.a(lib_a-sbrkr.o)
                              c:/altera_lite/15.1/nios2eds/bin/gnu/h-x86_64-mingw32/bin/../lib/gcc/nios2-elf/4.9.2/../../../../../H-x86_64-mingw32/nios2-elf/lib/mhw-mulx\libc.a(lib_a-mallocr.o) (_sbrk_r)
c:/altera_lite/15.1/nios2eds/bin/gnu/h-x86_64-mingw32/bin/../lib/gcc/nios2-elf/4.9.2/../../../../../H-x86_64-mingw32/nios2-elf/lib/mhw-mulx\libc.a(lib_a-strcmp.o)
                              c:/altera_lite/15.1/nios2eds/bin/gnu/h-x86_64-mingw32/bin/../lib/gcc/nios2-elf/4.9.2/../../../../../H-x86_64-mingw32/nios2-elf/lib/mhw-mulx\libc.a(lib_a-locale.o) (strcmp)
c:/altera_lite/15.1/nios2eds/bin/gnu/h-x86_64-mingw32/bin/../lib/gcc/nios2-elf/4.9.2/../../../../../H-x86_64-mingw32/nios2-elf/lib/mhw-mulx\libc.a(lib_a-strlen.o)
                              c:/altera_lite/15.1/nios2eds/bin/gnu/h-x86_64-mingw32/bin/../lib/gcc/nios2-elf/4.9.2/../../../../../H-x86_64-mingw32/nios2-elf/lib/mhw-mulx\libc.a(lib_a-svfprintf.o) (strlen)
c:/altera_lite/15.1/nios2eds/bin/gnu/h-x86_64-mingw32/bin/../lib/gcc/nios2-elf/4.9.2/../../../../../H-x86_64-mingw32/nios2-elf/lib/mhw-mulx\libc.a(lib_a-svfiprintf.o)
                              c:/altera_lite/15.1/nios2eds/bin/gnu/h-x86_64-mingw32/bin/../lib/gcc/nios2-elf/4.9.2/../../../../../H-x86_64-mingw32/nios2-elf/lib/mhw-mulx\libc.a(lib_a-svfprintf.o) (__ssprint_r)
c:/altera_lite/15.1/nios2eds/bin/gnu/h-x86_64-mingw32/bin/../lib/gcc/nios2-elf/4.9.2/../../../../../H-x86_64-mingw32/nios2-elf/lib/mhw-mulx\libc.a(lib_a-callocr.o)
                              c:/altera_lite/15.1/nios2eds/bin/gnu/h-x86_64-mingw32/bin/../lib/gcc/nios2-elf/4.9.2/../../../../../H-x86_64-mingw32/nios2-elf/lib/mhw-mulx\libc.a(lib_a-mprec.o) (_calloc_r)
c:/altera_lite/15.1/nios2eds/bin/gnu/h-x86_64-mingw32/bin/../lib/gcc/nios2-elf/4.9.2/../../../../../H-x86_64-mingw32/nios2-elf/lib/mhw-mulx\libc.a(lib_a-freer.o)
                              c:/altera_lite/15.1/nios2eds/bin/gnu/h-x86_64-mingw32/bin/../lib/gcc/nios2-elf/4.9.2/../../../../../H-x86_64-mingw32/nios2-elf/lib/mhw-mulx\libc.a(lib_a-mallocr.o) (_free_r)
c:/altera_lite/15.1/nios2eds/bin/gnu/h-x86_64-mingw32/bin/../lib/gcc/nios2-elf/4.9.2/../../../../../H-x86_64-mingw32/nios2-elf/lib/mhw-mulx\libc.a(lib_a-int_errno.o)
                              c:/altera_lite/15.1/nios2eds/bin/gnu/h-x86_64-mingw32/bin/../lib/gcc/nios2-elf/4.9.2/../../../../../H-x86_64-mingw32/nios2-elf/lib/mhw-mulx\libc.a(lib_a-sbrkr.o) (errno)
c:/altera_lite/15.1/nios2eds/bin/gnu/h-x86_64-mingw32/bin/../lib/gcc/nios2-elf/4.9.2/../../../../../H-x86_64-mingw32/nios2-elf/lib/mhw-mulx\libc.a(lib_a-memmove.o)
                              c:/altera_lite/15.1/nios2eds/bin/gnu/h-x86_64-mingw32/bin/../lib/gcc/nios2-elf/4.9.2/../../../../../H-x86_64-mingw32/nios2-elf/lib/mhw-mulx\libc.a(lib_a-svfiprintf.o) (memmove)
c:/altera_lite/15.1/nios2eds/bin/gnu/h-x86_64-mingw32/bin/../lib/gcc/nios2-elf/4.9.2/../../../../../H-x86_64-mingw32/nios2-elf/lib/mhw-mulx\libc.a(lib_a-memset.o)
                              c:/altera_lite/15.1/nios2eds/bin/gnu/h-x86_64-mingw32/bin/../lib/gcc/nios2-elf/4.9.2/../../../../../H-x86_64-mingw32/nios2-elf/lib/mhw-mulx\libc.a(lib_a-callocr.o) (memset)
c:/altera_lite/15.1/nios2eds/bin/gnu/h-x86_64-mingw32/bin/../lib/gcc/nios2-elf/4.9.2/../../../../../H-x86_64-mingw32/nios2-elf/lib/mhw-mulx\libc.a(lib_a-reallocr.o)
                              c:/altera_lite/15.1/nios2eds/bin/gnu/h-x86_64-mingw32/bin/../lib/gcc/nios2-elf/4.9.2/../../../../../H-x86_64-mingw32/nios2-elf/lib/mhw-mulx\libc.a(lib_a-svfiprintf.o) (_realloc_r)
c:/altera_lite/15.1/nios2eds/bin/gnu/h-x86_64-mingw32/bin/../lib/gcc/nios2-elf/4.9.2/mhw-mulx\libgcc.a(_udivdi3.o)
                              c:/altera_lite/15.1/nios2eds/bin/gnu/h-x86_64-mingw32/bin/../lib/gcc/nios2-elf/4.9.2/../../../../../H-x86_64-mingw32/nios2-elf/lib/mhw-mulx\libc.a(lib_a-svfprintf.o) (__udivdi3)
c:/altera_lite/15.1/nios2eds/bin/gnu/h-x86_64-mingw32/bin/../lib/gcc/nios2-elf/4.9.2/mhw-mulx\libgcc.a(_umoddi3.o)
                              c:/altera_lite/15.1/nios2eds/bin/gnu/h-x86_64-mingw32/bin/../lib/gcc/nios2-elf/4.9.2/../../../../../H-x86_64-mingw32/nios2-elf/lib/mhw-mulx\libc.a(lib_a-svfprintf.o) (__umoddi3)
c:/altera_lite/15.1/nios2eds/bin/gnu/h-x86_64-mingw32/bin/../lib/gcc/nios2-elf/4.9.2/mhw-mulx\libgcc.a(floatunsidf.o)
                              c:/altera_lite/15.1/nios2eds/bin/gnu/h-x86_64-mingw32/bin/../lib/gcc/nios2-elf/4.9.2/../../../../../H-x86_64-mingw32/nios2-elf/lib/mhw-mulx\libc.a(lib_a-dtoa.o) (__floatunsidf)
C:/Users/Eldin/Documents/GitHub/Neon3D/FPGA/Software/Neon3DSoftware_bsp/\libucosii_bsp.a(alt_load.o)
                              C:/Users/Eldin/Documents/GitHub/Neon3D/FPGA/Software/Neon3DSoftware_bsp//obj/HAL/src/crt0.o (alt_load)
C:/Users/Eldin/Documents/GitHub/Neon3D/FPGA/Software/Neon3DSoftware_bsp/\libucosii_bsp.a(alt_main.o)
                              C:/Users/Eldin/Documents/GitHub/Neon3D/FPGA/Software/Neon3DSoftware_bsp//obj/HAL/src/crt0.o (alt_main)
C:/Users/Eldin/Documents/GitHub/Neon3D/FPGA/Software/Neon3DSoftware_bsp/\libucosii_bsp.a(alt_sbrk.o)
                              c:/altera_lite/15.1/nios2eds/bin/gnu/h-x86_64-mingw32/bin/../lib/gcc/nios2-elf/4.9.2/../../../../../H-x86_64-mingw32/nios2-elf/lib/mhw-mulx\libc.a(lib_a-sbrkr.o) (sbrk)
C:/Users/Eldin/Documents/GitHub/Neon3D/FPGA/Software/Neon3DSoftware_bsp/\libucosii_bsp.a(alt_env_lock.o)
                              C:/Users/Eldin/Documents/GitHub/Neon3D/FPGA/Software/Neon3DSoftware_bsp/\libucosii_bsp.a(alt_main.o) (alt_envsem)
C:/Users/Eldin/Documents/GitHub/Neon3D/FPGA/Software/Neon3DSoftware_bsp/\libucosii_bsp.a(alt_malloc_lock.o)
                              C:/Users/Eldin/Documents/GitHub/Neon3D/FPGA/Software/Neon3DSoftware_bsp/\libucosii_bsp.a(alt_main.o) (alt_heapsem)
C:/Users/Eldin/Documents/GitHub/Neon3D/FPGA/Software/Neon3DSoftware_bsp/\libucosii_bsp.a(os_core.o)
                              C:/Users/Eldin/Documents/GitHub/Neon3D/FPGA/Software/Neon3DSoftware_bsp/\libucosii_bsp.a(alt_malloc_lock.o) (OSRunning)
C:/Users/Eldin/Documents/GitHub/Neon3D/FPGA/Software/Neon3DSoftware_bsp/\libucosii_bsp.a(os_dbg.o)
                              C:/Users/Eldin/Documents/GitHub/Neon3D/FPGA/Software/Neon3DSoftware_bsp/\libucosii_bsp.a(os_core.o) (OSDebugInit)
C:/Users/Eldin/Documents/GitHub/Neon3D/FPGA/Software/Neon3DSoftware_bsp/\libucosii_bsp.a(os_flag.o)
                              C:/Users/Eldin/Documents/GitHub/Neon3D/FPGA/Software/Neon3DSoftware_bsp/\libucosii_bsp.a(os_core.o) (OS_FlagInit)
C:/Users/Eldin/Documents/GitHub/Neon3D/FPGA/Software/Neon3DSoftware_bsp/\libucosii_bsp.a(os_mem.o)
                              C:/Users/Eldin/Documents/GitHub/Neon3D/FPGA/Software/Neon3DSoftware_bsp/\libucosii_bsp.a(os_core.o) (OS_MemInit)
C:/Users/Eldin/Documents/GitHub/Neon3D/FPGA/Software/Neon3DSoftware_bsp/\libucosii_bsp.a(os_q.o)
                              C:/Users/Eldin/Documents/GitHub/Neon3D/FPGA/Software/Neon3DSoftware_bsp/\libucosii_bsp.a(os_core.o) (OS_QInit)
C:/Users/Eldin/Documents/GitHub/Neon3D/FPGA/Software/Neon3DSoftware_bsp/\libucosii_bsp.a(os_sem.o)
                              C:/Users/Eldin/Documents/GitHub/Neon3D/FPGA/Software/Neon3DSoftware_bsp/\libucosii_bsp.a(alt_main.o) (OSSemCreate)
C:/Users/Eldin/Documents/GitHub/Neon3D/FPGA/Software/Neon3DSoftware_bsp/\libucosii_bsp.a(os_task.o)
                              C:/Users/Eldin/Documents/GitHub/Neon3D/FPGA/Software/Neon3DSoftware_bsp/\libucosii_bsp.a(os_core.o) (OSTaskCreateExt)
C:/Users/Eldin/Documents/GitHub/Neon3D/FPGA/Software/Neon3DSoftware_bsp/\libucosii_bsp.a(os_time.o)
                              C:/Users/Eldin/Documents/GitHub/Neon3D/FPGA/Software/Neon3DSoftware_bsp/\libucosii_bsp.a(os_core.o) (OSTimeDly)
C:/Users/Eldin/Documents/GitHub/Neon3D/FPGA/Software/Neon3DSoftware_bsp/\libucosii_bsp.a(alt_sys_init.o)
                              C:/Users/Eldin/Documents/GitHub/Neon3D/FPGA/Software/Neon3DSoftware_bsp/\libucosii_bsp.a(alt_main.o) (alt_irq_init)
C:/Users/Eldin/Documents/GitHub/Neon3D/FPGA/Software/Neon3DSoftware_bsp/\libucosii_bsp.a(altera_avalon_jtag_uart_fd.o)
                              C:/Users/Eldin/Documents/GitHub/Neon3D/FPGA/Software/Neon3DSoftware_bsp/\libucosii_bsp.a(alt_sys_init.o) (altera_avalon_jtag_uart_read_fd)
C:/Users/Eldin/Documents/GitHub/Neon3D/FPGA/Software/Neon3DSoftware_bsp/\libucosii_bsp.a(altera_avalon_jtag_uart_init.o)
                              C:/Users/Eldin/Documents/GitHub/Neon3D/FPGA/Software/Neon3DSoftware_bsp/\libucosii_bsp.a(alt_sys_init.o) (altera_avalon_jtag_uart_init)
C:/Users/Eldin/Documents/GitHub/Neon3D/FPGA/Software/Neon3DSoftware_bsp/\libucosii_bsp.a(altera_avalon_jtag_uart_ioctl.o)
                              C:/Users/Eldin/Documents/GitHub/Neon3D/FPGA/Software/Neon3DSoftware_bsp/\libucosii_bsp.a(altera_avalon_jtag_uart_fd.o) (altera_avalon_jtag_uart_ioctl)
C:/Users/Eldin/Documents/GitHub/Neon3D/FPGA/Software/Neon3DSoftware_bsp/\libucosii_bsp.a(altera_avalon_jtag_uart_read.o)
                              C:/Users/Eldin/Documents/GitHub/Neon3D/FPGA/Software/Neon3DSoftware_bsp/\libucosii_bsp.a(altera_avalon_jtag_uart_fd.o) (altera_avalon_jtag_uart_read)
C:/Users/Eldin/Documents/GitHub/Neon3D/FPGA/Software/Neon3DSoftware_bsp/\libucosii_bsp.a(altera_avalon_jtag_uart_write.o)
                              C:/Users/Eldin/Documents/GitHub/Neon3D/FPGA/Software/Neon3DSoftware_bsp/\libucosii_bsp.a(altera_avalon_jtag_uart_fd.o) (altera_avalon_jtag_uart_write)
C:/Users/Eldin/Documents/GitHub/Neon3D/FPGA/Software/Neon3DSoftware_bsp/\libucosii_bsp.a(altera_avalon_timer_sc.o)
                              C:/Users/Eldin/Documents/GitHub/Neon3D/FPGA/Software/Neon3DSoftware_bsp/\libucosii_bsp.a(alt_sys_init.o) (alt_avalon_timer_sc_init)
C:/Users/Eldin/Documents/GitHub/Neon3D/FPGA/Software/Neon3DSoftware_bsp/\libucosii_bsp.a(altera_up_avalon_character_lcd.o)
                              C:/Users/Eldin/Documents/GitHub/Neon3D/FPGA/Software/Neon3DSoftware_bsp/\libucosii_bsp.a(alt_sys_init.o) (alt_up_character_lcd_init)
C:/Users/Eldin/Documents/GitHub/Neon3D/FPGA/Software/Neon3DSoftware_bsp/\libucosii_bsp.a(altera_up_avalon_irda.o)
                              C:/Users/Eldin/Documents/GitHub/Neon3D/FPGA/Software/Neon3DSoftware_bsp/\libucosii_bsp.a(alt_sys_init.o) (alt_up_irda_read_fd)
C:/Users/Eldin/Documents/GitHub/Neon3D/FPGA/Software/Neon3DSoftware_bsp/\libucosii_bsp.a(altera_up_avalon_ps2.o)
                              C:/Users/Eldin/Documents/GitHub/Neon3D/FPGA/Software/Neon3DSoftware_bsp/\libucosii_bsp.a(alt_sys_init.o) (alt_up_ps2_init)
C:/Users/Eldin/Documents/GitHub/Neon3D/FPGA/Software/Neon3DSoftware_bsp/\libucosii_bsp.a(altera_up_avalon_rs232.o)
                              C:/Users/Eldin/Documents/GitHub/Neon3D/FPGA/Software/Neon3DSoftware_bsp/\libucosii_bsp.a(alt_sys_init.o) (alt_up_rs232_read_fd)
C:/Users/Eldin/Documents/GitHub/Neon3D/FPGA/Software/Neon3DSoftware_bsp/\libucosii_bsp.a(altera_up_avalon_video_character_buffer_with_dma.o)
                              C:/Users/Eldin/Documents/GitHub/Neon3D/FPGA/Software/Neon3DSoftware_bsp/\libucosii_bsp.a(alt_sys_init.o) (alt_up_char_buffer_init)
C:/Users/Eldin/Documents/GitHub/Neon3D/FPGA/Software/Neon3DSoftware_bsp/\libucosii_bsp.a(alt_alarm_start.o)
                              C:/Users/Eldin/Documents/GitHub/Neon3D/FPGA/Software/Neon3DSoftware_bsp/\libucosii_bsp.a(altera_avalon_jtag_uart_init.o) (alt_alarm_start)
C:/Users/Eldin/Documents/GitHub/Neon3D/FPGA/Software/Neon3DSoftware_bsp/\libucosii_bsp.a(alt_close.o)
                              C:/Users/Eldin/Documents/GitHub/Neon3D/FPGA/Software/Neon3DSoftware_bsp/\libucosii_bsp.a(alt_main.o) (close)
C:/Users/Eldin/Documents/GitHub/Neon3D/FPGA/Software/Neon3DSoftware_bsp/\libucosii_bsp.a(alt_dcache_flush_all.o)
                              C:/Users/Eldin/Documents/GitHub/Neon3D/FPGA/Software/Neon3DSoftware_bsp/\libucosii_bsp.a(alt_load.o) (alt_dcache_flush_all)
C:/Users/Eldin/Documents/GitHub/Neon3D/FPGA/Software/Neon3DSoftware_bsp/\libucosii_bsp.a(alt_dev.o)
                              C:/Users/Eldin/Documents/GitHub/Neon3D/FPGA/Software/Neon3DSoftware_bsp/\libucosii_bsp.a(alt_sys_init.o) (alt_dev_list)
C:/Users/Eldin/Documents/GitHub/Neon3D/FPGA/Software/Neon3DSoftware_bsp/\libucosii_bsp.a(alt_dev_llist_insert.o)
                              C:/Users/Eldin/Documents/GitHub/Neon3D/FPGA/Software/Neon3DSoftware_bsp/\libucosii_bsp.a(alt_sys_init.o) (alt_dev_llist_insert)
C:/Users/Eldin/Documents/GitHub/Neon3D/FPGA/Software/Neon3DSoftware_bsp/\libucosii_bsp.a(alt_do_ctors.o)
                              C:/Users/Eldin/Documents/GitHub/Neon3D/FPGA/Software/Neon3DSoftware_bsp/\libucosii_bsp.a(alt_main.o) (_do_ctors)
C:/Users/Eldin/Documents/GitHub/Neon3D/FPGA/Software/Neon3DSoftware_bsp/\libucosii_bsp.a(alt_do_dtors.o)
                              C:/Users/Eldin/Documents/GitHub/Neon3D/FPGA/Software/Neon3DSoftware_bsp/\libucosii_bsp.a(alt_main.o) (_do_dtors)
C:/Users/Eldin/Documents/GitHub/Neon3D/FPGA/Software/Neon3DSoftware_bsp/\libucosii_bsp.a(alt_errno.o)
                              C:/Users/Eldin/Documents/GitHub/Neon3D/FPGA/Software/Neon3DSoftware_bsp/\libucosii_bsp.a(alt_close.o) (alt_errno)
C:/Users/Eldin/Documents/GitHub/Neon3D/FPGA/Software/Neon3DSoftware_bsp/\libucosii_bsp.a(alt_find_dev.o)
                              C:/Users/Eldin/Documents/GitHub/Neon3D/FPGA/Software/Neon3DSoftware_bsp/\libucosii_bsp.a(altera_up_avalon_character_lcd.o) (alt_find_dev)
C:/Users/Eldin/Documents/GitHub/Neon3D/FPGA/Software/Neon3DSoftware_bsp/\libucosii_bsp.a(alt_icache_flush_all.o)
                              C:/Users/Eldin/Documents/GitHub/Neon3D/FPGA/Software/Neon3DSoftware_bsp/\libucosii_bsp.a(alt_load.o) (alt_icache_flush_all)
C:/Users/Eldin/Documents/GitHub/Neon3D/FPGA/Software/Neon3DSoftware_bsp/\libucosii_bsp.a(alt_io_redirect.o)
                              C:/Users/Eldin/Documents/GitHub/Neon3D/FPGA/Software/Neon3DSoftware_bsp/\libucosii_bsp.a(alt_main.o) (alt_io_redirect)
C:/Users/Eldin/Documents/GitHub/Neon3D/FPGA/Software/Neon3DSoftware_bsp/\libucosii_bsp.a(alt_irq_register.o)
                              C:/Users/Eldin/Documents/GitHub/Neon3D/FPGA/Software/Neon3DSoftware_bsp/\libucosii_bsp.a(altera_avalon_jtag_uart_init.o) (alt_irq_register)
C:/Users/Eldin/Documents/GitHub/Neon3D/FPGA/Software/Neon3DSoftware_bsp/\libucosii_bsp.a(alt_irq_vars.o)
                              C:/Users/Eldin/Documents/GitHub/Neon3D/FPGA/Software/Neon3DSoftware_bsp/\libucosii_bsp.a(alt_irq_register.o) (alt_irq_active)
C:/Users/Eldin/Documents/GitHub/Neon3D/FPGA/Software/Neon3DSoftware_bsp/\libucosii_bsp.a(alt_open.o)
                              C:/Users/Eldin/Documents/GitHub/Neon3D/FPGA/Software/Neon3DSoftware_bsp/\libucosii_bsp.a(alt_io_redirect.o) (open)
C:/Users/Eldin/Documents/GitHub/Neon3D/FPGA/Software/Neon3DSoftware_bsp/\libucosii_bsp.a(alt_release_fd.o)
                              C:/Users/Eldin/Documents/GitHub/Neon3D/FPGA/Software/Neon3DSoftware_bsp/\libucosii_bsp.a(alt_close.o) (alt_release_fd)
C:/Users/Eldin/Documents/GitHub/Neon3D/FPGA/Software/Neon3DSoftware_bsp/\libucosii_bsp.a(alt_tick.o)
                              C:/Users/Eldin/Documents/GitHub/Neon3D/FPGA/Software/Neon3DSoftware_bsp/\libucosii_bsp.a(altera_avalon_jtag_uart_init.o) (_alt_tick_rate)
C:/Users/Eldin/Documents/GitHub/Neon3D/FPGA/Software/Neon3DSoftware_bsp/\libucosii_bsp.a(altera_nios2_gen2_irq.o)
                              C:/Users/Eldin/Documents/GitHub/Neon3D/FPGA/Software/Neon3DSoftware_bsp/\libucosii_bsp.a(alt_sys_init.o) (altera_nios2_gen2_irq_init)
C:/Users/Eldin/Documents/GitHub/Neon3D/FPGA/Software/Neon3DSoftware_bsp/\libucosii_bsp.a(os_cpu_a.o)
                              C:/Users/Eldin/Documents/GitHub/Neon3D/FPGA/Software/Neon3DSoftware_bsp/\libucosii_bsp.a(os_core.o) (OSIntCtxSw)
C:/Users/Eldin/Documents/GitHub/Neon3D/FPGA/Software/Neon3DSoftware_bsp/\libucosii_bsp.a(os_cpu_c.o)
                              C:/Users/Eldin/Documents/GitHub/Neon3D/FPGA/Software/Neon3DSoftware_bsp/\libucosii_bsp.a(os_task.o) (OSTaskStkInit)
C:/Users/Eldin/Documents/GitHub/Neon3D/FPGA/Software/Neon3DSoftware_bsp/\libucosii_bsp.a(alt_find_file.o)
                              C:/Users/Eldin/Documents/GitHub/Neon3D/FPGA/Software/Neon3DSoftware_bsp/\libucosii_bsp.a(alt_open.o) (alt_find_file)
C:/Users/Eldin/Documents/GitHub/Neon3D/FPGA/Software/Neon3DSoftware_bsp/\libucosii_bsp.a(alt_get_fd.o)
                              C:/Users/Eldin/Documents/GitHub/Neon3D/FPGA/Software/Neon3DSoftware_bsp/\libucosii_bsp.a(alt_open.o) (alt_get_fd)
C:/Users/Eldin/Documents/GitHub/Neon3D/FPGA/Software/Neon3DSoftware_bsp/\libucosii_bsp.a(alt_icache_flush.o)
                              C:/Users/Eldin/Documents/GitHub/Neon3D/FPGA/Software/Neon3DSoftware_bsp/\libucosii_bsp.a(alt_icache_flush_all.o) (alt_icache_flush)
C:/Users/Eldin/Documents/GitHub/Neon3D/FPGA/Software/Neon3DSoftware_bsp/\libucosii_bsp.a(alt_irq_entry.o)
                              C:/Users/Eldin/Documents/GitHub/Neon3D/FPGA/Software/Neon3DSoftware_bsp/\libucosii_bsp.a(alt_irq_register.o) (alt_irq_entry)
C:/Users/Eldin/Documents/GitHub/Neon3D/FPGA/Software/Neon3DSoftware_bsp/\libucosii_bsp.a(alt_irq_handler.o)
                              C:/Users/Eldin/Documents/GitHub/Neon3D/FPGA/Software/Neon3DSoftware_bsp/\libucosii_bsp.a(alt_irq_register.o) (alt_irq)
C:/Users/Eldin/Documents/GitHub/Neon3D/FPGA/Software/Neon3DSoftware_bsp/\libucosii_bsp.a(alt_exception_entry.o)
                              C:/Users/Eldin/Documents/GitHub/Neon3D/FPGA/Software/Neon3DSoftware_bsp/\libucosii_bsp.a(alt_irq_entry.o) (alt_exception)
C:/Users/Eldin/Documents/GitHub/Neon3D/FPGA/Software/Neon3DSoftware_bsp/\libucosii_bsp.a(alt_instruction_exception_entry.o)
                              C:/Users/Eldin/Documents/GitHub/Neon3D/FPGA/Software/Neon3DSoftware_bsp/\libucosii_bsp.a(alt_exception_entry.o) (alt_instruction_exception_entry)
c:/altera_lite/15.1/nios2eds/bin/gnu/h-x86_64-mingw32/bin/../lib/gcc/nios2-elf/4.9.2/../../../../../H-x86_64-mingw32/nios2-elf/lib/mhw-mulx\libc.a(lib_a-atexit.o)
                              C:/Users/Eldin/Documents/GitHub/Neon3D/FPGA/Software/Neon3DSoftware_bsp/\libucosii_bsp.a(alt_main.o) (atexit)
c:/altera_lite/15.1/nios2eds/bin/gnu/h-x86_64-mingw32/bin/../lib/gcc/nios2-elf/4.9.2/../../../../../H-x86_64-mingw32/nios2-elf/lib/mhw-mulx\libc.a(lib_a-exit.o)
                              C:/Users/Eldin/Documents/GitHub/Neon3D/FPGA/Software/Neon3DSoftware_bsp/\libucosii_bsp.a(alt_main.o) (exit)
c:/altera_lite/15.1/nios2eds/bin/gnu/h-x86_64-mingw32/bin/../lib/gcc/nios2-elf/4.9.2/../../../../../H-x86_64-mingw32/nios2-elf/lib/mhw-mulx\libc.a(lib_a-memcmp.o)
                              C:/Users/Eldin/Documents/GitHub/Neon3D/FPGA/Software/Neon3DSoftware_bsp/\libucosii_bsp.a(alt_find_dev.o) (memcmp)
c:/altera_lite/15.1/nios2eds/bin/gnu/h-x86_64-mingw32/bin/../lib/gcc/nios2-elf/4.9.2/../../../../../H-x86_64-mingw32/nios2-elf/lib/mhw-mulx\libc.a(lib_a-__atexit.o)
                              c:/altera_lite/15.1/nios2eds/bin/gnu/h-x86_64-mingw32/bin/../lib/gcc/nios2-elf/4.9.2/../../../../../H-x86_64-mingw32/nios2-elf/lib/mhw-mulx\libc.a(lib_a-atexit.o) (__register_exitproc)
c:/altera_lite/15.1/nios2eds/bin/gnu/h-x86_64-mingw32/bin/../lib/gcc/nios2-elf/4.9.2/../../../../../H-x86_64-mingw32/nios2-elf/lib/mhw-mulx\libc.a(lib_a-__call_atexit.o)
                              c:/altera_lite/15.1/nios2eds/bin/gnu/h-x86_64-mingw32/bin/../lib/gcc/nios2-elf/4.9.2/../../../../../H-x86_64-mingw32/nios2-elf/lib/mhw-mulx\libc.a(lib_a-exit.o) (__call_exitprocs)
C:/Users/Eldin/Documents/GitHub/Neon3D/FPGA/Software/Neon3DSoftware_bsp/\libucosii_bsp.a(alt_exit.o)
                              c:/altera_lite/15.1/nios2eds/bin/gnu/h-x86_64-mingw32/bin/../lib/gcc/nios2-elf/4.9.2/../../../../../H-x86_64-mingw32/nios2-elf/lib/mhw-mulx\libc.a(lib_a-exit.o) (_exit)

Allocating common symbols
Common symbol       size              file

alt_irq             0x100             C:/Users/Eldin/Documents/GitHub/Neon3D/FPGA/Software/Neon3DSoftware_bsp/\libucosii_bsp.a(alt_irq_handler.o)
OSLockNesting       0x1               C:/Users/Eldin/Documents/GitHub/Neon3D/FPGA/Software/Neon3DSoftware_bsp/\libucosii_bsp.a(os_core.o)
OSRunning           0x1               C:/Users/Eldin/Documents/GitHub/Neon3D/FPGA/Software/Neon3DSoftware_bsp/\libucosii_bsp.a(os_core.o)
OSIdleCtr           0x4               C:/Users/Eldin/Documents/GitHub/Neon3D/FPGA/Software/Neon3DSoftware_bsp/\libucosii_bsp.a(os_core.o)
OSPrioHighRdy       0x1               C:/Users/Eldin/Documents/GitHub/Neon3D/FPGA/Software/Neon3DSoftware_bsp/\libucosii_bsp.a(os_core.o)
errno               0x4               c:/altera_lite/15.1/nios2eds/bin/gnu/h-x86_64-mingw32/bin/../lib/gcc/nios2-elf/4.9.2/../../../../../H-x86_64-mingw32/nios2-elf/lib/mhw-mulx\libc.a(lib_a-int_errno.o)
alt_heapsem         0x4               C:/Users/Eldin/Documents/GitHub/Neon3D/FPGA/Software/Neon3DSoftware_bsp/\libucosii_bsp.a(alt_malloc_lock.o)
OSFlagTbl           0x370             C:/Users/Eldin/Documents/GitHub/Neon3D/FPGA/Software/Neon3DSoftware_bsp/\libucosii_bsp.a(os_core.o)
OSPrioCur           0x1               C:/Users/Eldin/Documents/GitHub/Neon3D/FPGA/Software/Neon3DSoftware_bsp/\libucosii_bsp.a(os_core.o)
OSTCBList           0x4               C:/Users/Eldin/Documents/GitHub/Neon3D/FPGA/Software/Neon3DSoftware_bsp/\libucosii_bsp.a(os_core.o)
alt_fd_list_lock    0x4               C:/Users/Eldin/Documents/GitHub/Neon3D/FPGA/Software/Neon3DSoftware_bsp/\libucosii_bsp.a(alt_dev.o)
OSMemTbl            0xc30             C:/Users/Eldin/Documents/GitHub/Neon3D/FPGA/Software/Neon3DSoftware_bsp/\libucosii_bsp.a(os_core.o)
OSTickStepState     0x1               C:/Users/Eldin/Documents/GitHub/Neon3D/FPGA/Software/Neon3DSoftware_bsp/\libucosii_bsp.a(os_core.o)
OSTaskStatStk       0x800             C:/Users/Eldin/Documents/GitHub/Neon3D/FPGA/Software/Neon3DSoftware_bsp/\libucosii_bsp.a(os_core.o)
OSCtxSwCtr          0x4               C:/Users/Eldin/Documents/GitHub/Neon3D/FPGA/Software/Neon3DSoftware_bsp/\libucosii_bsp.a(os_core.o)
OSIdleCtrMax        0x4               C:/Users/Eldin/Documents/GitHub/Neon3D/FPGA/Software/Neon3DSoftware_bsp/\libucosii_bsp.a(os_core.o)
OSTCBFreeList       0x4               C:/Users/Eldin/Documents/GitHub/Neon3D/FPGA/Software/Neon3DSoftware_bsp/\libucosii_bsp.a(os_core.o)
OSCPUUsage          0x1               C:/Users/Eldin/Documents/GitHub/Neon3D/FPGA/Software/Neon3DSoftware_bsp/\libucosii_bsp.a(os_core.o)
OSTaskCtr           0x1               C:/Users/Eldin/Documents/GitHub/Neon3D/FPGA/Software/Neon3DSoftware_bsp/\libucosii_bsp.a(os_core.o)
OSMemFreeList       0x4               C:/Users/Eldin/Documents/GitHub/Neon3D/FPGA/Software/Neon3DSoftware_bsp/\libucosii_bsp.a(os_core.o)
OSQTbl              0x1e0             C:/Users/Eldin/Documents/GitHub/Neon3D/FPGA/Software/Neon3DSoftware_bsp/\libucosii_bsp.a(os_core.o)
OSTCBHighRdy        0x4               C:/Users/Eldin/Documents/GitHub/Neon3D/FPGA/Software/Neon3DSoftware_bsp/\libucosii_bsp.a(os_core.o)
OSQFreeList         0x4               C:/Users/Eldin/Documents/GitHub/Neon3D/FPGA/Software/Neon3DSoftware_bsp/\libucosii_bsp.a(os_core.o)
OSRdyGrp            0x1               C:/Users/Eldin/Documents/GitHub/Neon3D/FPGA/Software/Neon3DSoftware_bsp/\libucosii_bsp.a(os_core.o)
OSRdyTbl            0x3               C:/Users/Eldin/Documents/GitHub/Neon3D/FPGA/Software/Neon3DSoftware_bsp/\libucosii_bsp.a(os_core.o)
OSEventFreeList     0x4               C:/Users/Eldin/Documents/GitHub/Neon3D/FPGA/Software/Neon3DSoftware_bsp/\libucosii_bsp.a(os_core.o)
OSIntNesting        0x1               C:/Users/Eldin/Documents/GitHub/Neon3D/FPGA/Software/Neon3DSoftware_bsp/\libucosii_bsp.a(os_core.o)
OSTCBCur            0x4               C:/Users/Eldin/Documents/GitHub/Neon3D/FPGA/Software/Neon3DSoftware_bsp/\libucosii_bsp.a(os_core.o)
OSTime              0x4               C:/Users/Eldin/Documents/GitHub/Neon3D/FPGA/Software/Neon3DSoftware_bsp/\libucosii_bsp.a(os_core.o)
OSTaskIdleStk       0x800             C:/Users/Eldin/Documents/GitHub/Neon3D/FPGA/Software/Neon3DSoftware_bsp/\libucosii_bsp.a(os_core.o)
OSEventTbl          0xb40             C:/Users/Eldin/Documents/GitHub/Neon3D/FPGA/Software/Neon3DSoftware_bsp/\libucosii_bsp.a(os_core.o)
OSTCBTbl            0x510             C:/Users/Eldin/Documents/GitHub/Neon3D/FPGA/Software/Neon3DSoftware_bsp/\libucosii_bsp.a(os_core.o)
OSFlagFreeList      0x4               C:/Users/Eldin/Documents/GitHub/Neon3D/FPGA/Software/Neon3DSoftware_bsp/\libucosii_bsp.a(os_core.o)
OSStatRdy           0x1               C:/Users/Eldin/Documents/GitHub/Neon3D/FPGA/Software/Neon3DSoftware_bsp/\libucosii_bsp.a(os_core.o)
OSTCBPrioTbl        0x54              C:/Users/Eldin/Documents/GitHub/Neon3D/FPGA/Software/Neon3DSoftware_bsp/\libucosii_bsp.a(os_core.o)
alt_envsem          0x4               C:/Users/Eldin/Documents/GitHub/Neon3D/FPGA/Software/Neon3DSoftware_bsp/\libucosii_bsp.a(alt_env_lock.o)
OSIdleCtrRun        0x4               C:/Users/Eldin/Documents/GitHub/Neon3D/FPGA/Software/Neon3DSoftware_bsp/\libucosii_bsp.a(os_core.o)

Memory Configuration

Name             Origin             Length             Attributes
reset            0x0000000000000000 0x0000000000000020
SDRAM            0x0000000000000020 0x0000000003ffffe0
Flash_flash_data 0x000000000c000000 0x0000000000800000
*default*        0x0000000000000000 0xffffffffffffffff

Linker script and memory map

LOAD C:/Users/Eldin/Documents/GitHub/Neon3D/FPGA/Software/Neon3DSoftware_bsp//obj/HAL/src/crt0.o
LOAD obj/default/hello_ucosii.o
LOAD c:/altera_lite/15.1/nios2eds/bin/gnu/h-x86_64-mingw32/bin/../lib/gcc/nios2-elf/4.9.2/../../../../../H-x86_64-mingw32/nios2-elf/lib/mhw-mulx\libstdc++.a
LOAD c:/altera_lite/15.1/nios2eds/bin/gnu/h-x86_64-mingw32/bin/../lib/gcc/nios2-elf/4.9.2/../../../../../H-x86_64-mingw32/nios2-elf/lib/mhw-mulx\libm.a
LOAD c:/altera_lite/15.1/nios2eds/bin/gnu/h-x86_64-mingw32/bin/../lib/gcc/nios2-elf/4.9.2/mhw-mulx\libgcc.a
START GROUP
LOAD c:/altera_lite/15.1/nios2eds/bin/gnu/h-x86_64-mingw32/bin/../lib/gcc/nios2-elf/4.9.2/../../../../../H-x86_64-mingw32/nios2-elf/lib/mhw-mulx\libc.a
LOAD c:/altera_lite/15.1/nios2eds/bin/gnu/h-x86_64-mingw32/bin/../lib/gcc/nios2-elf/4.9.2/mhw-mulx\libgcc.a
LOAD C:/Users/Eldin/Documents/GitHub/Neon3D/FPGA/Software/Neon3DSoftware_bsp/\libucosii_bsp.a
LOAD c:/altera_lite/15.1/nios2eds/bin/gnu/h-x86_64-mingw32/bin/../lib/gcc/nios2-elf/4.9.2/../../../../../H-x86_64-mingw32/nios2-elf/lib/mhw-mulx\libm.a
END GROUP
LOAD c:/altera_lite/15.1/nios2eds/bin/gnu/h-x86_64-mingw32/bin/../lib/gcc/nios2-elf/4.9.2/mhw-mulx\libgcc.a
                0x0000000000000000                __alt_mem_SDRAM = 0x0
                0x000000000c000000                __alt_mem_Flash_flash_data = 0xc000000

.entry          0x0000000000000000       0x20
 *(.entry)
 .entry         0x0000000000000000       0x20 C:/Users/Eldin/Documents/GitHub/Neon3D/FPGA/Software/Neon3DSoftware_bsp//obj/HAL/src/crt0.o
                0x0000000000000000                __reset

.exceptions     0x0000000000000020      0x224
                0x0000000000000020                PROVIDE (__ram_exceptions_start, ABSOLUTE (.))
                0x0000000000000020                . = ALIGN (0x20)
 *(.irq)
 *(.exceptions.entry.label)
 .exceptions.entry.label
                0x0000000000000020        0x0 C:/Users/Eldin/Documents/GitHub/Neon3D/FPGA/Software/Neon3DSoftware_bsp/\libucosii_bsp.a(alt_irq_entry.o)
                0x0000000000000020                alt_irq_entry
 .exceptions.entry.label
                0x0000000000000020        0x0 C:/Users/Eldin/Documents/GitHub/Neon3D/FPGA/Software/Neon3DSoftware_bsp/\libucosii_bsp.a(alt_exception_entry.o)
                0x0000000000000020                alt_exception
 *(.exceptions.entry.user)
 *(.exceptions.entry.ecc_fatal)
 *(.exceptions.entry)
 .exceptions.entry
                0x0000000000000020       0x54 C:/Users/Eldin/Documents/GitHub/Neon3D/FPGA/Software/Neon3DSoftware_bsp/\libucosii_bsp.a(alt_exception_entry.o)
 *(.exceptions.irqtest.user)
 *(.exceptions.irqtest)
 .exceptions.irqtest
                0x0000000000000074       0x10 C:/Users/Eldin/Documents/GitHub/Neon3D/FPGA/Software/Neon3DSoftware_bsp/\libucosii_bsp.a(alt_irq_entry.o)
 *(.exceptions.irqhandler.user)
 *(.exceptions.irqhandler)
 .exceptions.irqhandler
                0x0000000000000084        0x4 C:/Users/Eldin/Documents/GitHub/Neon3D/FPGA/Software/Neon3DSoftware_bsp/\libucosii_bsp.a(alt_irq_entry.o)
 *(.exceptions.irqreturn.user)
 *(.exceptions.irqreturn)
 .exceptions.irqreturn
                0x0000000000000088        0x4 C:/Users/Eldin/Documents/GitHub/Neon3D/FPGA/Software/Neon3DSoftware_bsp/\libucosii_bsp.a(alt_irq_entry.o)
 *(.exceptions.notirq.label)
 .exceptions.notirq.label
                0x000000000000008c        0x0 C:/Users/Eldin/Documents/GitHub/Neon3D/FPGA/Software/Neon3DSoftware_bsp/\libucosii_bsp.a(alt_irq_entry.o)
 *(.exceptions.notirq.user)
 *(.exceptions.notirq)
 .exceptions.notirq
                0x000000000000008c        0x8 C:/Users/Eldin/Documents/GitHub/Neon3D/FPGA/Software/Neon3DSoftware_bsp/\libucosii_bsp.a(alt_exception_entry.o)
 *(.exceptions.soft.user)
 *(.exceptions.soft)
 *(.exceptions.unknown.user)
 *(.exceptions.unknown)
 .exceptions.unknown
                0x0000000000000094       0x14 C:/Users/Eldin/Documents/GitHub/Neon3D/FPGA/Software/Neon3DSoftware_bsp/\libucosii_bsp.a(alt_exception_entry.o)
 *(.exceptions.exit.label)
 .exceptions.exit.label
                0x00000000000000a8        0x0 C:/Users/Eldin/Documents/GitHub/Neon3D/FPGA/Software/Neon3DSoftware_bsp/\libucosii_bsp.a(alt_irq_entry.o)
 .exceptions.exit.label
                0x00000000000000a8        0x0 C:/Users/Eldin/Documents/GitHub/Neon3D/FPGA/Software/Neon3DSoftware_bsp/\libucosii_bsp.a(alt_exception_entry.o)
 *(.exceptions.exit.user)
 *(.exceptions.exit)
 .exceptions.exit
                0x00000000000000a8       0x54 C:/Users/Eldin/Documents/GitHub/Neon3D/FPGA/Software/Neon3DSoftware_bsp/\libucosii_bsp.a(alt_exception_entry.o)
 *(.exceptions)
 .exceptions    0x00000000000000fc       0xd4 C:/Users/Eldin/Documents/GitHub/Neon3D/FPGA/Software/Neon3DSoftware_bsp/\libucosii_bsp.a(alt_irq_handler.o)
                0x00000000000000fc                alt_irq_handler
 .exceptions    0x00000000000001d0       0x74 C:/Users/Eldin/Documents/GitHub/Neon3D/FPGA/Software/Neon3DSoftware_bsp/\libucosii_bsp.a(alt_instruction_exception_entry.o)
                0x00000000000001d0                alt_instruction_exception_entry
                0x0000000000000244                PROVIDE (__ram_exceptions_end, ABSOLUTE (.))
                0x0000000000000020                PROVIDE (__flash_exceptions_start, LOADADDR (.exceptions))

.text           0x0000000000000244    0x1b448
                0x0000000000000244                PROVIDE (stext, ABSOLUTE (.))
 *(.interp)
 *(.hash)
 *(.dynsym)
 *(.dynstr)
 *(.gnu.version)
 *(.gnu.version_d)
 *(.gnu.version_r)
 *(.rel.init)
 *(.rela.init)
 *(.rel.text .rel.text.* .rel.gnu.linkonce.t.*)
 *(.rela.text .rela.text.* .rela.gnu.linkonce.t.*)
 *(.rel.fini)
 *(.rela.fini)
 *(.rel.rodata .rel.rodata.* .rel.gnu.linkonce.r.*)
 *(.rela.rodata .rela.rodata.* .rela.gnu.linkonce.r.*)
 *(.rel.data .rel.data.* .rel.gnu.linkonce.d.*)
 *(.rela.data .rela.data.* .rela.gnu.linkonce.d.*)
 *(.rel.tdata .rel.tdata.* .rel.gnu.linkonce.td.*)
 *(.rela.tdata .rela.tdata.* .rela.gnu.linkonce.td.*)
 *(.rel.tbss .rel.tbss.* .rel.gnu.linkonce.tb.*)
 *(.rela.tbss .rela.tbss.* .rela.gnu.linkonce.tb.*)
 *(.rel.ctors)
 *(.rela.ctors)
 *(.rel.dtors)
 *(.rela.dtors)
 *(.rel.got)
 *(.rela.got)
 *(.rel.sdata .rel.sdata.* .rel.gnu.linkonce.s.*)
 *(.rela.sdata .rela.sdata.* .rela.gnu.linkonce.s.*)
 *(.rel.sbss .rel.sbss.* .rel.gnu.linkonce.sb.*)
 *(.rela.sbss .rela.sbss.* .rela.gnu.linkonce.sb.*)
 *(.rel.sdata2 .rel.sdata2.* .rel.gnu.linkonce.s2.*)
 *(.rela.sdata2 .rela.sdata2.* .rela.gnu.linkonce.s2.*)
 *(.rel.sbss2 .rel.sbss2.* .rel.gnu.linkonce.sb2.*)
 *(.rela.sbss2 .rela.sbss2.* .rela.gnu.linkonce.sb2.*)
 *(.rel.bss .rel.bss.* .rel.gnu.linkonce.b.*)
 *(.rela.bss .rela.bss.* .rela.gnu.linkonce.b.*)
 *(.rel.plt)
 *(.rela.plt)
 *(.rel.dyn)
 *(.init)
 *(.plt)
 *(.text .stub .text.* .gnu.linkonce.t.*)
 .text          0x0000000000000244       0x3c C:/Users/Eldin/Documents/GitHub/Neon3D/FPGA/Software/Neon3DSoftware_bsp//obj/HAL/src/crt0.o
                0x0000000000000244                _start
 .text          0x0000000000000280     0x2834 obj/default/hello_ucosii.o
                0x0000000000000280                drawPixel
                0x00000000000002f0                removePixel
                0x0000000000000354                drawLine
                0x00000000000009ac                drawNodesAndBeams
                0x0000000000002008                main
                0x0000000000002650                LCD_cursor
                0x00000000000026b8                LCD_text
                0x0000000000002720                LCD_cursor_off
                0x0000000000002754                VGA_text
                0x00000000000027e4                VGA_box
                0x0000000000002898                HEX_PS2
                0x00000000000029ec                check_KEYs
 .text          0x0000000000002ab4        0x0 c:/altera_lite/15.1/nios2eds/bin/gnu/h-x86_64-mingw32/bin/../lib/gcc/nios2-elf/4.9.2/../../../../../H-x86_64-mingw32/nios2-elf/lib/mhw-mulx\libm.a(lib_a-s_cos.o)
 .text.cos      0x0000000000002ab4       0xec c:/altera_lite/15.1/nios2eds/bin/gnu/h-x86_64-mingw32/bin/../lib/gcc/nios2-elf/4.9.2/../../../../../H-x86_64-mingw32/nios2-elf/lib/mhw-mulx\libm.a(lib_a-s_cos.o)
                0x0000000000002ab4                cos
 .text          0x0000000000002ba0        0x0 c:/altera_lite/15.1/nios2eds/bin/gnu/h-x86_64-mingw32/bin/../lib/gcc/nios2-elf/4.9.2/../../../../../H-x86_64-mingw32/nios2-elf/lib/mhw-mulx\libm.a(lib_a-s_sin.o)
 .text.sin      0x0000000000002ba0       0xf0 c:/altera_lite/15.1/nios2eds/bin/gnu/h-x86_64-mingw32/bin/../lib/gcc/nios2-elf/4.9.2/../../../../../H-x86_64-mingw32/nios2-elf/lib/mhw-mulx\libm.a(lib_a-s_sin.o)
                0x0000000000002ba0                sin
 .text          0x0000000000002c90        0x0 c:/altera_lite/15.1/nios2eds/bin/gnu/h-x86_64-mingw32/bin/../lib/gcc/nios2-elf/4.9.2/../../../../../H-x86_64-mingw32/nios2-elf/lib/mhw-mulx\libm.a(lib_a-e_rem_pio2.o)
 .text.__ieee754_rem_pio2
                0x0000000000002c90      0x79c c:/altera_lite/15.1/nios2eds/bin/gnu/h-x86_64-mingw32/bin/../lib/gcc/nios2-elf/4.9.2/../../../../../H-x86_64-mingw32/nios2-elf/lib/mhw-mulx\libm.a(lib_a-e_rem_pio2.o)
                0x0000000000002c90                __ieee754_rem_pio2
 .text          0x000000000000342c        0x0 c:/altera_lite/15.1/nios2eds/bin/gnu/h-x86_64-mingw32/bin/../lib/gcc/nios2-elf/4.9.2/../../../../../H-x86_64-mingw32/nios2-elf/lib/mhw-mulx\libm.a(lib_a-k_cos.o)
 .text.__kernel_cos
                0x000000000000342c      0x4a4 c:/altera_lite/15.1/nios2eds/bin/gnu/h-x86_64-mingw32/bin/../lib/gcc/nios2-elf/4.9.2/../../../../../H-x86_64-mingw32/nios2-elf/lib/mhw-mulx\libm.a(lib_a-k_cos.o)
                0x000000000000342c                __kernel_cos
 .text          0x00000000000038d0        0x0 c:/altera_lite/15.1/nios2eds/bin/gnu/h-x86_64-mingw32/bin/../lib/gcc/nios2-elf/4.9.2/../../../../../H-x86_64-mingw32/nios2-elf/lib/mhw-mulx\libm.a(lib_a-k_rem_pio2.o)
 .text.__kernel_rem_pio2
                0x00000000000038d0      0xd28 c:/altera_lite/15.1/nios2eds/bin/gnu/h-x86_64-mingw32/bin/../lib/gcc/nios2-elf/4.9.2/../../../../../H-x86_64-mingw32/nios2-elf/lib/mhw-mulx\libm.a(lib_a-k_rem_pio2.o)
                0x00000000000038d0                __kernel_rem_pio2
 .text          0x00000000000045f8        0x0 c:/altera_lite/15.1/nios2eds/bin/gnu/h-x86_64-mingw32/bin/../lib/gcc/nios2-elf/4.9.2/../../../../../H-x86_64-mingw32/nios2-elf/lib/mhw-mulx\libm.a(lib_a-k_sin.o)
 .text.__kernel_sin
                0x00000000000045f8      0x2c8 c:/altera_lite/15.1/nios2eds/bin/gnu/h-x86_64-mingw32/bin/../lib/gcc/nios2-elf/4.9.2/../../../../../H-x86_64-mingw32/nios2-elf/lib/mhw-mulx\libm.a(lib_a-k_sin.o)
                0x00000000000045f8                __kernel_sin
 .text          0x00000000000048c0        0x0 c:/altera_lite/15.1/nios2eds/bin/gnu/h-x86_64-mingw32/bin/../lib/gcc/nios2-elf/4.9.2/../../../../../H-x86_64-mingw32/nios2-elf/lib/mhw-mulx\libm.a(lib_a-s_fabs.o)
 .text.fabs     0x00000000000048c0       0x14 c:/altera_lite/15.1/nios2eds/bin/gnu/h-x86_64-mingw32/bin/../lib/gcc/nios2-elf/4.9.2/../../../../../H-x86_64-mingw32/nios2-elf/lib/mhw-mulx\libm.a(lib_a-s_fabs.o)
                0x00000000000048c0                fabs
 .text          0x00000000000048d4        0x0 c:/altera_lite/15.1/nios2eds/bin/gnu/h-x86_64-mingw32/bin/../lib/gcc/nios2-elf/4.9.2/../../../../../H-x86_64-mingw32/nios2-elf/lib/mhw-mulx\libm.a(lib_a-s_floor.o)
 .text.floor    0x00000000000048d4      0x1f4 c:/altera_lite/15.1/nios2eds/bin/gnu/h-x86_64-mingw32/bin/../lib/gcc/nios2-elf/4.9.2/../../../../../H-x86_64-mingw32/nios2-elf/lib/mhw-mulx\libm.a(lib_a-s_floor.o)
                0x00000000000048d4                floor
 .text          0x0000000000004ac8        0x0 c:/altera_lite/15.1/nios2eds/bin/gnu/h-x86_64-mingw32/bin/../lib/gcc/nios2-elf/4.9.2/../../../../../H-x86_64-mingw32/nios2-elf/lib/mhw-mulx\libm.a(lib_a-s_scalbn.o)
 .text.scalbn   0x0000000000004ac8      0x1cc c:/altera_lite/15.1/nios2eds/bin/gnu/h-x86_64-mingw32/bin/../lib/gcc/nios2-elf/4.9.2/../../../../../H-x86_64-mingw32/nios2-elf/lib/mhw-mulx\libm.a(lib_a-s_scalbn.o)
                0x0000000000004ac8                scalbn
 .text          0x0000000000004c94        0x0 c:/altera_lite/15.1/nios2eds/bin/gnu/h-x86_64-mingw32/bin/../lib/gcc/nios2-elf/4.9.2/../../../../../H-x86_64-mingw32/nios2-elf/lib/mhw-mulx\libm.a(lib_a-s_copysign.o)
 .text.copysign
                0x0000000000004c94       0x1c c:/altera_lite/15.1/nios2eds/bin/gnu/h-x86_64-mingw32/bin/../lib/gcc/nios2-elf/4.9.2/../../../../../H-x86_64-mingw32/nios2-elf/lib/mhw-mulx\libm.a(lib_a-s_copysign.o)
                0x0000000000004c94                copysign
 .text          0x0000000000004cb0      0x12c c:/altera_lite/15.1/nios2eds/bin/gnu/h-x86_64-mingw32/bin/../lib/gcc/nios2-elf/4.9.2/mhw-mulx\libgcc.a(lib2-divmod.o)
                0x0000000000004d1c                __divsi3
                0x0000000000004d70                __modsi3
                0x0000000000004dcc                __udivsi3
                0x0000000000004dd4                __umodsi3
 .text          0x0000000000004ddc      0x134 c:/altera_lite/15.1/nios2eds/bin/gnu/h-x86_64-mingw32/bin/../lib/gcc/nios2-elf/4.9.2/mhw-mulx\libgcc.a(floatsisf.o)
                0x0000000000004ddc                __floatsisf
 .text          0x0000000000004f10      0x89c c:/altera_lite/15.1/nios2eds/bin/gnu/h-x86_64-mingw32/bin/../lib/gcc/nios2-elf/4.9.2/mhw-mulx\libgcc.a(adddf3.o)
                0x0000000000004f10                __adddf3
 .text          0x00000000000057ac      0x8cc c:/altera_lite/15.1/nios2eds/bin/gnu/h-x86_64-mingw32/bin/../lib/gcc/nios2-elf/4.9.2/mhw-mulx\libgcc.a(divdf3.o)
                0x00000000000057ac                __divdf3
 .text          0x0000000000006078       0x84 c:/altera_lite/15.1/nios2eds/bin/gnu/h-x86_64-mingw32/bin/../lib/gcc/nios2-elf/4.9.2/mhw-mulx\libgcc.a(eqdf2.o)
                0x0000000000006078                __nedf2
                0x0000000000006078                __eqdf2
 .text          0x00000000000060fc       0xe0 c:/altera_lite/15.1/nios2eds/bin/gnu/h-x86_64-mingw32/bin/../lib/gcc/nios2-elf/4.9.2/mhw-mulx\libgcc.a(gedf2.o)
                0x00000000000060fc                __gedf2
                0x00000000000060fc                __gtdf2
 .text          0x00000000000061dc       0xe0 c:/altera_lite/15.1/nios2eds/bin/gnu/h-x86_64-mingw32/bin/../lib/gcc/nios2-elf/4.9.2/mhw-mulx\libgcc.a(ledf2.o)
                0x00000000000061dc                __ledf2
                0x00000000000061dc                __ltdf2
 .text          0x00000000000062bc      0x724 c:/altera_lite/15.1/nios2eds/bin/gnu/h-x86_64-mingw32/bin/../lib/gcc/nios2-elf/4.9.2/mhw-mulx\libgcc.a(muldf3.o)
                0x00000000000062bc                __muldf3
 .text          0x00000000000069e0      0x8d0 c:/altera_lite/15.1/nios2eds/bin/gnu/h-x86_64-mingw32/bin/../lib/gcc/nios2-elf/4.9.2/mhw-mulx\libgcc.a(subdf3.o)
                0x00000000000069e0                __subdf3
 .text          0x00000000000072b0       0x88 c:/altera_lite/15.1/nios2eds/bin/gnu/h-x86_64-mingw32/bin/../lib/gcc/nios2-elf/4.9.2/mhw-mulx\libgcc.a(fixdfsi.o)
                0x00000000000072b0                __fixdfsi
 .text          0x0000000000007338       0xd0 c:/altera_lite/15.1/nios2eds/bin/gnu/h-x86_64-mingw32/bin/../lib/gcc/nios2-elf/4.9.2/mhw-mulx\libgcc.a(floatsidf.o)
                0x0000000000007338                __floatsidf
 .text          0x0000000000007408      0x110 c:/altera_lite/15.1/nios2eds/bin/gnu/h-x86_64-mingw32/bin/../lib/gcc/nios2-elf/4.9.2/mhw-mulx\libgcc.a(extendsfdf2.o)
                0x0000000000007408                __extendsfdf2
 .text          0x0000000000007518       0x64 c:/altera_lite/15.1/nios2eds/bin/gnu/h-x86_64-mingw32/bin/../lib/gcc/nios2-elf/4.9.2/mhw-mulx\libgcc.a(_clzsi2.o)
                0x0000000000007518                __clzsi2
 .text          0x000000000000757c        0x0 c:/altera_lite/15.1/nios2eds/bin/gnu/h-x86_64-mingw32/bin/../lib/gcc/nios2-elf/4.9.2/mhw-mulx\libgcc.a(_clz.o)
 .text          0x000000000000757c        0x0 c:/altera_lite/15.1/nios2eds/bin/gnu/h-x86_64-mingw32/bin/../lib/gcc/nios2-elf/4.9.2/../../../../../H-x86_64-mingw32/nios2-elf/lib/mhw-mulx\libc.a(lib_a-memcpy.o)
 .text.memcpy   0x000000000000757c      0x138 c:/altera_lite/15.1/nios2eds/bin/gnu/h-x86_64-mingw32/bin/../lib/gcc/nios2-elf/4.9.2/../../../../../H-x86_64-mingw32/nios2-elf/lib/mhw-mulx\libc.a(lib_a-memcpy.o)
                0x000000000000757c                memcpy
 .text          0x00000000000076b4        0x0 c:/altera_lite/15.1/nios2eds/bin/gnu/h-x86_64-mingw32/bin/../lib/gcc/nios2-elf/4.9.2/../../../../../H-x86_64-mingw32/nios2-elf/lib/mhw-mulx\libc.a(lib_a-sprintf.o)
 .text._sprintf_r
                0x00000000000076b4       0x58 c:/altera_lite/15.1/nios2eds/bin/gnu/h-x86_64-mingw32/bin/../lib/gcc/nios2-elf/4.9.2/../../../../../H-x86_64-mingw32/nios2-elf/lib/mhw-mulx\libc.a(lib_a-sprintf.o)
                0x00000000000076b4                _sprintf_r
 .text.sprintf  0x000000000000770c       0x6c c:/altera_lite/15.1/nios2eds/bin/gnu/h-x86_64-mingw32/bin/../lib/gcc/nios2-elf/4.9.2/../../../../../H-x86_64-mingw32/nios2-elf/lib/mhw-mulx\libc.a(lib_a-sprintf.o)
                0x000000000000770c                sprintf
 .text          0x0000000000007778        0x0 c:/altera_lite/15.1/nios2eds/bin/gnu/h-x86_64-mingw32/bin/../lib/gcc/nios2-elf/4.9.2/../../../../../H-x86_64-mingw32/nios2-elf/lib/mhw-mulx\libc.a(lib_a-svfprintf.o)
 .text.___svfprintf_internal_r
                0x0000000000007778     0x1f90 c:/altera_lite/15.1/nios2eds/bin/gnu/h-x86_64-mingw32/bin/../lib/gcc/nios2-elf/4.9.2/../../../../../H-x86_64-mingw32/nios2-elf/lib/mhw-mulx\libc.a(lib_a-svfprintf.o)
                0x0000000000007778                ___svfprintf_internal_r
 .text          0x0000000000009708        0x0 c:/altera_lite/15.1/nios2eds/bin/gnu/h-x86_64-mingw32/bin/../lib/gcc/nios2-elf/4.9.2/../../../../../H-x86_64-mingw32/nios2-elf/lib/mhw-mulx\libc.a(lib_a-dtoa.o)
 .text.quorem   0x0000000000009708      0x200 c:/altera_lite/15.1/nios2eds/bin/gnu/h-x86_64-mingw32/bin/../lib/gcc/nios2-elf/4.9.2/../../../../../H-x86_64-mingw32/nios2-elf/lib/mhw-mulx\libc.a(lib_a-dtoa.o)
 .text._dtoa_r  0x0000000000009908     0x1728 c:/altera_lite/15.1/nios2eds/bin/gnu/h-x86_64-mingw32/bin/../lib/gcc/nios2-elf/4.9.2/../../../../../H-x86_64-mingw32/nios2-elf/lib/mhw-mulx\libc.a(lib_a-dtoa.o)
                0x0000000000009908                _dtoa_r
 .text          0x000000000000b030        0x0 c:/altera_lite/15.1/nios2eds/bin/gnu/h-x86_64-mingw32/bin/../lib/gcc/nios2-elf/4.9.2/../../../../../H-x86_64-mingw32/nios2-elf/lib/mhw-mulx\libc.a(lib_a-impure.o)
 .text          0x000000000000b030        0x0 c:/altera_lite/15.1/nios2eds/bin/gnu/h-x86_64-mingw32/bin/../lib/gcc/nios2-elf/4.9.2/../../../../../H-x86_64-mingw32/nios2-elf/lib/mhw-mulx\libc.a(lib_a-locale.o)
 .text._setlocale_r
                0x000000000000b030       0x7c c:/altera_lite/15.1/nios2eds/bin/gnu/h-x86_64-mingw32/bin/../lib/gcc/nios2-elf/4.9.2/../../../../../H-x86_64-mingw32/nios2-elf/lib/mhw-mulx\libc.a(lib_a-locale.o)
                0x000000000000b030                _setlocale_r
 .text.__locale_charset
                0x000000000000b0ac        0xc c:/altera_lite/15.1/nios2eds/bin/gnu/h-x86_64-mingw32/bin/../lib/gcc/nios2-elf/4.9.2/../../../../../H-x86_64-mingw32/nios2-elf/lib/mhw-mulx\libc.a(lib_a-locale.o)
                0x000000000000b0ac                __locale_charset
 .text.__locale_mb_cur_max
                0x000000000000b0b8       0x10 c:/altera_lite/15.1/nios2eds/bin/gnu/h-x86_64-mingw32/bin/../lib/gcc/nios2-elf/4.9.2/../../../../../H-x86_64-mingw32/nios2-elf/lib/mhw-mulx\libc.a(lib_a-locale.o)
                0x000000000000b0b8                __locale_mb_cur_max
 .text.__locale_msgcharset
                0x000000000000b0c8        0xc c:/altera_lite/15.1/nios2eds/bin/gnu/h-x86_64-mingw32/bin/../lib/gcc/nios2-elf/4.9.2/../../../../../H-x86_64-mingw32/nios2-elf/lib/mhw-mulx\libc.a(lib_a-locale.o)
                0x000000000000b0c8                __locale_msgcharset
 .text.__locale_cjk_lang
                0x000000000000b0d4        0x8 c:/altera_lite/15.1/nios2eds/bin/gnu/h-x86_64-mingw32/bin/../lib/gcc/nios2-elf/4.9.2/../../../../../H-x86_64-mingw32/nios2-elf/lib/mhw-mulx\libc.a(lib_a-locale.o)
                0x000000000000b0d4                __locale_cjk_lang
 .text._localeconv_r
                0x000000000000b0dc        0xc c:/altera_lite/15.1/nios2eds/bin/gnu/h-x86_64-mingw32/bin/../lib/gcc/nios2-elf/4.9.2/../../../../../H-x86_64-mingw32/nios2-elf/lib/mhw-mulx\libc.a(lib_a-locale.o)
                0x000000000000b0dc                _localeconv_r
 .text.setlocale
                0x000000000000b0e8       0x1c c:/altera_lite/15.1/nios2eds/bin/gnu/h-x86_64-mingw32/bin/../lib/gcc/nios2-elf/4.9.2/../../../../../H-x86_64-mingw32/nios2-elf/lib/mhw-mulx\libc.a(lib_a-locale.o)
                0x000000000000b0e8                setlocale
 .text.localeconv
                0x000000000000b104        0xc c:/altera_lite/15.1/nios2eds/bin/gnu/h-x86_64-mingw32/bin/../lib/gcc/nios2-elf/4.9.2/../../../../../H-x86_64-mingw32/nios2-elf/lib/mhw-mulx\libc.a(lib_a-locale.o)
                0x000000000000b104                localeconv
 .text          0x000000000000b110        0x0 c:/altera_lite/15.1/nios2eds/bin/gnu/h-x86_64-mingw32/bin/../lib/gcc/nios2-elf/4.9.2/../../../../../H-x86_64-mingw32/nios2-elf/lib/mhw-mulx\libc.a(lib_a-mallocr.o)
 .text._malloc_r
                0x000000000000b110      0x7a8 c:/altera_lite/15.1/nios2eds/bin/gnu/h-x86_64-mingw32/bin/../lib/gcc/nios2-elf/4.9.2/../../../../../H-x86_64-mingw32/nios2-elf/lib/mhw-mulx\libc.a(lib_a-mallocr.o)
                0x000000000000b110                _malloc_r
 .text          0x000000000000b8b8        0x0 c:/altera_lite/15.1/nios2eds/bin/gnu/h-x86_64-mingw32/bin/../lib/gcc/nios2-elf/4.9.2/../../../../../H-x86_64-mingw32/nios2-elf/lib/mhw-mulx\libc.a(lib_a-memchr.o)
 .text.memchr   0x000000000000b8b8       0xe8 c:/altera_lite/15.1/nios2eds/bin/gnu/h-x86_64-mingw32/bin/../lib/gcc/nios2-elf/4.9.2/../../../../../H-x86_64-mingw32/nios2-elf/lib/mhw-mulx\libc.a(lib_a-memchr.o)
                0x000000000000b8b8                memchr
 .text          0x000000000000b9a0        0x0 c:/altera_lite/15.1/nios2eds/bin/gnu/h-x86_64-mingw32/bin/../lib/gcc/nios2-elf/4.9.2/../../../../../H-x86_64-mingw32/nios2-elf/lib/mhw-mulx\libc.a(lib_a-mprec.o)
 .text._Balloc  0x000000000000b9a0       0xa8 c:/altera_lite/15.1/nios2eds/bin/gnu/h-x86_64-mingw32/bin/../lib/gcc/nios2-elf/4.9.2/../../../../../H-x86_64-mingw32/nios2-elf/lib/mhw-mulx\libc.a(lib_a-mprec.o)
                0x000000000000b9a0                _Balloc
 .text._Bfree   0x000000000000ba48       0x28 c:/altera_lite/15.1/nios2eds/bin/gnu/h-x86_64-mingw32/bin/../lib/gcc/nios2-elf/4.9.2/../../../../../H-x86_64-mingw32/nios2-elf/lib/mhw-mulx\libc.a(lib_a-mprec.o)
                0x000000000000ba48                _Bfree
 .text.__multadd
                0x000000000000ba70      0x120 c:/altera_lite/15.1/nios2eds/bin/gnu/h-x86_64-mingw32/bin/../lib/gcc/nios2-elf/4.9.2/../../../../../H-x86_64-mingw32/nios2-elf/lib/mhw-mulx\libc.a(lib_a-mprec.o)
                0x000000000000ba70                __multadd
 .text.__s2b    0x000000000000bb90      0x104 c:/altera_lite/15.1/nios2eds/bin/gnu/h-x86_64-mingw32/bin/../lib/gcc/nios2-elf/4.9.2/../../../../../H-x86_64-mingw32/nios2-elf/lib/mhw-mulx\libc.a(lib_a-mprec.o)
                0x000000000000bb90                __s2b
 .text.__hi0bits
                0x000000000000bc94       0x68 c:/altera_lite/15.1/nios2eds/bin/gnu/h-x86_64-mingw32/bin/../lib/gcc/nios2-elf/4.9.2/../../../../../H-x86_64-mingw32/nios2-elf/lib/mhw-mulx\libc.a(lib_a-mprec.o)
                0x000000000000bc94                __hi0bits
 .text.__lo0bits
                0x000000000000bcfc       0xb0 c:/altera_lite/15.1/nios2eds/bin/gnu/h-x86_64-mingw32/bin/../lib/gcc/nios2-elf/4.9.2/../../../../../H-x86_64-mingw32/nios2-elf/lib/mhw-mulx\libc.a(lib_a-mprec.o)
                0x000000000000bcfc                __lo0bits
 .text.__i2b    0x000000000000bdac       0x3c c:/altera_lite/15.1/nios2eds/bin/gnu/h-x86_64-mingw32/bin/../lib/gcc/nios2-elf/4.9.2/../../../../../H-x86_64-mingw32/nios2-elf/lib/mhw-mulx\libc.a(lib_a-mprec.o)
                0x000000000000bdac                __i2b
 .text.__multiply
                0x000000000000bde8      0x1fc c:/altera_lite/15.1/nios2eds/bin/gnu/h-x86_64-mingw32/bin/../lib/gcc/nios2-elf/4.9.2/../../../../../H-x86_64-mingw32/nios2-elf/lib/mhw-mulx\libc.a(lib_a-mprec.o)
                0x000000000000bde8                __multiply
 .text.__pow5mult
                0x000000000000bfe4      0x140 c:/altera_lite/15.1/nios2eds/bin/gnu/h-x86_64-mingw32/bin/../lib/gcc/nios2-elf/4.9.2/../../../../../H-x86_64-mingw32/nios2-elf/lib/mhw-mulx\libc.a(lib_a-mprec.o)
                0x000000000000bfe4                __pow5mult
 .text.__lshift
                0x000000000000c124      0x150 c:/altera_lite/15.1/nios2eds/bin/gnu/h-x86_64-mingw32/bin/../lib/gcc/nios2-elf/4.9.2/../../../../../H-x86_64-mingw32/nios2-elf/lib/mhw-mulx\libc.a(lib_a-mprec.o)
                0x000000000000c124                __lshift
 .text.__mcmp   0x000000000000c274       0x60 c:/altera_lite/15.1/nios2eds/bin/gnu/h-x86_64-mingw32/bin/../lib/gcc/nios2-elf/4.9.2/../../../../../H-x86_64-mingw32/nios2-elf/lib/mhw-mulx\libc.a(lib_a-mprec.o)
                0x000000000000c274                __mcmp
 .text.__mdiff  0x000000000000c2d4      0x198 c:/altera_lite/15.1/nios2eds/bin/gnu/h-x86_64-mingw32/bin/../lib/gcc/nios2-elf/4.9.2/../../../../../H-x86_64-mingw32/nios2-elf/lib/mhw-mulx\libc.a(lib_a-mprec.o)
                0x000000000000c2d4                __mdiff
 .text.__ulp    0x000000000000c46c       0x60 c:/altera_lite/15.1/nios2eds/bin/gnu/h-x86_64-mingw32/bin/../lib/gcc/nios2-elf/4.9.2/../../../../../H-x86_64-mingw32/nios2-elf/lib/mhw-mulx\libc.a(lib_a-mprec.o)
                0x000000000000c46c                __ulp
 .text.__b2d    0x000000000000c4cc      0x11c c:/altera_lite/15.1/nios2eds/bin/gnu/h-x86_64-mingw32/bin/../lib/gcc/nios2-elf/4.9.2/../../../../../H-x86_64-mingw32/nios2-elf/lib/mhw-mulx\libc.a(lib_a-mprec.o)
                0x000000000000c4cc                __b2d
 .text.__d2b    0x000000000000c5e8      0x13c c:/altera_lite/15.1/nios2eds/bin/gnu/h-x86_64-mingw32/bin/../lib/gcc/nios2-elf/4.9.2/../../../../../H-x86_64-mingw32/nios2-elf/lib/mhw-mulx\libc.a(lib_a-mprec.o)
                0x000000000000c5e8                __d2b
 .text.__ratio  0x000000000000c724       0xa4 c:/altera_lite/15.1/nios2eds/bin/gnu/h-x86_64-mingw32/bin/../lib/gcc/nios2-elf/4.9.2/../../../../../H-x86_64-mingw32/nios2-elf/lib/mhw-mulx\libc.a(lib_a-mprec.o)
                0x000000000000c724                __ratio
 .text._mprec_log10
                0x000000000000c7c8       0x74 c:/altera_lite/15.1/nios2eds/bin/gnu/h-x86_64-mingw32/bin/../lib/gcc/nios2-elf/4.9.2/../../../../../H-x86_64-mingw32/nios2-elf/lib/mhw-mulx\libc.a(lib_a-mprec.o)
                0x000000000000c7c8                _mprec_log10
 .text.__copybits
                0x000000000000c83c       0x78 c:/altera_lite/15.1/nios2eds/bin/gnu/h-x86_64-mingw32/bin/../lib/gcc/nios2-elf/4.9.2/../../../../../H-x86_64-mingw32/nios2-elf/lib/mhw-mulx\libc.a(lib_a-mprec.o)
                0x000000000000c83c                __copybits
 .text.__any_on
                0x000000000000c8b4       0x8c c:/altera_lite/15.1/nios2eds/bin/gnu/h-x86_64-mingw32/bin/../lib/gcc/nios2-elf/4.9.2/../../../../../H-x86_64-mingw32/nios2-elf/lib/mhw-mulx\libc.a(lib_a-mprec.o)
                0x000000000000c8b4                __any_on
 .text          0x000000000000c940        0x0 c:/altera_lite/15.1/nios2eds/bin/gnu/h-x86_64-mingw32/bin/../lib/gcc/nios2-elf/4.9.2/../../../../../H-x86_64-mingw32/nios2-elf/lib/mhw-mulx\libc.a(lib_a-s_fpclassify.o)
 .text.__fpclassifyd
                0x000000000000c940       0x74 c:/altera_lite/15.1/nios2eds/bin/gnu/h-x86_64-mingw32/bin/../lib/gcc/nios2-elf/4.9.2/../../../../../H-x86_64-mingw32/nios2-elf/lib/mhw-mulx\libc.a(lib_a-s_fpclassify.o)
                0x000000000000c940                __fpclassifyd
 .text          0x000000000000c9b4        0x0 c:/altera_lite/15.1/nios2eds/bin/gnu/h-x86_64-mingw32/bin/../lib/gcc/nios2-elf/4.9.2/../../../../../H-x86_64-mingw32/nios2-elf/lib/mhw-mulx\libc.a(lib_a-sbrkr.o)
 .text._sbrk_r  0x000000000000c9b4       0x54 c:/altera_lite/15.1/nios2eds/bin/gnu/h-x86_64-mingw32/bin/../lib/gcc/nios2-elf/4.9.2/../../../../../H-x86_64-mingw32/nios2-elf/lib/mhw-mulx\libc.a(lib_a-sbrkr.o)
                0x000000000000c9b4                _sbrk_r
 .text          0x000000000000ca08        0x0 c:/altera_lite/15.1/nios2eds/bin/gnu/h-x86_64-mingw32/bin/../lib/gcc/nios2-elf/4.9.2/../../../../../H-x86_64-mingw32/nios2-elf/lib/mhw-mulx\libc.a(lib_a-strcmp.o)
 .text.strcmp   0x000000000000ca08       0xa4 c:/altera_lite/15.1/nios2eds/bin/gnu/h-x86_64-mingw32/bin/../lib/gcc/nios2-elf/4.9.2/../../../../../H-x86_64-mingw32/nios2-elf/lib/mhw-mulx\libc.a(lib_a-strcmp.o)
                0x000000000000ca08                strcmp
 .text          0x000000000000caac        0x0 c:/altera_lite/15.1/nios2eds/bin/gnu/h-x86_64-mingw32/bin/../lib/gcc/nios2-elf/4.9.2/../../../../../H-x86_64-mingw32/nios2-elf/lib/mhw-mulx\libc.a(lib_a-strlen.o)
 .text.strlen   0x000000000000caac       0x98 c:/altera_lite/15.1/nios2eds/bin/gnu/h-x86_64-mingw32/bin/../lib/gcc/nios2-elf/4.9.2/../../../../../H-x86_64-mingw32/nios2-elf/lib/mhw-mulx\libc.a(lib_a-strlen.o)
                0x000000000000caac                strlen
 .text          0x000000000000cb44        0x0 c:/altera_lite/15.1/nios2eds/bin/gnu/h-x86_64-mingw32/bin/../lib/gcc/nios2-elf/4.9.2/../../../../../H-x86_64-mingw32/nios2-elf/lib/mhw-mulx\libc.a(lib_a-svfiprintf.o)
 .text.__ssprint_r
                0x000000000000cb44      0x1cc c:/altera_lite/15.1/nios2eds/bin/gnu/h-x86_64-mingw32/bin/../lib/gcc/nios2-elf/4.9.2/../../../../../H-x86_64-mingw32/nios2-elf/lib/mhw-mulx\libc.a(lib_a-svfiprintf.o)
                0x000000000000cb44                __ssprint_r
 .text.___svfiprintf_internal_r
                0x000000000000cd10     0x1038 c:/altera_lite/15.1/nios2eds/bin/gnu/h-x86_64-mingw32/bin/../lib/gcc/nios2-elf/4.9.2/../../../../../H-x86_64-mingw32/nios2-elf/lib/mhw-mulx\libc.a(lib_a-svfiprintf.o)
                0x000000000000cd10                ___svfiprintf_internal_r
 .text          0x000000000000dd48        0x0 c:/altera_lite/15.1/nios2eds/bin/gnu/h-x86_64-mingw32/bin/../lib/gcc/nios2-elf/4.9.2/../../../../../H-x86_64-mingw32/nios2-elf/lib/mhw-mulx\libc.a(lib_a-callocr.o)
 .text._calloc_r
                0x000000000000dd48       0xc4 c:/altera_lite/15.1/nios2eds/bin/gnu/h-x86_64-mingw32/bin/../lib/gcc/nios2-elf/4.9.2/../../../../../H-x86_64-mingw32/nios2-elf/lib/mhw-mulx\libc.a(lib_a-callocr.o)
                0x000000000000dd48                _calloc_r
 .text          0x000000000000de0c        0x0 c:/altera_lite/15.1/nios2eds/bin/gnu/h-x86_64-mingw32/bin/../lib/gcc/nios2-elf/4.9.2/../../../../../H-x86_64-mingw32/nios2-elf/lib/mhw-mulx\libc.a(lib_a-freer.o)
 .text._malloc_trim_r
                0x000000000000de0c      0x124 c:/altera_lite/15.1/nios2eds/bin/gnu/h-x86_64-mingw32/bin/../lib/gcc/nios2-elf/4.9.2/../../../../../H-x86_64-mingw32/nios2-elf/lib/mhw-mulx\libc.a(lib_a-freer.o)
                0x000000000000de0c                _malloc_trim_r
 .text._free_r  0x000000000000df30      0x2f0 c:/altera_lite/15.1/nios2eds/bin/gnu/h-x86_64-mingw32/bin/../lib/gcc/nios2-elf/4.9.2/../../../../../H-x86_64-mingw32/nios2-elf/lib/mhw-mulx\libc.a(lib_a-freer.o)
                0x000000000000df30                _free_r
 .text          0x000000000000e220        0x0 c:/altera_lite/15.1/nios2eds/bin/gnu/h-x86_64-mingw32/bin/../lib/gcc/nios2-elf/4.9.2/../../../../../H-x86_64-mingw32/nios2-elf/lib/mhw-mulx\libc.a(lib_a-int_errno.o)
 .text          0x000000000000e220        0x0 c:/altera_lite/15.1/nios2eds/bin/gnu/h-x86_64-mingw32/bin/../lib/gcc/nios2-elf/4.9.2/../../../../../H-x86_64-mingw32/nios2-elf/lib/mhw-mulx\libc.a(lib_a-memmove.o)
 .text.memmove  0x000000000000e220      0x15c c:/altera_lite/15.1/nios2eds/bin/gnu/h-x86_64-mingw32/bin/../lib/gcc/nios2-elf/4.9.2/../../../../../H-x86_64-mingw32/nios2-elf/lib/mhw-mulx\libc.a(lib_a-memmove.o)
                0x000000000000e220                memmove
 .text          0x000000000000e37c        0x0 c:/altera_lite/15.1/nios2eds/bin/gnu/h-x86_64-mingw32/bin/../lib/gcc/nios2-elf/4.9.2/../../../../../H-x86_64-mingw32/nios2-elf/lib/mhw-mulx\libc.a(lib_a-memset.o)
 .text.memset   0x000000000000e37c      0x124 c:/altera_lite/15.1/nios2eds/bin/gnu/h-x86_64-mingw32/bin/../lib/gcc/nios2-elf/4.9.2/../../../../../H-x86_64-mingw32/nios2-elf/lib/mhw-mulx\libc.a(lib_a-memset.o)
                0x000000000000e37c                memset
 .text          0x000000000000e4a0        0x0 c:/altera_lite/15.1/nios2eds/bin/gnu/h-x86_64-mingw32/bin/../lib/gcc/nios2-elf/4.9.2/../../../../../H-x86_64-mingw32/nios2-elf/lib/mhw-mulx\libc.a(lib_a-reallocr.o)
 .text._realloc_r
                0x000000000000e4a0      0x568 c:/altera_lite/15.1/nios2eds/bin/gnu/h-x86_64-mingw32/bin/../lib/gcc/nios2-elf/4.9.2/../../../../../H-x86_64-mingw32/nios2-elf/lib/mhw-mulx\libc.a(lib_a-reallocr.o)
                0x000000000000e4a0                _realloc_r
 .text          0x000000000000ea08      0x5c0 c:/altera_lite/15.1/nios2eds/bin/gnu/h-x86_64-mingw32/bin/../lib/gcc/nios2-elf/4.9.2/mhw-mulx\libgcc.a(_udivdi3.o)
                0x000000000000ea08                __udivdi3
 .text          0x000000000000efc8      0x590 c:/altera_lite/15.1/nios2eds/bin/gnu/h-x86_64-mingw32/bin/../lib/gcc/nios2-elf/4.9.2/mhw-mulx\libgcc.a(_umoddi3.o)
                0x000000000000efc8                __umoddi3
 .text          0x000000000000f558       0xa4 c:/altera_lite/15.1/nios2eds/bin/gnu/h-x86_64-mingw32/bin/../lib/gcc/nios2-elf/4.9.2/mhw-mulx\libgcc.a(floatunsidf.o)
                0x000000000000f558                __floatunsidf
 .text          0x000000000000f5fc       0xe4 C:/Users/Eldin/Documents/GitHub/Neon3D/FPGA/Software/Neon3DSoftware_bsp/\libucosii_bsp.a(alt_load.o)
                0x000000000000f660                alt_load
 .text          0x000000000000f6e0       0xd4 C:/Users/Eldin/Documents/GitHub/Neon3D/FPGA/Software/Neon3DSoftware_bsp/\libucosii_bsp.a(alt_main.o)
                0x000000000000f6e0                alt_main
 .text          0x000000000000f7b4       0xb0 C:/Users/Eldin/Documents/GitHub/Neon3D/FPGA/Software/Neon3DSoftware_bsp/\libucosii_bsp.a(alt_sbrk.o)
                0x000000000000f7b4                sbrk
 .text          0x000000000000f864      0x11c C:/Users/Eldin/Documents/GitHub/Neon3D/FPGA/Software/Neon3DSoftware_bsp/\libucosii_bsp.a(alt_env_lock.o)
                0x000000000000f864                __env_lock
                0x000000000000f924                __env_unlock
 .text          0x000000000000f980      0x1f0 C:/Users/Eldin/Documents/GitHub/Neon3D/FPGA/Software/Neon3DSoftware_bsp/\libucosii_bsp.a(alt_malloc_lock.o)
                0x000000000000f980                __malloc_lock
                0x000000000000faa0                __malloc_unlock
 .text          0x000000000000fb70     0x1ff0 C:/Users/Eldin/Documents/GitHub/Neon3D/FPGA/Software/Neon3DSoftware_bsp/\libucosii_bsp.a(os_core.o)
                0x000000000000fb70                OSEventNameGet
                0x000000000000fc90                OSEventNameSet
                0x000000000000fdcc                OSEventPendMulti
                0x00000000000103dc                OSInit
                0x0000000000010430                OSIntEnter
                0x00000000000104ac                OSIntExit
                0x00000000000105a0                OSSchedLock
                0x0000000000010628                OSSchedUnlock
                0x0000000000010700                OSStart
                0x000000000001076c                OSStatInit
                0x0000000000010818                OSTimeTick
                0x0000000000010a34                OSVersion
                0x0000000000010a54                OS_Dummy
                0x0000000000010a70                OS_EventTaskRdy
                0x0000000000010c08                OS_EventTaskWait
                0x0000000000010d14                OS_EventTaskWaitMulti
                0x0000000000010e60                OS_EventTaskRemove
                0x0000000000010f14                OS_EventTaskRemoveMulti
                0x0000000000011010                OS_EventWaitListInit
                0x00000000000113d4                OS_MemClr
                0x0000000000011424                OS_MemCopy
                0x0000000000011488                OS_Sched
                0x00000000000115c4                OS_StrCopy
                0x0000000000011638                OS_StrLen
                0x000000000001168c                OS_TaskIdle
                0x00000000000116e8                OS_TaskStat
                0x00000000000117c4                OS_TaskStatStkChk
                0x000000000001188c                OS_TCBInit
 .text          0x0000000000011b60      0x18c C:/Users/Eldin/Documents/GitHub/Neon3D/FPGA/Software/Neon3DSoftware_bsp/\libucosii_bsp.a(os_dbg.o)
                0x0000000000011b60                OSDebugInit
 .text          0x0000000000011cec     0x181c C:/Users/Eldin/Documents/GitHub/Neon3D/FPGA/Software/Neon3DSoftware_bsp/\libucosii_bsp.a(os_flag.o)
                0x0000000000011cec                OSFlagAccept
                0x0000000000011ff4                OSFlagCreate
                0x000000000001211c                OSFlagDel
                0x000000000001238c                OSFlagNameGet
                0x00000000000124bc                OSFlagNameSet
                0x000000000001260c                OSFlagPend
                0x0000000000012bfc                OSFlagPendGetFlagsRdy
                0x0000000000012c64                OSFlagPost
                0x0000000000012fec                OSFlagQuery
                0x0000000000013274                OS_FlagInit
                0x0000000000013468                OS_FlagUnlink
 .text          0x0000000000013508      0x784 C:/Users/Eldin/Documents/GitHub/Neon3D/FPGA/Software/Neon3DSoftware_bsp/\libucosii_bsp.a(os_mem.o)
                0x0000000000013508                OSMemCreate
                0x00000000000136fc                OSMemGet
                0x00000000000137ec                OSMemNameGet
                0x00000000000138e4                OSMemNameSet
                0x00000000000139fc                OSMemPut
                0x0000000000013ad4                OSMemQuery
                0x0000000000013bbc                OS_MemInit
 .text          0x0000000000013c8c     0x1210 C:/Users/Eldin/Documents/GitHub/Neon3D/FPGA/Software/Neon3DSoftware_bsp/\libucosii_bsp.a(os_q.o)
                0x0000000000013c8c                OSQAccept
                0x0000000000013dcc                OSQCreate
                0x0000000000013fc8                OSQDel
                0x0000000000014290                OSQFlush
                0x0000000000014348                OSQPend
                0x0000000000014644                OSQPendAbort
                0x00000000000147b0                OSQPost
                0x0000000000014918                OSQPostFront
                0x0000000000014a88                OSQPostOpt
                0x0000000000014c94                OSQQuery
                0x0000000000014df0                OS_QInit
 .text          0x0000000000014e9c      0xb08 C:/Users/Eldin/Documents/GitHub/Neon3D/FPGA/Software/Neon3DSoftware_bsp/\libucosii_bsp.a(os_sem.o)
                0x0000000000014e9c                OSSemAccept
                0x0000000000014f4c                OSSemCreate
                0x000000000001504c                OSSemDel
                0x00000000000152b4                OSSemPend
                0x000000000001551c                OSSemPendAbort
                0x0000000000015688                OSSemPost
                0x0000000000015798                OSSemQuery
                0x00000000000158a8                OSSemSet
 .text          0x00000000000159a4     0x18f4 C:/Users/Eldin/Documents/GitHub/Neon3D/FPGA/Software/Neon3DSoftware_bsp/\libucosii_bsp.a(os_task.o)
                0x00000000000159a4                OSTaskChangePrio
                0x0000000000015ee4                OSTaskCreate
                0x00000000000160a0                OSTaskCreateExt
                0x000000000001628c                OSTaskDel
                0x000000000001666c                OSTaskDelReq
                0x00000000000167c4                OSTaskNameGet
                0x000000000001696c                OSTaskNameSet
                0x0000000000016b2c                OSTaskResume
                0x0000000000016d24                OSTaskStkChk
                0x0000000000016eec                OSTaskSuspend
                0x0000000000017100                OSTaskQuery
                0x000000000001722c                OS_TaskStkClr
 .text          0x0000000000017298      0x568 C:/Users/Eldin/Documents/GitHub/Neon3D/FPGA/Software/Neon3DSoftware_bsp/\libucosii_bsp.a(os_time.o)
                0x0000000000017298                OSTimeDly
                0x00000000000173e0                OSTimeDlyHMSM
                0x0000000000017548                OSTimeDlyResume
                0x0000000000017738                OSTimeGet
                0x000000000001779c                OSTimeSet
 .text          0x0000000000017800      0x444 C:/Users/Eldin/Documents/GitHub/Neon3D/FPGA/Software/Neon3DSoftware_bsp/\libucosii_bsp.a(alt_sys_init.o)
                0x0000000000017838                alt_irq_init
                0x000000000001786c                alt_sys_init
 .text          0x0000000000017c44      0x164 C:/Users/Eldin/Documents/GitHub/Neon3D/FPGA/Software/Neon3DSoftware_bsp/\libucosii_bsp.a(altera_avalon_jtag_uart_fd.o)
                0x0000000000017c44                altera_avalon_jtag_uart_read_fd
                0x0000000000017ca4                altera_avalon_jtag_uart_write_fd
                0x0000000000017d04                altera_avalon_jtag_uart_close_fd
                0x0000000000017d54                altera_avalon_jtag_uart_ioctl_fd
 .text          0x0000000000017da8      0x560 C:/Users/Eldin/Documents/GitHub/Neon3D/FPGA/Software/Neon3DSoftware_bsp/\libucosii_bsp.a(altera_avalon_jtag_uart_init.o)
                0x0000000000017da8                altera_avalon_jtag_uart_init
                0x00000000000182a0                altera_avalon_jtag_uart_close
 .text          0x0000000000018308       0xec C:/Users/Eldin/Documents/GitHub/Neon3D/FPGA/Software/Neon3DSoftware_bsp/\libucosii_bsp.a(altera_avalon_jtag_uart_ioctl.o)
                0x0000000000018308                altera_avalon_jtag_uart_ioctl
 .text          0x00000000000183f4      0x2b4 C:/Users/Eldin/Documents/GitHub/Neon3D/FPGA/Software/Neon3DSoftware_bsp/\libucosii_bsp.a(altera_avalon_jtag_uart_read.o)
                0x00000000000183f4                altera_avalon_jtag_uart_read
 .text          0x00000000000186a8      0x2c0 C:/Users/Eldin/Documents/GitHub/Neon3D/FPGA/Software/Neon3DSoftware_bsp/\libucosii_bsp.a(altera_avalon_jtag_uart_write.o)
                0x00000000000186a8                altera_avalon_jtag_uart_write
 .text          0x0000000000018968       0xf8 C:/Users/Eldin/Documents/GitHub/Neon3D/FPGA/Software/Neon3DSoftware_bsp/\libucosii_bsp.a(altera_avalon_timer_sc.o)
                0x00000000000189e0                alt_avalon_timer_sc_init
 .text          0x0000000000018a60      0x4d8 C:/Users/Eldin/Documents/GitHub/Neon3D/FPGA/Software/Neon3DSoftware_bsp/\libucosii_bsp.a(altera_up_avalon_character_lcd.o)
                0x0000000000018a60                get_DDRAM_addr
                0x0000000000018ad4                alt_up_character_lcd_send_cmd
                0x0000000000018b10                alt_up_character_lcd_init
                0x0000000000018b44                alt_up_character_lcd_open_dev
                0x0000000000018b84                alt_up_character_lcd_write
                0x0000000000018bfc                alt_up_character_lcd_string
                0x0000000000018c70                alt_up_character_lcd_write_fd
                0x0000000000018cc0                alt_up_character_lcd_set_cursor_pos
                0x0000000000018d34                alt_up_character_lcd_shift_cursor
                0x0000000000018dbc                alt_up_character_lcd_shift_display
                0x0000000000018e44                alt_up_character_lcd_erase_pos
                0x0000000000018ed0                alt_up_character_lcd_cursor_off
                0x0000000000018f04                alt_up_character_lcd_cursor_blink_on
 .text          0x0000000000018f38      0x388 C:/Users/Eldin/Documents/GitHub/Neon3D/FPGA/Software/Neon3DSoftware_bsp/\libucosii_bsp.a(altera_up_avalon_irda.o)
                0x0000000000018f38                alt_up_irda_enable_read_interrupt
                0x0000000000018f90                alt_up_irda_disable_read_interrupt
                0x0000000000018fec                alt_up_irda_get_used_space_in_read_FIFO
                0x000000000001902c                alt_up_irda_get_available_space_in_write_FIFO
                0x0000000000019068                alt_up_irda_check_parity
                0x00000000000190ac                alt_up_irda_write_data
                0x00000000000190ec                alt_up_irda_read_data
                0x0000000000019160                alt_up_irda_read_fd
                0x00000000000191f0                alt_up_irda_write_fd
                0x0000000000019280                alt_up_irda_open_dev
 .text          0x00000000000192c0      0x6b4 C:/Users/Eldin/Documents/GitHub/Neon3D/FPGA/Software/Neon3DSoftware_bsp/\libucosii_bsp.a(altera_up_avalon_ps2.o)
                0x00000000000192c0                read_RI_bit
                0x00000000000192f4                read_RE_bit
                0x0000000000019324                read_CE_bit
                0x0000000000019358                read_num_bytes_available
                0x0000000000019388                read_data_valid
                0x00000000000193bc                read_data_byte
                0x00000000000193e8                alt_up_ps2_init
                0x00000000000194ac                alt_up_ps2_enable_read_interrupt
                0x0000000000019504                alt_up_ps2_disable_read_interrupt
                0x0000000000019560                alt_up_ps2_write_data_byte
                0x00000000000195d4                alt_up_ps2_wait_for_ack
                0x0000000000019644                alt_up_ps2_write_data_byte_with_ack
                0x00000000000196a8                alt_up_ps2_read_data_byte_timeout
                0x000000000001974c                alt_up_ps2_read_data_byte
                0x00000000000197bc                alt_up_ps2_clear_fifo
                0x0000000000019810                alt_up_ps2_read_fd
                0x000000000001989c                alt_up_ps2_write_fd
                0x0000000000019934                alt_up_ps2_open_dev
 .text          0x0000000000019974      0x38c C:/Users/Eldin/Documents/GitHub/Neon3D/FPGA/Software/Neon3DSoftware_bsp/\libucosii_bsp.a(altera_up_avalon_rs232.o)
                0x0000000000019974                alt_up_rs232_enable_read_interrupt
                0x00000000000199cc                alt_up_rs232_disable_read_interrupt
                0x0000000000019a28                alt_up_rs232_get_used_space_in_read_FIFO
                0x0000000000019a68                alt_up_rs232_get_available_space_in_write_FIFO
                0x0000000000019aa4                alt_up_rs232_check_parity
                0x0000000000019ae8                alt_up_rs232_write_data
                0x0000000000019b28                alt_up_rs232_read_data
                0x0000000000019b9c                alt_up_rs232_read_fd
                0x0000000000019c2c                alt_up_rs232_write_fd
                0x0000000000019cc0                alt_up_rs232_open_dev
 .text          0x0000000000019d00      0x2e8 C:/Users/Eldin/Documents/GitHub/Neon3D/FPGA/Software/Neon3DSoftware_bsp/\libucosii_bsp.a(altera_up_avalon_video_character_buffer_with_dma.o)
                0x0000000000019d00                alt_up_char_buffer_init
                0x0000000000019d80                alt_up_char_buffer_open_dev
                0x0000000000019dc0                alt_up_char_buffer_draw
                0x0000000000019e8c                alt_up_char_buffer_string
                0x0000000000019f8c                alt_up_char_buffer_clear
 .text          0x0000000000019fe8      0x140 C:/Users/Eldin/Documents/GitHub/Neon3D/FPGA/Software/Neon3DSoftware_bsp/\libucosii_bsp.a(alt_alarm_start.o)
                0x0000000000019fe8                alt_alarm_start
 .text          0x000000000001a128      0x120 C:/Users/Eldin/Documents/GitHub/Neon3D/FPGA/Software/Neon3DSoftware_bsp/\libucosii_bsp.a(alt_close.o)
                0x000000000001a178                close
 .text          0x000000000001a248       0x1c C:/Users/Eldin/Documents/GitHub/Neon3D/FPGA/Software/Neon3DSoftware_bsp/\libucosii_bsp.a(alt_dcache_flush_all.o)
                0x000000000001a248                alt_dcache_flush_all
 .text          0x000000000001a264       0x2c C:/Users/Eldin/Documents/GitHub/Neon3D/FPGA/Software/Neon3DSoftware_bsp/\libucosii_bsp.a(alt_dev.o)
 .text          0x000000000001a290       0xf4 C:/Users/Eldin/Documents/GitHub/Neon3D/FPGA/Software/Neon3DSoftware_bsp/\libucosii_bsp.a(alt_dev_llist_insert.o)
                0x000000000001a2e0                alt_dev_llist_insert
 .text          0x000000000001a384       0x5c C:/Users/Eldin/Documents/GitHub/Neon3D/FPGA/Software/Neon3DSoftware_bsp/\libucosii_bsp.a(alt_do_ctors.o)
                0x000000000001a384                _do_ctors
 .text          0x000000000001a3e0       0x5c C:/Users/Eldin/Documents/GitHub/Neon3D/FPGA/Software/Neon3DSoftware_bsp/\libucosii_bsp.a(alt_do_dtors.o)
                0x000000000001a3e0                _do_dtors
 .text          0x000000000001a43c        0x0 C:/Users/Eldin/Documents/GitHub/Neon3D/FPGA/Software/Neon3DSoftware_bsp/\libucosii_bsp.a(alt_errno.o)
 .text          0x000000000001a43c       0x90 C:/Users/Eldin/Documents/GitHub/Neon3D/FPGA/Software/Neon3DSoftware_bsp/\libucosii_bsp.a(alt_find_dev.o)
                0x000000000001a43c                alt_find_dev
 .text          0x000000000001a4cc       0x30 C:/Users/Eldin/Documents/GitHub/Neon3D/FPGA/Software/Neon3DSoftware_bsp/\libucosii_bsp.a(alt_icache_flush_all.o)
                0x000000000001a4cc                alt_icache_flush_all
 .text          0x000000000001a4fc      0x138 C:/Users/Eldin/Documents/GitHub/Neon3D/FPGA/Software/Neon3DSoftware_bsp/\libucosii_bsp.a(alt_io_redirect.o)
                0x000000000001a5bc                alt_io_redirect
 .text          0x000000000001a634      0x1b0 C:/Users/Eldin/Documents/GitHub/Neon3D/FPGA/Software/Neon3DSoftware_bsp/\libucosii_bsp.a(alt_irq_register.o)
                0x000000000001a634                alt_irq_register
 .text          0x000000000001a7e4        0x0 C:/Users/Eldin/Documents/GitHub/Neon3D/FPGA/Software/Neon3DSoftware_bsp/\libucosii_bsp.a(alt_irq_vars.o)
 .text          0x000000000001a7e4      0x274 C:/Users/Eldin/Documents/GitHub/Neon3D/FPGA/Software/Neon3DSoftware_bsp/\libucosii_bsp.a(alt_open.o)
                0x000000000001a900                open
 .text          0x000000000001aa58       0x60 C:/Users/Eldin/Documents/GitHub/Neon3D/FPGA/Software/Neon3DSoftware_bsp/\libucosii_bsp.a(alt_release_fd.o)
                0x000000000001aa58                alt_release_fd
 .text          0x000000000001aab8      0x19c C:/Users/Eldin/Documents/GitHub/Neon3D/FPGA/Software/Neon3DSoftware_bsp/\libucosii_bsp.a(alt_tick.o)
                0x000000000001aab8                alt_alarm_stop
                0x000000000001ab50                alt_tick
 .text          0x000000000001ac54       0x20 C:/Users/Eldin/Documents/GitHub/Neon3D/FPGA/Software/Neon3DSoftware_bsp/\libucosii_bsp.a(altera_nios2_gen2_irq.o)
                0x000000000001ac54                altera_nios2_gen2_irq_init
 .text          0x000000000001ac74       0xd0 C:/Users/Eldin/Documents/GitHub/Neon3D/FPGA/Software/Neon3DSoftware_bsp/\libucosii_bsp.a(os_cpu_a.o)
                0x000000000001ac74                OSCtxSw
                0x000000000001ac74                OSIntCtxSw
                0x000000000001ad00                OSStartHighRdy
                0x000000000001ad20                OSStartTsk
 .text          0x000000000001ad44      0x264 C:/Users/Eldin/Documents/GitHub/Neon3D/FPGA/Software/Neon3DSoftware_bsp/\libucosii_bsp.a(os_cpu_c.o)
                0x000000000001ad44                OSTaskStkInit
                0x000000000001aea0                OSTaskCreateHook
                0x000000000001aec0                OSTaskDelHook
                0x000000000001aee0                OSTaskSwHook
                0x000000000001aefc                OSTaskStatHook
                0x000000000001af18                OSTimeTickHook
                0x000000000001af34                OSInitHookBegin
                0x000000000001af50                OSInitHookEnd
                0x000000000001af6c                OSTaskIdleHook
                0x000000000001af88                OSTCBInitHook
 .text          0x000000000001afa8      0x114 C:/Users/Eldin/Documents/GitHub/Neon3D/FPGA/Software/Neon3DSoftware_bsp/\libucosii_bsp.a(alt_find_file.o)
                0x000000000001afa8                alt_find_file
 .text          0x000000000001b0bc       0xfc C:/Users/Eldin/Documents/GitHub/Neon3D/FPGA/Software/Neon3DSoftware_bsp/\libucosii_bsp.a(alt_get_fd.o)
                0x000000000001b0bc                alt_get_fd
 .text          0x000000000001b1b8       0x8c C:/Users/Eldin/Documents/GitHub/Neon3D/FPGA/Software/Neon3DSoftware_bsp/\libucosii_bsp.a(alt_icache_flush.o)
                0x000000000001b1b8                alt_icache_flush
 .text          0x000000000001b244        0x0 C:/Users/Eldin/Documents/GitHub/Neon3D/FPGA/Software/Neon3DSoftware_bsp/\libucosii_bsp.a(alt_irq_entry.o)
 .text          0x000000000001b244        0x0 C:/Users/Eldin/Documents/GitHub/Neon3D/FPGA/Software/Neon3DSoftware_bsp/\libucosii_bsp.a(alt_irq_handler.o)
 .text          0x000000000001b244        0x0 C:/Users/Eldin/Documents/GitHub/Neon3D/FPGA/Software/Neon3DSoftware_bsp/\libucosii_bsp.a(alt_exception_entry.o)
 .text          0x000000000001b244       0x9c C:/Users/Eldin/Documents/GitHub/Neon3D/FPGA/Software/Neon3DSoftware_bsp/\libucosii_bsp.a(alt_instruction_exception_entry.o)
                0x000000000001b244                alt_exception_cause_generated_bad_addr
 .text          0x000000000001b2e0        0x0 c:/altera_lite/15.1/nios2eds/bin/gnu/h-x86_64-mingw32/bin/../lib/gcc/nios2-elf/4.9.2/../../../../../H-x86_64-mingw32/nios2-elf/lib/mhw-mulx\libc.a(lib_a-atexit.o)
 .text.atexit   0x000000000001b2e0       0x14 c:/altera_lite/15.1/nios2eds/bin/gnu/h-x86_64-mingw32/bin/../lib/gcc/nios2-elf/4.9.2/../../../../../H-x86_64-mingw32/nios2-elf/lib/mhw-mulx\libc.a(lib_a-atexit.o)
                0x000000000001b2e0                atexit
 .text          0x000000000001b2f4        0x0 c:/altera_lite/15.1/nios2eds/bin/gnu/h-x86_64-mingw32/bin/../lib/gcc/nios2-elf/4.9.2/../../../../../H-x86_64-mingw32/nios2-elf/lib/mhw-mulx\libc.a(lib_a-exit.o)
 .text.exit     0x000000000001b2f4       0x38 c:/altera_lite/15.1/nios2eds/bin/gnu/h-x86_64-mingw32/bin/../lib/gcc/nios2-elf/4.9.2/../../../../../H-x86_64-mingw32/nios2-elf/lib/mhw-mulx\libc.a(lib_a-exit.o)
                0x000000000001b2f4                exit
 .text          0x000000000001b32c        0x0 c:/altera_lite/15.1/nios2eds/bin/gnu/h-x86_64-mingw32/bin/../lib/gcc/nios2-elf/4.9.2/../../../../../H-x86_64-mingw32/nios2-elf/lib/mhw-mulx\libc.a(lib_a-memcmp.o)
 .text.memcmp   0x000000000001b32c       0x7c c:/altera_lite/15.1/nios2eds/bin/gnu/h-x86_64-mingw32/bin/../lib/gcc/nios2-elf/4.9.2/../../../../../H-x86_64-mingw32/nios2-elf/lib/mhw-mulx\libc.a(lib_a-memcmp.o)
                0x000000000001b32c                memcmp
 .text          0x000000000001b3a8        0x0 c:/altera_lite/15.1/nios2eds/bin/gnu/h-x86_64-mingw32/bin/../lib/gcc/nios2-elf/4.9.2/../../../../../H-x86_64-mingw32/nios2-elf/lib/mhw-mulx\libc.a(lib_a-__atexit.o)
 .text.__register_exitproc
                0x000000000001b3a8      0x114 c:/altera_lite/15.1/nios2eds/bin/gnu/h-x86_64-mingw32/bin/../lib/gcc/nios2-elf/4.9.2/../../../../../H-x86_64-mingw32/nios2-elf/lib/mhw-mulx\libc.a(lib_a-__atexit.o)
                0x000000000001b3a8                __register_exitproc
 .text          0x000000000001b4bc        0x0 c:/altera_lite/15.1/nios2eds/bin/gnu/h-x86_64-mingw32/bin/../lib/gcc/nios2-elf/4.9.2/../../../../../H-x86_64-mingw32/nios2-elf/lib/mhw-mulx\libc.a(lib_a-__call_atexit.o)
 .text.__call_exitprocs
                0x000000000001b4bc      0x194 c:/altera_lite/15.1/nios2eds/bin/gnu/h-x86_64-mingw32/bin/../lib/gcc/nios2-elf/4.9.2/../../../../../H-x86_64-mingw32/nios2-elf/lib/mhw-mulx\libc.a(lib_a-__call_atexit.o)
                0x000000000001b4bc                __call_exitprocs
 .text          0x000000000001b650       0x3c C:/Users/Eldin/Documents/GitHub/Neon3D/FPGA/Software/Neon3DSoftware_bsp/\libucosii_bsp.a(alt_exit.o)
                0x000000000001b650                _exit
 *(.gnu.warning.*)
 *(.fini)
                0x000000000001b68c                PROVIDE (__etext, ABSOLUTE (.))
                0x000000000001b68c                PROVIDE (_etext, ABSOLUTE (.))
                0x000000000001b68c                PROVIDE (etext, ABSOLUTE (.))
 *(.eh_frame_hdr)
                0x000000000001b68c                . = ALIGN (0x4)
                0x000000000001b68c                PROVIDE (__preinit_array_start, ABSOLUTE (.))
 *(.preinit_array)
                0x000000000001b68c                PROVIDE (__preinit_array_end, ABSOLUTE (.))
                0x000000000001b68c                PROVIDE (__init_array_start, ABSOLUTE (.))
 *(.init_array)
                0x000000000001b68c                PROVIDE (__init_array_end, ABSOLUTE (.))
                0x000000000001b68c                PROVIDE (__fini_array_start, ABSOLUTE (.))
 *(.fini_array)
                0x000000000001b68c                PROVIDE (__fini_array_end, ABSOLUTE (.))
 *(.eh_frame)
 *(.gcc_except_table .gcc_except_table.*)
 *(.dynamic)
                0x000000000001b68c                PROVIDE (__CTOR_LIST__, ABSOLUTE (.))
 *(.ctors)
 *(SORT(.ctors.*))
                0x000000000001b68c                PROVIDE (__CTOR_END__, ABSOLUTE (.))
                0x000000000001b68c                PROVIDE (__DTOR_LIST__, ABSOLUTE (.))
 *(.dtors)
 *(SORT(.dtors.*))
                0x000000000001b68c                PROVIDE (__DTOR_END__, ABSOLUTE (.))
 *(.jcr)
                0x000000000001b68c                . = ALIGN (0x4)

.rodata         0x000000000001b68c      0x9a8
                0x000000000001b68c                PROVIDE (__ram_rodata_start, ABSOLUTE (.))
                0x000000000001b68c                . = ALIGN (0x4)
 *(.rodata .rodata.* .gnu.linkonce.r.*)
 .rodata        0x000000000001b68c      0x21c obj/default/hello_ucosii.o
 .rodata.npio2_hw
                0x000000000001b8a8       0x80 c:/altera_lite/15.1/nios2eds/bin/gnu/h-x86_64-mingw32/bin/../lib/gcc/nios2-elf/4.9.2/../../../../../H-x86_64-mingw32/nios2-elf/lib/mhw-mulx\libm.a(lib_a-e_rem_pio2.o)
 .rodata.two_over_pi
                0x000000000001b928      0x108 c:/altera_lite/15.1/nios2eds/bin/gnu/h-x86_64-mingw32/bin/../lib/gcc/nios2-elf/4.9.2/../../../../../H-x86_64-mingw32/nios2-elf/lib/mhw-mulx\libm.a(lib_a-e_rem_pio2.o)
 .rodata.PIo2   0x000000000001ba30       0x40 c:/altera_lite/15.1/nios2eds/bin/gnu/h-x86_64-mingw32/bin/../lib/gcc/nios2-elf/4.9.2/../../../../../H-x86_64-mingw32/nios2-elf/lib/mhw-mulx\libm.a(lib_a-k_rem_pio2.o)
 .rodata.init_jk
                0x000000000001ba70       0x10 c:/altera_lite/15.1/nios2eds/bin/gnu/h-x86_64-mingw32/bin/../lib/gcc/nios2-elf/4.9.2/../../../../../H-x86_64-mingw32/nios2-elf/lib/mhw-mulx\libm.a(lib_a-k_rem_pio2.o)
 .rodata        0x000000000001ba80      0x100 c:/altera_lite/15.1/nios2eds/bin/gnu/h-x86_64-mingw32/bin/../lib/gcc/nios2-elf/4.9.2/mhw-mulx\libgcc.a(_clz.o)
                0x000000000001ba80                __clz_tab
 .rodata.str1.4
                0x000000000001bb80       0x42 c:/altera_lite/15.1/nios2eds/bin/gnu/h-x86_64-mingw32/bin/../lib/gcc/nios2-elf/4.9.2/../../../../../H-x86_64-mingw32/nios2-elf/lib/mhw-mulx\libc.a(lib_a-svfprintf.o)
                                         0x44 (size before relaxing)
 .rodata.zeroes.4240
                0x000000000001bbc2       0x10 c:/altera_lite/15.1/nios2eds/bin/gnu/h-x86_64-mingw32/bin/../lib/gcc/nios2-elf/4.9.2/../../../../../H-x86_64-mingw32/nios2-elf/lib/mhw-mulx\libc.a(lib_a-svfprintf.o)
 .rodata.blanks.4239
                0x000000000001bbd2       0x10 c:/altera_lite/15.1/nios2eds/bin/gnu/h-x86_64-mingw32/bin/../lib/gcc/nios2-elf/4.9.2/../../../../../H-x86_64-mingw32/nios2-elf/lib/mhw-mulx\libc.a(lib_a-svfprintf.o)
 *fill*         0x000000000001bbe2        0x2 
 .rodata.str1.4
                0x000000000001bbe4       0x10 c:/altera_lite/15.1/nios2eds/bin/gnu/h-x86_64-mingw32/bin/../lib/gcc/nios2-elf/4.9.2/../../../../../H-x86_64-mingw32/nios2-elf/lib/mhw-mulx\libc.a(lib_a-dtoa.o)
                                         0x14 (size before relaxing)
 .rodata.str1.4
                0x000000000001bbf4        0x2 c:/altera_lite/15.1/nios2eds/bin/gnu/h-x86_64-mingw32/bin/../lib/gcc/nios2-elf/4.9.2/../../../../../H-x86_64-mingw32/nios2-elf/lib/mhw-mulx\libc.a(lib_a-impure.o)
                                          0x4 (size before relaxing)
 *fill*         0x000000000001bbf6        0x2 
 .rodata.str1.4
                0x000000000001bbf8        0xc c:/altera_lite/15.1/nios2eds/bin/gnu/h-x86_64-mingw32/bin/../lib/gcc/nios2-elf/4.9.2/../../../../../H-x86_64-mingw32/nios2-elf/lib/mhw-mulx\libc.a(lib_a-locale.o)
                                         0x14 (size before relaxing)
 .rodata.p05.2710
                0x000000000001bc04        0xc c:/altera_lite/15.1/nios2eds/bin/gnu/h-x86_64-mingw32/bin/../lib/gcc/nios2-elf/4.9.2/../../../../../H-x86_64-mingw32/nios2-elf/lib/mhw-mulx\libc.a(lib_a-mprec.o)
 .rodata.__mprec_tinytens
                0x000000000001bc10       0x28 c:/altera_lite/15.1/nios2eds/bin/gnu/h-x86_64-mingw32/bin/../lib/gcc/nios2-elf/4.9.2/../../../../../H-x86_64-mingw32/nios2-elf/lib/mhw-mulx\libc.a(lib_a-mprec.o)
                0x000000000001bc10                __mprec_tinytens
 .rodata.__mprec_bigtens
                0x000000000001bc38       0x28 c:/altera_lite/15.1/nios2eds/bin/gnu/h-x86_64-mingw32/bin/../lib/gcc/nios2-elf/4.9.2/../../../../../H-x86_64-mingw32/nios2-elf/lib/mhw-mulx\libc.a(lib_a-mprec.o)
                0x000000000001bc38                __mprec_bigtens
 .rodata.__mprec_tens
                0x000000000001bc60       0xc8 c:/altera_lite/15.1/nios2eds/bin/gnu/h-x86_64-mingw32/bin/../lib/gcc/nios2-elf/4.9.2/../../../../../H-x86_64-mingw32/nios2-elf/lib/mhw-mulx\libc.a(lib_a-mprec.o)
                0x000000000001bc60                __mprec_tens
 .rodata.str1.4
                0x0000000000000000       0x30 c:/altera_lite/15.1/nios2eds/bin/gnu/h-x86_64-mingw32/bin/../lib/gcc/nios2-elf/4.9.2/../../../../../H-x86_64-mingw32/nios2-elf/lib/mhw-mulx\libc.a(lib_a-svfiprintf.o)
 .rodata.zeroes.4184
                0x000000000001bd28       0x10 c:/altera_lite/15.1/nios2eds/bin/gnu/h-x86_64-mingw32/bin/../lib/gcc/nios2-elf/4.9.2/../../../../../H-x86_64-mingw32/nios2-elf/lib/mhw-mulx\libc.a(lib_a-svfiprintf.o)
 .rodata.blanks.4183
                0x000000000001bd38       0x10 c:/altera_lite/15.1/nios2eds/bin/gnu/h-x86_64-mingw32/bin/../lib/gcc/nios2-elf/4.9.2/../../../../../H-x86_64-mingw32/nios2-elf/lib/mhw-mulx\libc.a(lib_a-svfiprintf.o)
 .rodata        0x000000000001bd48       0x10 C:/Users/Eldin/Documents/GitHub/Neon3D/FPGA/Software/Neon3DSoftware_bsp/\libucosii_bsp.a(alt_main.o)
 .rodata        0x000000000001bd58      0x120 C:/Users/Eldin/Documents/GitHub/Neon3D/FPGA/Software/Neon3DSoftware_bsp/\libucosii_bsp.a(os_core.o)
                0x000000000001bd58                OSUnMapTbl
 .rodata        0x000000000001be78      0x190 C:/Users/Eldin/Documents/GitHub/Neon3D/FPGA/Software/Neon3DSoftware_bsp/\libucosii_bsp.a(alt_sys_init.o)
 .rodata        0x000000000001c008       0x1c C:/Users/Eldin/Documents/GitHub/Neon3D/FPGA/Software/Neon3DSoftware_bsp/\libucosii_bsp.a(altera_up_avalon_video_character_buffer_with_dma.o)
 .rodata        0x000000000001c024        0xc C:/Users/Eldin/Documents/GitHub/Neon3D/FPGA/Software/Neon3DSoftware_bsp/\libucosii_bsp.a(alt_dev.o)
 .rodata        0x000000000001c030        0x4 C:/Users/Eldin/Documents/GitHub/Neon3D/FPGA/Software/Neon3DSoftware_bsp/\libucosii_bsp.a(os_cpu_c.o)
 *(.rodata1)
                0x000000000001c034                . = ALIGN (0x4)
                0x000000000001c034                PROVIDE (__ram_rodata_end, ABSOLUTE (.))
                0x000000000001b68c                PROVIDE (__flash_rodata_start, LOADADDR (.rodata))

.rwdata         0x000000000001c034     0x1ef4 load address 0x000000000001df28
                0x000000000001c034                PROVIDE (__ram_rwdata_start, ABSOLUTE (.))
                0x000000000001c034                . = ALIGN (0x4)
 *(.got.plt)
 *(.got)
 *(.data1)
 *(.data .data.* .gnu.linkonce.d.*)
 .data          0x000000000001c034        0x0 C:/Users/Eldin/Documents/GitHub/Neon3D/FPGA/Software/Neon3DSoftware_bsp//obj/HAL/src/crt0.o
 .data          0x000000000001c034        0x0 obj/default/hello_ucosii.o
 .data          0x000000000001c034        0x0 c:/altera_lite/15.1/nios2eds/bin/gnu/h-x86_64-mingw32/bin/../lib/gcc/nios2-elf/4.9.2/../../../../../H-x86_64-mingw32/nios2-elf/lib/mhw-mulx\libm.a(lib_a-s_cos.o)
 .data          0x000000000001c034        0x0 c:/altera_lite/15.1/nios2eds/bin/gnu/h-x86_64-mingw32/bin/../lib/gcc/nios2-elf/4.9.2/../../../../../H-x86_64-mingw32/nios2-elf/lib/mhw-mulx\libm.a(lib_a-s_sin.o)
 .data          0x000000000001c034        0x0 c:/altera_lite/15.1/nios2eds/bin/gnu/h-x86_64-mingw32/bin/../lib/gcc/nios2-elf/4.9.2/../../../../../H-x86_64-mingw32/nios2-elf/lib/mhw-mulx\libm.a(lib_a-e_rem_pio2.o)
 .data          0x000000000001c034        0x0 c:/altera_lite/15.1/nios2eds/bin/gnu/h-x86_64-mingw32/bin/../lib/gcc/nios2-elf/4.9.2/../../../../../H-x86_64-mingw32/nios2-elf/lib/mhw-mulx\libm.a(lib_a-k_cos.o)
 .data          0x000000000001c034        0x0 c:/altera_lite/15.1/nios2eds/bin/gnu/h-x86_64-mingw32/bin/../lib/gcc/nios2-elf/4.9.2/../../../../../H-x86_64-mingw32/nios2-elf/lib/mhw-mulx\libm.a(lib_a-k_rem_pio2.o)
 .data          0x000000000001c034        0x0 c:/altera_lite/15.1/nios2eds/bin/gnu/h-x86_64-mingw32/bin/../lib/gcc/nios2-elf/4.9.2/../../../../../H-x86_64-mingw32/nios2-elf/lib/mhw-mulx\libm.a(lib_a-k_sin.o)
 .data          0x000000000001c034        0x0 c:/altera_lite/15.1/nios2eds/bin/gnu/h-x86_64-mingw32/bin/../lib/gcc/nios2-elf/4.9.2/../../../../../H-x86_64-mingw32/nios2-elf/lib/mhw-mulx\libm.a(lib_a-s_fabs.o)
 .data          0x000000000001c034        0x0 c:/altera_lite/15.1/nios2eds/bin/gnu/h-x86_64-mingw32/bin/../lib/gcc/nios2-elf/4.9.2/../../../../../H-x86_64-mingw32/nios2-elf/lib/mhw-mulx\libm.a(lib_a-s_floor.o)
 .data          0x000000000001c034        0x0 c:/altera_lite/15.1/nios2eds/bin/gnu/h-x86_64-mingw32/bin/../lib/gcc/nios2-elf/4.9.2/../../../../../H-x86_64-mingw32/nios2-elf/lib/mhw-mulx\libm.a(lib_a-s_scalbn.o)
 .data          0x000000000001c034        0x0 c:/altera_lite/15.1/nios2eds/bin/gnu/h-x86_64-mingw32/bin/../lib/gcc/nios2-elf/4.9.2/../../../../../H-x86_64-mingw32/nios2-elf/lib/mhw-mulx\libm.a(lib_a-s_copysign.o)
 .data          0x000000000001c034        0x0 c:/altera_lite/15.1/nios2eds/bin/gnu/h-x86_64-mingw32/bin/../lib/gcc/nios2-elf/4.9.2/mhw-mulx\libgcc.a(lib2-divmod.o)
 .data          0x000000000001c034        0x0 c:/altera_lite/15.1/nios2eds/bin/gnu/h-x86_64-mingw32/bin/../lib/gcc/nios2-elf/4.9.2/mhw-mulx\libgcc.a(floatsisf.o)
 .data          0x000000000001c034        0x0 c:/altera_lite/15.1/nios2eds/bin/gnu/h-x86_64-mingw32/bin/../lib/gcc/nios2-elf/4.9.2/mhw-mulx\libgcc.a(adddf3.o)
 .data          0x000000000001c034        0x0 c:/altera_lite/15.1/nios2eds/bin/gnu/h-x86_64-mingw32/bin/../lib/gcc/nios2-elf/4.9.2/mhw-mulx\libgcc.a(divdf3.o)
 .data          0x000000000001c034        0x0 c:/altera_lite/15.1/nios2eds/bin/gnu/h-x86_64-mingw32/bin/../lib/gcc/nios2-elf/4.9.2/mhw-mulx\libgcc.a(eqdf2.o)
 .data          0x000000000001c034        0x0 c:/altera_lite/15.1/nios2eds/bin/gnu/h-x86_64-mingw32/bin/../lib/gcc/nios2-elf/4.9.2/mhw-mulx\libgcc.a(gedf2.o)
 .data          0x000000000001c034        0x0 c:/altera_lite/15.1/nios2eds/bin/gnu/h-x86_64-mingw32/bin/../lib/gcc/nios2-elf/4.9.2/mhw-mulx\libgcc.a(ledf2.o)
 .data          0x000000000001c034        0x0 c:/altera_lite/15.1/nios2eds/bin/gnu/h-x86_64-mingw32/bin/../lib/gcc/nios2-elf/4.9.2/mhw-mulx\libgcc.a(muldf3.o)
 .data          0x000000000001c034        0x0 c:/altera_lite/15.1/nios2eds/bin/gnu/h-x86_64-mingw32/bin/../lib/gcc/nios2-elf/4.9.2/mhw-mulx\libgcc.a(subdf3.o)
 .data          0x000000000001c034        0x0 c:/altera_lite/15.1/nios2eds/bin/gnu/h-x86_64-mingw32/bin/../lib/gcc/nios2-elf/4.9.2/mhw-mulx\libgcc.a(fixdfsi.o)
 .data          0x000000000001c034        0x0 c:/altera_lite/15.1/nios2eds/bin/gnu/h-x86_64-mingw32/bin/../lib/gcc/nios2-elf/4.9.2/mhw-mulx\libgcc.a(floatsidf.o)
 .data          0x000000000001c034        0x0 c:/altera_lite/15.1/nios2eds/bin/gnu/h-x86_64-mingw32/bin/../lib/gcc/nios2-elf/4.9.2/mhw-mulx\libgcc.a(extendsfdf2.o)
 .data          0x000000000001c034        0x0 c:/altera_lite/15.1/nios2eds/bin/gnu/h-x86_64-mingw32/bin/../lib/gcc/nios2-elf/4.9.2/mhw-mulx\libgcc.a(_clzsi2.o)
 .data          0x000000000001c034        0x0 c:/altera_lite/15.1/nios2eds/bin/gnu/h-x86_64-mingw32/bin/../lib/gcc/nios2-elf/4.9.2/mhw-mulx\libgcc.a(_clz.o)
 .data          0x000000000001c034        0x0 c:/altera_lite/15.1/nios2eds/bin/gnu/h-x86_64-mingw32/bin/../lib/gcc/nios2-elf/4.9.2/../../../../../H-x86_64-mingw32/nios2-elf/lib/mhw-mulx\libc.a(lib_a-memcpy.o)
 .data          0x000000000001c034        0x0 c:/altera_lite/15.1/nios2eds/bin/gnu/h-x86_64-mingw32/bin/../lib/gcc/nios2-elf/4.9.2/../../../../../H-x86_64-mingw32/nios2-elf/lib/mhw-mulx\libc.a(lib_a-sprintf.o)
 .data          0x000000000001c034        0x0 c:/altera_lite/15.1/nios2eds/bin/gnu/h-x86_64-mingw32/bin/../lib/gcc/nios2-elf/4.9.2/../../../../../H-x86_64-mingw32/nios2-elf/lib/mhw-mulx\libc.a(lib_a-svfprintf.o)
 .data          0x000000000001c034        0x0 c:/altera_lite/15.1/nios2eds/bin/gnu/h-x86_64-mingw32/bin/../lib/gcc/nios2-elf/4.9.2/../../../../../H-x86_64-mingw32/nios2-elf/lib/mhw-mulx\libc.a(lib_a-dtoa.o)
 .data          0x000000000001c034        0x0 c:/altera_lite/15.1/nios2eds/bin/gnu/h-x86_64-mingw32/bin/../lib/gcc/nios2-elf/4.9.2/../../../../../H-x86_64-mingw32/nios2-elf/lib/mhw-mulx\libc.a(lib_a-impure.o)
 .data.impure_data
                0x000000000001c034      0x424 c:/altera_lite/15.1/nios2eds/bin/gnu/h-x86_64-mingw32/bin/../lib/gcc/nios2-elf/4.9.2/../../../../../H-x86_64-mingw32/nios2-elf/lib/mhw-mulx\libc.a(lib_a-impure.o)
 .data          0x000000000001c458        0x0 c:/altera_lite/15.1/nios2eds/bin/gnu/h-x86_64-mingw32/bin/../lib/gcc/nios2-elf/4.9.2/../../../../../H-x86_64-mingw32/nios2-elf/lib/mhw-mulx\libc.a(lib_a-locale.o)
 .data.lc_message_charset
                0x000000000001c458       0x20 c:/altera_lite/15.1/nios2eds/bin/gnu/h-x86_64-mingw32/bin/../lib/gcc/nios2-elf/4.9.2/../../../../../H-x86_64-mingw32/nios2-elf/lib/mhw-mulx\libc.a(lib_a-locale.o)
 .data.lc_ctype_charset
                0x000000000001c478       0x20 c:/altera_lite/15.1/nios2eds/bin/gnu/h-x86_64-mingw32/bin/../lib/gcc/nios2-elf/4.9.2/../../../../../H-x86_64-mingw32/nios2-elf/lib/mhw-mulx\libc.a(lib_a-locale.o)
 .data.lconv    0x000000000001c498       0x38 c:/altera_lite/15.1/nios2eds/bin/gnu/h-x86_64-mingw32/bin/../lib/gcc/nios2-elf/4.9.2/../../../../../H-x86_64-mingw32/nios2-elf/lib/mhw-mulx\libc.a(lib_a-locale.o)
 .data          0x000000000001c4d0        0x0 c:/altera_lite/15.1/nios2eds/bin/gnu/h-x86_64-mingw32/bin/../lib/gcc/nios2-elf/4.9.2/../../../../../H-x86_64-mingw32/nios2-elf/lib/mhw-mulx\libc.a(lib_a-mallocr.o)
 .data.__malloc_av_
                0x000000000001c4d0      0x408 c:/altera_lite/15.1/nios2eds/bin/gnu/h-x86_64-mingw32/bin/../lib/gcc/nios2-elf/4.9.2/../../../../../H-x86_64-mingw32/nios2-elf/lib/mhw-mulx\libc.a(lib_a-mallocr.o)
                0x000000000001c4d0                __malloc_av_
 .data          0x000000000001c8d8        0x0 c:/altera_lite/15.1/nios2eds/bin/gnu/h-x86_64-mingw32/bin/../lib/gcc/nios2-elf/4.9.2/../../../../../H-x86_64-mingw32/nios2-elf/lib/mhw-mulx\libc.a(lib_a-memchr.o)
 .data          0x000000000001c8d8        0x0 c:/altera_lite/15.1/nios2eds/bin/gnu/h-x86_64-mingw32/bin/../lib/gcc/nios2-elf/4.9.2/../../../../../H-x86_64-mingw32/nios2-elf/lib/mhw-mulx\libc.a(lib_a-mprec.o)
 .data          0x000000000001c8d8        0x0 c:/altera_lite/15.1/nios2eds/bin/gnu/h-x86_64-mingw32/bin/../lib/gcc/nios2-elf/4.9.2/../../../../../H-x86_64-mingw32/nios2-elf/lib/mhw-mulx\libc.a(lib_a-s_fpclassify.o)
 .data          0x000000000001c8d8        0x0 c:/altera_lite/15.1/nios2eds/bin/gnu/h-x86_64-mingw32/bin/../lib/gcc/nios2-elf/4.9.2/../../../../../H-x86_64-mingw32/nios2-elf/lib/mhw-mulx\libc.a(lib_a-sbrkr.o)
 .data          0x000000000001c8d8        0x0 c:/altera_lite/15.1/nios2eds/bin/gnu/h-x86_64-mingw32/bin/../lib/gcc/nios2-elf/4.9.2/../../../../../H-x86_64-mingw32/nios2-elf/lib/mhw-mulx\libc.a(lib_a-strcmp.o)
 .data          0x000000000001c8d8        0x0 c:/altera_lite/15.1/nios2eds/bin/gnu/h-x86_64-mingw32/bin/../lib/gcc/nios2-elf/4.9.2/../../../../../H-x86_64-mingw32/nios2-elf/lib/mhw-mulx\libc.a(lib_a-strlen.o)
 .data          0x000000000001c8d8        0x0 c:/altera_lite/15.1/nios2eds/bin/gnu/h-x86_64-mingw32/bin/../lib/gcc/nios2-elf/4.9.2/../../../../../H-x86_64-mingw32/nios2-elf/lib/mhw-mulx\libc.a(lib_a-svfiprintf.o)
 .data          0x000000000001c8d8        0x0 c:/altera_lite/15.1/nios2eds/bin/gnu/h-x86_64-mingw32/bin/../lib/gcc/nios2-elf/4.9.2/../../../../../H-x86_64-mingw32/nios2-elf/lib/mhw-mulx\libc.a(lib_a-callocr.o)
 .data          0x000000000001c8d8        0x0 c:/altera_lite/15.1/nios2eds/bin/gnu/h-x86_64-mingw32/bin/../lib/gcc/nios2-elf/4.9.2/../../../../../H-x86_64-mingw32/nios2-elf/lib/mhw-mulx\libc.a(lib_a-freer.o)
 .data          0x000000000001c8d8        0x0 c:/altera_lite/15.1/nios2eds/bin/gnu/h-x86_64-mingw32/bin/../lib/gcc/nios2-elf/4.9.2/../../../../../H-x86_64-mingw32/nios2-elf/lib/mhw-mulx\libc.a(lib_a-int_errno.o)
 .data          0x000000000001c8d8        0x0 c:/altera_lite/15.1/nios2eds/bin/gnu/h-x86_64-mingw32/bin/../lib/gcc/nios2-elf/4.9.2/../../../../../H-x86_64-mingw32/nios2-elf/lib/mhw-mulx\libc.a(lib_a-memmove.o)
 .data          0x000000000001c8d8        0x0 c:/altera_lite/15.1/nios2eds/bin/gnu/h-x86_64-mingw32/bin/../lib/gcc/nios2-elf/4.9.2/../../../../../H-x86_64-mingw32/nios2-elf/lib/mhw-mulx\libc.a(lib_a-memset.o)
 .data          0x000000000001c8d8        0x0 c:/altera_lite/15.1/nios2eds/bin/gnu/h-x86_64-mingw32/bin/../lib/gcc/nios2-elf/4.9.2/../../../../../H-x86_64-mingw32/nios2-elf/lib/mhw-mulx\libc.a(lib_a-reallocr.o)
 .data          0x000000000001c8d8        0x0 c:/altera_lite/15.1/nios2eds/bin/gnu/h-x86_64-mingw32/bin/../lib/gcc/nios2-elf/4.9.2/mhw-mulx\libgcc.a(_udivdi3.o)
 .data          0x000000000001c8d8        0x0 c:/altera_lite/15.1/nios2eds/bin/gnu/h-x86_64-mingw32/bin/../lib/gcc/nios2-elf/4.9.2/mhw-mulx\libgcc.a(_umoddi3.o)
 .data          0x000000000001c8d8        0x0 c:/altera_lite/15.1/nios2eds/bin/gnu/h-x86_64-mingw32/bin/../lib/gcc/nios2-elf/4.9.2/mhw-mulx\libgcc.a(floatunsidf.o)
 .data          0x000000000001c8d8        0x0 C:/Users/Eldin/Documents/GitHub/Neon3D/FPGA/Software/Neon3DSoftware_bsp/\libucosii_bsp.a(alt_load.o)
 .data          0x000000000001c8d8        0x0 C:/Users/Eldin/Documents/GitHub/Neon3D/FPGA/Software/Neon3DSoftware_bsp/\libucosii_bsp.a(alt_main.o)
 .data          0x000000000001c8d8        0x0 C:/Users/Eldin/Documents/GitHub/Neon3D/FPGA/Software/Neon3DSoftware_bsp/\libucosii_bsp.a(alt_sbrk.o)
 .data          0x000000000001c8d8        0x0 C:/Users/Eldin/Documents/GitHub/Neon3D/FPGA/Software/Neon3DSoftware_bsp/\libucosii_bsp.a(alt_env_lock.o)
 .data          0x000000000001c8d8        0x0 C:/Users/Eldin/Documents/GitHub/Neon3D/FPGA/Software/Neon3DSoftware_bsp/\libucosii_bsp.a(alt_malloc_lock.o)
 .data          0x000000000001c8d8        0x0 C:/Users/Eldin/Documents/GitHub/Neon3D/FPGA/Software/Neon3DSoftware_bsp/\libucosii_bsp.a(os_core.o)
 .data          0x000000000001c8d8        0x0 C:/Users/Eldin/Documents/GitHub/Neon3D/FPGA/Software/Neon3DSoftware_bsp/\libucosii_bsp.a(os_dbg.o)
 .data          0x000000000001c8d8        0x0 C:/Users/Eldin/Documents/GitHub/Neon3D/FPGA/Software/Neon3DSoftware_bsp/\libucosii_bsp.a(os_flag.o)
 .data          0x000000000001c8d8        0x0 C:/Users/Eldin/Documents/GitHub/Neon3D/FPGA/Software/Neon3DSoftware_bsp/\libucosii_bsp.a(os_mem.o)
 .data          0x000000000001c8d8        0x0 C:/Users/Eldin/Documents/GitHub/Neon3D/FPGA/Software/Neon3DSoftware_bsp/\libucosii_bsp.a(os_q.o)
 .data          0x000000000001c8d8        0x0 C:/Users/Eldin/Documents/GitHub/Neon3D/FPGA/Software/Neon3DSoftware_bsp/\libucosii_bsp.a(os_sem.o)
 .data          0x000000000001c8d8        0x0 C:/Users/Eldin/Documents/GitHub/Neon3D/FPGA/Software/Neon3DSoftware_bsp/\libucosii_bsp.a(os_task.o)
 .data          0x000000000001c8d8        0x0 C:/Users/Eldin/Documents/GitHub/Neon3D/FPGA/Software/Neon3DSoftware_bsp/\libucosii_bsp.a(os_time.o)
 .data          0x000000000001c8d8     0x13f0 C:/Users/Eldin/Documents/GitHub/Neon3D/FPGA/Software/Neon3DSoftware_bsp/\libucosii_bsp.a(alt_sys_init.o)
 .data          0x000000000001dcc8        0x0 C:/Users/Eldin/Documents/GitHub/Neon3D/FPGA/Software/Neon3DSoftware_bsp/\libucosii_bsp.a(altera_avalon_jtag_uart_fd.o)
 .data          0x000000000001dcc8        0x0 C:/Users/Eldin/Documents/GitHub/Neon3D/FPGA/Software/Neon3DSoftware_bsp/\libucosii_bsp.a(altera_avalon_jtag_uart_init.o)
 .data          0x000000000001dcc8        0x0 C:/Users/Eldin/Documents/GitHub/Neon3D/FPGA/Software/Neon3DSoftware_bsp/\libucosii_bsp.a(altera_avalon_jtag_uart_ioctl.o)
 .data          0x000000000001dcc8        0x0 C:/Users/Eldin/Documents/GitHub/Neon3D/FPGA/Software/Neon3DSoftware_bsp/\libucosii_bsp.a(altera_avalon_jtag_uart_read.o)
 .data          0x000000000001dcc8        0x0 C:/Users/Eldin/Documents/GitHub/Neon3D/FPGA/Software/Neon3DSoftware_bsp/\libucosii_bsp.a(altera_avalon_jtag_uart_write.o)
 .data          0x000000000001dcc8        0x0 C:/Users/Eldin/Documents/GitHub/Neon3D/FPGA/Software/Neon3DSoftware_bsp/\libucosii_bsp.a(altera_avalon_timer_sc.o)
 .data          0x000000000001dcc8        0x0 C:/Users/Eldin/Documents/GitHub/Neon3D/FPGA/Software/Neon3DSoftware_bsp/\libucosii_bsp.a(altera_up_avalon_character_lcd.o)
 .data          0x000000000001dcc8        0x0 C:/Users/Eldin/Documents/GitHub/Neon3D/FPGA/Software/Neon3DSoftware_bsp/\libucosii_bsp.a(altera_up_avalon_irda.o)
 .data          0x000000000001dcc8        0x0 C:/Users/Eldin/Documents/GitHub/Neon3D/FPGA/Software/Neon3DSoftware_bsp/\libucosii_bsp.a(altera_up_avalon_ps2.o)
 .data          0x000000000001dcc8        0x0 C:/Users/Eldin/Documents/GitHub/Neon3D/FPGA/Software/Neon3DSoftware_bsp/\libucosii_bsp.a(altera_up_avalon_rs232.o)
 .data          0x000000000001dcc8        0x0 C:/Users/Eldin/Documents/GitHub/Neon3D/FPGA/Software/Neon3DSoftware_bsp/\libucosii_bsp.a(altera_up_avalon_video_character_buffer_with_dma.o)
 .data          0x000000000001dcc8        0x0 C:/Users/Eldin/Documents/GitHub/Neon3D/FPGA/Software/Neon3DSoftware_bsp/\libucosii_bsp.a(alt_alarm_start.o)
 .data          0x000000000001dcc8        0x0 C:/Users/Eldin/Documents/GitHub/Neon3D/FPGA/Software/Neon3DSoftware_bsp/\libucosii_bsp.a(alt_close.o)
 .data          0x000000000001dcc8        0x0 C:/Users/Eldin/Documents/GitHub/Neon3D/FPGA/Software/Neon3DSoftware_bsp/\libucosii_bsp.a(alt_dcache_flush_all.o)
 .data          0x000000000001dcc8      0x1a8 C:/Users/Eldin/Documents/GitHub/Neon3D/FPGA/Software/Neon3DSoftware_bsp/\libucosii_bsp.a(alt_dev.o)
                0x000000000001dcc8                alt_dev_null
                0x000000000001dcf0                alt_fd_list
 .data          0x000000000001de70        0x0 C:/Users/Eldin/Documents/GitHub/Neon3D/FPGA/Software/Neon3DSoftware_bsp/\libucosii_bsp.a(alt_dev_llist_insert.o)
 .data          0x000000000001de70        0x0 C:/Users/Eldin/Documents/GitHub/Neon3D/FPGA/Software/Neon3DSoftware_bsp/\libucosii_bsp.a(alt_do_ctors.o)
 .data          0x000000000001de70        0x0 C:/Users/Eldin/Documents/GitHub/Neon3D/FPGA/Software/Neon3DSoftware_bsp/\libucosii_bsp.a(alt_do_dtors.o)
 .data          0x000000000001de70        0x0 C:/Users/Eldin/Documents/GitHub/Neon3D/FPGA/Software/Neon3DSoftware_bsp/\libucosii_bsp.a(alt_errno.o)
 .data          0x000000000001de70        0x0 C:/Users/Eldin/Documents/GitHub/Neon3D/FPGA/Software/Neon3DSoftware_bsp/\libucosii_bsp.a(alt_find_dev.o)
 .data          0x000000000001de70        0x0 C:/Users/Eldin/Documents/GitHub/Neon3D/FPGA/Software/Neon3DSoftware_bsp/\libucosii_bsp.a(alt_icache_flush_all.o)
 .data          0x000000000001de70        0x0 C:/Users/Eldin/Documents/GitHub/Neon3D/FPGA/Software/Neon3DSoftware_bsp/\libucosii_bsp.a(alt_io_redirect.o)
 .data          0x000000000001de70        0x0 C:/Users/Eldin/Documents/GitHub/Neon3D/FPGA/Software/Neon3DSoftware_bsp/\libucosii_bsp.a(alt_irq_register.o)
 .data          0x000000000001de70        0x0 C:/Users/Eldin/Documents/GitHub/Neon3D/FPGA/Software/Neon3DSoftware_bsp/\libucosii_bsp.a(alt_irq_vars.o)
 .data          0x000000000001de70        0x0 C:/Users/Eldin/Documents/GitHub/Neon3D/FPGA/Software/Neon3DSoftware_bsp/\libucosii_bsp.a(alt_open.o)
 .data          0x000000000001de70        0x0 C:/Users/Eldin/Documents/GitHub/Neon3D/FPGA/Software/Neon3DSoftware_bsp/\libucosii_bsp.a(alt_release_fd.o)
 .data          0x000000000001de70        0x0 C:/Users/Eldin/Documents/GitHub/Neon3D/FPGA/Software/Neon3DSoftware_bsp/\libucosii_bsp.a(alt_tick.o)
 .data          0x000000000001de70        0x0 C:/Users/Eldin/Documents/GitHub/Neon3D/FPGA/Software/Neon3DSoftware_bsp/\libucosii_bsp.a(altera_nios2_gen2_irq.o)
 .data          0x000000000001de70        0x0 C:/Users/Eldin/Documents/GitHub/Neon3D/FPGA/Software/Neon3DSoftware_bsp/\libucosii_bsp.a(os_cpu_a.o)
 .data          0x000000000001de70        0x0 C:/Users/Eldin/Documents/GitHub/Neon3D/FPGA/Software/Neon3DSoftware_bsp/\libucosii_bsp.a(os_cpu_c.o)
 .data          0x000000000001de70        0x0 C:/Users/Eldin/Documents/GitHub/Neon3D/FPGA/Software/Neon3DSoftware_bsp/\libucosii_bsp.a(alt_find_file.o)
 .data          0x000000000001de70        0x0 C:/Users/Eldin/Documents/GitHub/Neon3D/FPGA/Software/Neon3DSoftware_bsp/\libucosii_bsp.a(alt_get_fd.o)
 .data          0x000000000001de70        0x0 C:/Users/Eldin/Documents/GitHub/Neon3D/FPGA/Software/Neon3DSoftware_bsp/\libucosii_bsp.a(alt_icache_flush.o)
 .data          0x000000000001de70        0x0 C:/Users/Eldin/Documents/GitHub/Neon3D/FPGA/Software/Neon3DSoftware_bsp/\libucosii_bsp.a(alt_irq_entry.o)
 .data          0x000000000001de70        0x0 C:/Users/Eldin/Documents/GitHub/Neon3D/FPGA/Software/Neon3DSoftware_bsp/\libucosii_bsp.a(alt_irq_handler.o)
 .data          0x000000000001de70        0x0 C:/Users/Eldin/Documents/GitHub/Neon3D/FPGA/Software/Neon3DSoftware_bsp/\libucosii_bsp.a(alt_exception_entry.o)
 .data          0x000000000001de70        0x0 C:/Users/Eldin/Documents/GitHub/Neon3D/FPGA/Software/Neon3DSoftware_bsp/\libucosii_bsp.a(alt_instruction_exception_entry.o)
 .data          0x000000000001de70        0x0 c:/altera_lite/15.1/nios2eds/bin/gnu/h-x86_64-mingw32/bin/../lib/gcc/nios2-elf/4.9.2/../../../../../H-x86_64-mingw32/nios2-elf/lib/mhw-mulx\libc.a(lib_a-atexit.o)
 .data          0x000000000001de70        0x0 c:/altera_lite/15.1/nios2eds/bin/gnu/h-x86_64-mingw32/bin/../lib/gcc/nios2-elf/4.9.2/../../../../../H-x86_64-mingw32/nios2-elf/lib/mhw-mulx\libc.a(lib_a-exit.o)
 .data          0x000000000001de70        0x0 c:/altera_lite/15.1/nios2eds/bin/gnu/h-x86_64-mingw32/bin/../lib/gcc/nios2-elf/4.9.2/../../../../../H-x86_64-mingw32/nios2-elf/lib/mhw-mulx\libc.a(lib_a-memcmp.o)
 .data          0x000000000001de70        0x0 c:/altera_lite/15.1/nios2eds/bin/gnu/h-x86_64-mingw32/bin/../lib/gcc/nios2-elf/4.9.2/../../../../../H-x86_64-mingw32/nios2-elf/lib/mhw-mulx\libc.a(lib_a-__atexit.o)
 .data          0x000000000001de70        0x0 c:/altera_lite/15.1/nios2eds/bin/gnu/h-x86_64-mingw32/bin/../lib/gcc/nios2-elf/4.9.2/../../../../../H-x86_64-mingw32/nios2-elf/lib/mhw-mulx\libc.a(lib_a-__call_atexit.o)
 .data          0x000000000001de70        0x0 C:/Users/Eldin/Documents/GitHub/Neon3D/FPGA/Software/Neon3DSoftware_bsp/\libucosii_bsp.a(alt_exit.o)
                0x0000000000025e70                _gp = ABSOLUTE ((. + 0x8000))
                0x0000000000025e70                PROVIDE (gp, _gp)
 *(.rwdata .rwdata.*)
 *(.sdata .sdata.* .gnu.linkonce.s.*)
 .sdata._global_impure_ptr
                0x000000000001de70        0x4 c:/altera_lite/15.1/nios2eds/bin/gnu/h-x86_64-mingw32/bin/../lib/gcc/nios2-elf/4.9.2/../../../../../H-x86_64-mingw32/nios2-elf/lib/mhw-mulx\libc.a(lib_a-impure.o)
                0x000000000001de70                _global_impure_ptr
 .sdata._impure_ptr
                0x000000000001de74        0x4 c:/altera_lite/15.1/nios2eds/bin/gnu/h-x86_64-mingw32/bin/../lib/gcc/nios2-elf/4.9.2/../../../../../H-x86_64-mingw32/nios2-elf/lib/mhw-mulx\libc.a(lib_a-impure.o)
                0x000000000001de74                _impure_ptr
 .sdata.__mb_cur_max
                0x000000000001de78        0x4 c:/altera_lite/15.1/nios2eds/bin/gnu/h-x86_64-mingw32/bin/../lib/gcc/nios2-elf/4.9.2/../../../../../H-x86_64-mingw32/nios2-elf/lib/mhw-mulx\libc.a(lib_a-locale.o)
                0x000000000001de78                __mb_cur_max
 .sdata.__malloc_sbrk_base
                0x000000000001de7c        0x4 c:/altera_lite/15.1/nios2eds/bin/gnu/h-x86_64-mingw32/bin/../lib/gcc/nios2-elf/4.9.2/../../../../../H-x86_64-mingw32/nios2-elf/lib/mhw-mulx\libc.a(lib_a-mallocr.o)
                0x000000000001de7c                __malloc_sbrk_base
 .sdata.__malloc_trim_threshold
                0x000000000001de80        0x4 c:/altera_lite/15.1/nios2eds/bin/gnu/h-x86_64-mingw32/bin/../lib/gcc/nios2-elf/4.9.2/../../../../../H-x86_64-mingw32/nios2-elf/lib/mhw-mulx\libc.a(lib_a-mallocr.o)
                0x000000000001de80                __malloc_trim_threshold
 .sdata         0x000000000001de84        0x4 C:/Users/Eldin/Documents/GitHub/Neon3D/FPGA/Software/Neon3DSoftware_bsp/\libucosii_bsp.a(alt_sbrk.o)
 .sdata         0x000000000001de88        0x4 C:/Users/Eldin/Documents/GitHub/Neon3D/FPGA/Software/Neon3DSoftware_bsp/\libucosii_bsp.a(alt_env_lock.o)
 .sdata         0x000000000001de8c        0x4 C:/Users/Eldin/Documents/GitHub/Neon3D/FPGA/Software/Neon3DSoftware_bsp/\libucosii_bsp.a(alt_malloc_lock.o)
 .sdata         0x000000000001de90       0x74 C:/Users/Eldin/Documents/GitHub/Neon3D/FPGA/Software/Neon3DSoftware_bsp/\libucosii_bsp.a(os_dbg.o)
                0x000000000001de90                OSDebugEn
                0x000000000001de94                OSEndiannessTest
                0x000000000001de98                OSEventEn
                0x000000000001de9a                OSEventMax
                0x000000000001de9c                OSEventNameSize
                0x000000000001de9e                OSEventSize
                0x000000000001dea0                OSEventTblSize
                0x000000000001dea2                OSEventMultiEn
                0x000000000001dea4                OSFlagEn
                0x000000000001dea6                OSFlagGrpSize
                0x000000000001dea8                OSFlagNodeSize
                0x000000000001deaa                OSFlagWidth
                0x000000000001deac                OSFlagMax
                0x000000000001deae                OSFlagNameSize
                0x000000000001deb0                OSLowestPrio
                0x000000000001deb2                OSMboxEn
                0x000000000001deb4                OSMemEn
                0x000000000001deb6                OSMemMax
                0x000000000001deb8                OSMemNameSize
                0x000000000001deba                OSMemSize
                0x000000000001debc                OSMemTblSize
                0x000000000001debe                OSMutexEn
                0x000000000001dec0                OSPtrSize
                0x000000000001dec2                OSQEn
                0x000000000001dec4                OSQMax
                0x000000000001dec6                OSQSize
                0x000000000001dec8                OSRdyTblSize
                0x000000000001deca                OSSemEn
                0x000000000001decc                OSStkWidth
                0x000000000001dece                OSTaskCreateEn
                0x000000000001ded0                OSTaskCreateExtEn
                0x000000000001ded2                OSTaskDelEn
                0x000000000001ded4                OSTaskIdleStkSize
                0x000000000001ded6                OSTaskProfileEn
                0x000000000001ded8                OSTaskMax
                0x000000000001deda                OSTaskNameSize
                0x000000000001dedc                OSTaskStatEn
                0x000000000001dede                OSTaskStatStkSize
                0x000000000001dee0                OSTaskStatStkChkEn
                0x000000000001dee2                OSTaskSwHookEn
                0x000000000001dee4                OSTCBPrioTblMax
                0x000000000001dee6                OSTCBSize
                0x000000000001dee8                OSTicksPerSec
                0x000000000001deea                OSTimeTickHookEn
                0x000000000001deec                OSVersionNbr
                0x000000000001deee                OSTmrEn
                0x000000000001def0                OSTmrCfgMax
                0x000000000001def2                OSTmrCfgNameSize
                0x000000000001def4                OSTmrCfgWheelSize
                0x000000000001def6                OSTmrCfgTicksPerSec
                0x000000000001def8                OSTmrSize
                0x000000000001defa                OSTmrTblSize
                0x000000000001defc                OSTmrWheelSize
                0x000000000001defe                OSTmrWheelTblSize
                0x000000000001df00                OSDataSize
 .sdata         0x000000000001df04       0x14 C:/Users/Eldin/Documents/GitHub/Neon3D/FPGA/Software/Neon3DSoftware_bsp/\libucosii_bsp.a(alt_dev.o)
                0x000000000001df04                alt_fs_list
                0x000000000001df0c                alt_dev_list
                0x000000000001df14                alt_max_fd
 .sdata         0x000000000001df18        0x4 C:/Users/Eldin/Documents/GitHub/Neon3D/FPGA/Software/Neon3DSoftware_bsp/\libucosii_bsp.a(alt_errno.o)
                0x000000000001df18                alt_errno
 .sdata         0x000000000001df1c        0x4 C:/Users/Eldin/Documents/GitHub/Neon3D/FPGA/Software/Neon3DSoftware_bsp/\libucosii_bsp.a(alt_irq_vars.o)
                0x000000000001df1c                alt_priority_mask
 .sdata         0x000000000001df20        0x8 C:/Users/Eldin/Documents/GitHub/Neon3D/FPGA/Software/Neon3DSoftware_bsp/\libucosii_bsp.a(alt_tick.o)
                0x000000000001df20                alt_alarm_list
 *(.sdata2 .sdata2.* .gnu.linkonce.s2.*)
                0x000000000001df28                . = ALIGN (0x4)
                0x000000000001df28                _edata = ABSOLUTE (.)
                0x000000000001df28                PROVIDE (edata, ABSOLUTE (.))
                0x000000000001df28                PROVIDE (__ram_rwdata_end, ABSOLUTE (.))
                0x000000000001df28                PROVIDE (__flash_rwdata_start, LOADADDR (.rwdata))

.bss            0x000000000001fe1c     0x33f8
                0x000000000001fe1c                __bss_start = ABSOLUTE (.)
                0x000000000001fe1c                PROVIDE (__sbss_start, ABSOLUTE (.))
                0x000000000001fe1c                PROVIDE (___sbss_start, ABSOLUTE (.))
 *(.dynsbss)
 *(.sbss .sbss.* .gnu.linkonce.sb.*)
 .sbss          0x000000000001fe1c       0x10 obj/default/hello_ucosii.o
                0x000000000001fe1c                prevousZoomScreenBR
                0x000000000001fe24                previousXRotation
                0x000000000001fe28                previousYRotation
 .sbss._PathLocale
                0x000000000001fe2c        0x4 c:/altera_lite/15.1/nios2eds/bin/gnu/h-x86_64-mingw32/bin/../lib/gcc/nios2-elf/4.9.2/../../../../../H-x86_64-mingw32/nios2-elf/lib/mhw-mulx\libc.a(lib_a-locale.o)
                0x000000000001fe2c                _PathLocale
 .sbss.__mlocale_changed
                0x000000000001fe30        0x4 c:/altera_lite/15.1/nios2eds/bin/gnu/h-x86_64-mingw32/bin/../lib/gcc/nios2-elf/4.9.2/../../../../../H-x86_64-mingw32/nios2-elf/lib/mhw-mulx\libc.a(lib_a-locale.o)
                0x000000000001fe30                __mlocale_changed
 .sbss.__nlocale_changed
                0x000000000001fe34        0x4 c:/altera_lite/15.1/nios2eds/bin/gnu/h-x86_64-mingw32/bin/../lib/gcc/nios2-elf/4.9.2/../../../../../H-x86_64-mingw32/nios2-elf/lib/mhw-mulx\libc.a(lib_a-locale.o)
                0x000000000001fe34                __nlocale_changed
 .sbss.__malloc_max_total_mem
                0x000000000001fe38        0x4 c:/altera_lite/15.1/nios2eds/bin/gnu/h-x86_64-mingw32/bin/../lib/gcc/nios2-elf/4.9.2/../../../../../H-x86_64-mingw32/nios2-elf/lib/mhw-mulx\libc.a(lib_a-mallocr.o)
                0x000000000001fe38                __malloc_max_total_mem
 .sbss.__malloc_max_sbrked_mem
                0x000000000001fe3c        0x4 c:/altera_lite/15.1/nios2eds/bin/gnu/h-x86_64-mingw32/bin/../lib/gcc/nios2-elf/4.9.2/../../../../../H-x86_64-mingw32/nios2-elf/lib/mhw-mulx\libc.a(lib_a-mallocr.o)
                0x000000000001fe3c                __malloc_max_sbrked_mem
 .sbss.__malloc_top_pad
                0x000000000001fe40        0x4 c:/altera_lite/15.1/nios2eds/bin/gnu/h-x86_64-mingw32/bin/../lib/gcc/nios2-elf/4.9.2/../../../../../H-x86_64-mingw32/nios2-elf/lib/mhw-mulx\libc.a(lib_a-mallocr.o)
                0x000000000001fe40                __malloc_top_pad
 .sbss          0x000000000001fe44        0x4 c:/altera_lite/15.1/nios2eds/bin/gnu/h-x86_64-mingw32/bin/../lib/gcc/nios2-elf/4.9.2/../../../../../H-x86_64-mingw32/nios2-elf/lib/mhw-mulx\libc.a(lib_a-int_errno.o)
                0x000000000001fe44                errno
 .sbss          0x000000000001fe48        0xc C:/Users/Eldin/Documents/GitHub/Neon3D/FPGA/Software/Neon3DSoftware_bsp/\libucosii_bsp.a(alt_main.o)
                0x000000000001fe48                alt_argc
                0x000000000001fe4c                alt_argv
                0x000000000001fe50                alt_envp
 .sbss          0x000000000001fe54        0x8 C:/Users/Eldin/Documents/GitHub/Neon3D/FPGA/Software/Neon3DSoftware_bsp/\libucosii_bsp.a(alt_env_lock.o)
                0x000000000001fe58                alt_envsem
 .sbss          0x000000000001fe5c        0x8 C:/Users/Eldin/Documents/GitHub/Neon3D/FPGA/Software/Neon3DSoftware_bsp/\libucosii_bsp.a(alt_malloc_lock.o)
                0x000000000001fe60                alt_heapsem
 .sbss          0x000000000001fe64       0x50 C:/Users/Eldin/Documents/GitHub/Neon3D/FPGA/Software/Neon3DSoftware_bsp/\libucosii_bsp.a(os_core.o)
                0x000000000001fe64                OSLockNesting
                0x000000000001fe65                OSRunning
                0x000000000001fe68                OSIdleCtr
                0x000000000001fe6c                OSPrioHighRdy
                0x000000000001fe6d                OSPrioCur
                0x000000000001fe70                OSTCBList
                0x000000000001fe74                OSTickStepState
                0x000000000001fe78                OSCtxSwCtr
                0x000000000001fe7c                OSIdleCtrMax
                0x000000000001fe80                OSTCBFreeList
                0x000000000001fe84                OSCPUUsage
                0x000000000001fe85                OSTaskCtr
                0x000000000001fe88                OSMemFreeList
                0x000000000001fe8c                OSTCBHighRdy
                0x000000000001fe90                OSQFreeList
                0x000000000001fe94                OSRdyGrp
                0x000000000001fe95                OSRdyTbl
                0x000000000001fe98                OSEventFreeList
                0x000000000001fe9c                OSIntNesting
                0x000000000001fea0                OSTCBCur
                0x000000000001fea4                OSTime
                0x000000000001fea8                OSFlagFreeList
                0x000000000001feac                OSStatRdy
                0x000000000001feb0                OSIdleCtrRun
 .sbss          0x000000000001feb4        0x4 C:/Users/Eldin/Documents/GitHub/Neon3D/FPGA/Software/Neon3DSoftware_bsp/\libucosii_bsp.a(alt_dev.o)
                0x000000000001feb4                alt_fd_list_lock
 .sbss          0x000000000001feb8        0x4 C:/Users/Eldin/Documents/GitHub/Neon3D/FPGA/Software/Neon3DSoftware_bsp/\libucosii_bsp.a(alt_irq_vars.o)
                0x000000000001feb8                alt_irq_active
 .sbss          0x000000000001febc        0x8 C:/Users/Eldin/Documents/GitHub/Neon3D/FPGA/Software/Neon3DSoftware_bsp/\libucosii_bsp.a(alt_tick.o)
                0x000000000001febc                _alt_tick_rate
                0x000000000001fec0                _alt_nticks
 .sbss          0x000000000001fec4        0x4 C:/Users/Eldin/Documents/GitHub/Neon3D/FPGA/Software/Neon3DSoftware_bsp/\libucosii_bsp.a(alt_instruction_exception_entry.o)
                0x000000000001fec4                alt_instruction_exception_handler
 *(.sbss2 .sbss2.* .gnu.linkonce.sb2.*)
 *(.scommon)
                0x000000000001fec8                PROVIDE (__sbss_end, ABSOLUTE (.))
                0x000000000001fec8                PROVIDE (___sbss_end, ABSOLUTE (.))
 *(.dynbss)
 *(.bss .bss.* .gnu.linkonce.b.*)
 .bss           0x000000000001fec8        0x0 C:/Users/Eldin/Documents/GitHub/Neon3D/FPGA/Software/Neon3DSoftware_bsp//obj/HAL/src/crt0.o
 .bss           0x000000000001fec8        0x0 obj/default/hello_ucosii.o
 .bss           0x000000000001fec8        0x0 c:/altera_lite/15.1/nios2eds/bin/gnu/h-x86_64-mingw32/bin/../lib/gcc/nios2-elf/4.9.2/../../../../../H-x86_64-mingw32/nios2-elf/lib/mhw-mulx\libm.a(lib_a-s_cos.o)
 .bss           0x000000000001fec8        0x0 c:/altera_lite/15.1/nios2eds/bin/gnu/h-x86_64-mingw32/bin/../lib/gcc/nios2-elf/4.9.2/../../../../../H-x86_64-mingw32/nios2-elf/lib/mhw-mulx\libm.a(lib_a-s_sin.o)
 .bss           0x000000000001fec8        0x0 c:/altera_lite/15.1/nios2eds/bin/gnu/h-x86_64-mingw32/bin/../lib/gcc/nios2-elf/4.9.2/../../../../../H-x86_64-mingw32/nios2-elf/lib/mhw-mulx\libm.a(lib_a-e_rem_pio2.o)
 .bss           0x000000000001fec8        0x0 c:/altera_lite/15.1/nios2eds/bin/gnu/h-x86_64-mingw32/bin/../lib/gcc/nios2-elf/4.9.2/../../../../../H-x86_64-mingw32/nios2-elf/lib/mhw-mulx\libm.a(lib_a-k_cos.o)
 .bss           0x000000000001fec8        0x0 c:/altera_lite/15.1/nios2eds/bin/gnu/h-x86_64-mingw32/bin/../lib/gcc/nios2-elf/4.9.2/../../../../../H-x86_64-mingw32/nios2-elf/lib/mhw-mulx\libm.a(lib_a-k_rem_pio2.o)
 .bss           0x000000000001fec8        0x0 c:/altera_lite/15.1/nios2eds/bin/gnu/h-x86_64-mingw32/bin/../lib/gcc/nios2-elf/4.9.2/../../../../../H-x86_64-mingw32/nios2-elf/lib/mhw-mulx\libm.a(lib_a-k_sin.o)
 .bss           0x000000000001fec8        0x0 c:/altera_lite/15.1/nios2eds/bin/gnu/h-x86_64-mingw32/bin/../lib/gcc/nios2-elf/4.9.2/../../../../../H-x86_64-mingw32/nios2-elf/lib/mhw-mulx\libm.a(lib_a-s_fabs.o)
 .bss           0x000000000001fec8        0x0 c:/altera_lite/15.1/nios2eds/bin/gnu/h-x86_64-mingw32/bin/../lib/gcc/nios2-elf/4.9.2/../../../../../H-x86_64-mingw32/nios2-elf/lib/mhw-mulx\libm.a(lib_a-s_floor.o)
 .bss           0x000000000001fec8        0x0 c:/altera_lite/15.1/nios2eds/bin/gnu/h-x86_64-mingw32/bin/../lib/gcc/nios2-elf/4.9.2/../../../../../H-x86_64-mingw32/nios2-elf/lib/mhw-mulx\libm.a(lib_a-s_scalbn.o)
 .bss           0x000000000001fec8        0x0 c:/altera_lite/15.1/nios2eds/bin/gnu/h-x86_64-mingw32/bin/../lib/gcc/nios2-elf/4.9.2/../../../../../H-x86_64-mingw32/nios2-elf/lib/mhw-mulx\libm.a(lib_a-s_copysign.o)
 .bss           0x000000000001fec8        0x0 c:/altera_lite/15.1/nios2eds/bin/gnu/h-x86_64-mingw32/bin/../lib/gcc/nios2-elf/4.9.2/mhw-mulx\libgcc.a(lib2-divmod.o)
 .bss           0x000000000001fec8        0x0 c:/altera_lite/15.1/nios2eds/bin/gnu/h-x86_64-mingw32/bin/../lib/gcc/nios2-elf/4.9.2/mhw-mulx\libgcc.a(floatsisf.o)
 .bss           0x000000000001fec8        0x0 c:/altera_lite/15.1/nios2eds/bin/gnu/h-x86_64-mingw32/bin/../lib/gcc/nios2-elf/4.9.2/mhw-mulx\libgcc.a(adddf3.o)
 .bss           0x000000000001fec8        0x0 c:/altera_lite/15.1/nios2eds/bin/gnu/h-x86_64-mingw32/bin/../lib/gcc/nios2-elf/4.9.2/mhw-mulx\libgcc.a(divdf3.o)
 .bss           0x000000000001fec8        0x0 c:/altera_lite/15.1/nios2eds/bin/gnu/h-x86_64-mingw32/bin/../lib/gcc/nios2-elf/4.9.2/mhw-mulx\libgcc.a(eqdf2.o)
 .bss           0x000000000001fec8        0x0 c:/altera_lite/15.1/nios2eds/bin/gnu/h-x86_64-mingw32/bin/../lib/gcc/nios2-elf/4.9.2/mhw-mulx\libgcc.a(gedf2.o)
 .bss           0x000000000001fec8        0x0 c:/altera_lite/15.1/nios2eds/bin/gnu/h-x86_64-mingw32/bin/../lib/gcc/nios2-elf/4.9.2/mhw-mulx\libgcc.a(ledf2.o)
 .bss           0x000000000001fec8        0x0 c:/altera_lite/15.1/nios2eds/bin/gnu/h-x86_64-mingw32/bin/../lib/gcc/nios2-elf/4.9.2/mhw-mulx\libgcc.a(muldf3.o)
 .bss           0x000000000001fec8        0x0 c:/altera_lite/15.1/nios2eds/bin/gnu/h-x86_64-mingw32/bin/../lib/gcc/nios2-elf/4.9.2/mhw-mulx\libgcc.a(subdf3.o)
 .bss           0x000000000001fec8        0x0 c:/altera_lite/15.1/nios2eds/bin/gnu/h-x86_64-mingw32/bin/../lib/gcc/nios2-elf/4.9.2/mhw-mulx\libgcc.a(fixdfsi.o)
 .bss           0x000000000001fec8        0x0 c:/altera_lite/15.1/nios2eds/bin/gnu/h-x86_64-mingw32/bin/../lib/gcc/nios2-elf/4.9.2/mhw-mulx\libgcc.a(floatsidf.o)
 .bss           0x000000000001fec8        0x0 c:/altera_lite/15.1/nios2eds/bin/gnu/h-x86_64-mingw32/bin/../lib/gcc/nios2-elf/4.9.2/mhw-mulx\libgcc.a(extendsfdf2.o)
 .bss           0x000000000001fec8        0x0 c:/altera_lite/15.1/nios2eds/bin/gnu/h-x86_64-mingw32/bin/../lib/gcc/nios2-elf/4.9.2/mhw-mulx\libgcc.a(_clzsi2.o)
 .bss           0x000000000001fec8        0x0 c:/altera_lite/15.1/nios2eds/bin/gnu/h-x86_64-mingw32/bin/../lib/gcc/nios2-elf/4.9.2/mhw-mulx\libgcc.a(_clz.o)
 .bss           0x000000000001fec8        0x0 c:/altera_lite/15.1/nios2eds/bin/gnu/h-x86_64-mingw32/bin/../lib/gcc/nios2-elf/4.9.2/../../../../../H-x86_64-mingw32/nios2-elf/lib/mhw-mulx\libc.a(lib_a-memcpy.o)
 .bss           0x000000000001fec8        0x0 c:/altera_lite/15.1/nios2eds/bin/gnu/h-x86_64-mingw32/bin/../lib/gcc/nios2-elf/4.9.2/../../../../../H-x86_64-mingw32/nios2-elf/lib/mhw-mulx\libc.a(lib_a-sprintf.o)
 .bss           0x000000000001fec8        0x0 c:/altera_lite/15.1/nios2eds/bin/gnu/h-x86_64-mingw32/bin/../lib/gcc/nios2-elf/4.9.2/../../../../../H-x86_64-mingw32/nios2-elf/lib/mhw-mulx\libc.a(lib_a-svfprintf.o)
 .bss           0x000000000001fec8        0x0 c:/altera_lite/15.1/nios2eds/bin/gnu/h-x86_64-mingw32/bin/../lib/gcc/nios2-elf/4.9.2/../../../../../H-x86_64-mingw32/nios2-elf/lib/mhw-mulx\libc.a(lib_a-dtoa.o)
 .bss           0x000000000001fec8        0x0 c:/altera_lite/15.1/nios2eds/bin/gnu/h-x86_64-mingw32/bin/../lib/gcc/nios2-elf/4.9.2/../../../../../H-x86_64-mingw32/nios2-elf/lib/mhw-mulx\libc.a(lib_a-impure.o)
 .bss           0x000000000001fec8        0x0 c:/altera_lite/15.1/nios2eds/bin/gnu/h-x86_64-mingw32/bin/../lib/gcc/nios2-elf/4.9.2/../../../../../H-x86_64-mingw32/nios2-elf/lib/mhw-mulx\libc.a(lib_a-locale.o)
 .bss           0x000000000001fec8        0x0 c:/altera_lite/15.1/nios2eds/bin/gnu/h-x86_64-mingw32/bin/../lib/gcc/nios2-elf/4.9.2/../../../../../H-x86_64-mingw32/nios2-elf/lib/mhw-mulx\libc.a(lib_a-mallocr.o)
 .bss.__malloc_current_mallinfo
                0x000000000001fec8       0x28 c:/altera_lite/15.1/nios2eds/bin/gnu/h-x86_64-mingw32/bin/../lib/gcc/nios2-elf/4.9.2/../../../../../H-x86_64-mingw32/nios2-elf/lib/mhw-mulx\libc.a(lib_a-mallocr.o)
                0x000000000001fec8                __malloc_current_mallinfo
 .bss           0x000000000001fef0        0x0 c:/altera_lite/15.1/nios2eds/bin/gnu/h-x86_64-mingw32/bin/../lib/gcc/nios2-elf/4.9.2/../../../../../H-x86_64-mingw32/nios2-elf/lib/mhw-mulx\libc.a(lib_a-memchr.o)
 .bss           0x000000000001fef0        0x0 c:/altera_lite/15.1/nios2eds/bin/gnu/h-x86_64-mingw32/bin/../lib/gcc/nios2-elf/4.9.2/../../../../../H-x86_64-mingw32/nios2-elf/lib/mhw-mulx\libc.a(lib_a-mprec.o)
 .bss           0x000000000001fef0        0x0 c:/altera_lite/15.1/nios2eds/bin/gnu/h-x86_64-mingw32/bin/../lib/gcc/nios2-elf/4.9.2/../../../../../H-x86_64-mingw32/nios2-elf/lib/mhw-mulx\libc.a(lib_a-s_fpclassify.o)
 .bss           0x000000000001fef0        0x0 c:/altera_lite/15.1/nios2eds/bin/gnu/h-x86_64-mingw32/bin/../lib/gcc/nios2-elf/4.9.2/../../../../../H-x86_64-mingw32/nios2-elf/lib/mhw-mulx\libc.a(lib_a-sbrkr.o)
 .bss           0x000000000001fef0        0x0 c:/altera_lite/15.1/nios2eds/bin/gnu/h-x86_64-mingw32/bin/../lib/gcc/nios2-elf/4.9.2/../../../../../H-x86_64-mingw32/nios2-elf/lib/mhw-mulx\libc.a(lib_a-strcmp.o)
 .bss           0x000000000001fef0        0x0 c:/altera_lite/15.1/nios2eds/bin/gnu/h-x86_64-mingw32/bin/../lib/gcc/nios2-elf/4.9.2/../../../../../H-x86_64-mingw32/nios2-elf/lib/mhw-mulx\libc.a(lib_a-strlen.o)
 .bss           0x000000000001fef0        0x0 c:/altera_lite/15.1/nios2eds/bin/gnu/h-x86_64-mingw32/bin/../lib/gcc/nios2-elf/4.9.2/../../../../../H-x86_64-mingw32/nios2-elf/lib/mhw-mulx\libc.a(lib_a-svfiprintf.o)
 .bss           0x000000000001fef0        0x0 c:/altera_lite/15.1/nios2eds/bin/gnu/h-x86_64-mingw32/bin/../lib/gcc/nios2-elf/4.9.2/../../../../../H-x86_64-mingw32/nios2-elf/lib/mhw-mulx\libc.a(lib_a-callocr.o)
 .bss           0x000000000001fef0        0x0 c:/altera_lite/15.1/nios2eds/bin/gnu/h-x86_64-mingw32/bin/../lib/gcc/nios2-elf/4.9.2/../../../../../H-x86_64-mingw32/nios2-elf/lib/mhw-mulx\libc.a(lib_a-freer.o)
 .bss           0x000000000001fef0        0x0 c:/altera_lite/15.1/nios2eds/bin/gnu/h-x86_64-mingw32/bin/../lib/gcc/nios2-elf/4.9.2/../../../../../H-x86_64-mingw32/nios2-elf/lib/mhw-mulx\libc.a(lib_a-int_errno.o)
 .bss           0x000000000001fef0        0x0 c:/altera_lite/15.1/nios2eds/bin/gnu/h-x86_64-mingw32/bin/../lib/gcc/nios2-elf/4.9.2/../../../../../H-x86_64-mingw32/nios2-elf/lib/mhw-mulx\libc.a(lib_a-memmove.o)
 .bss           0x000000000001fef0        0x0 c:/altera_lite/15.1/nios2eds/bin/gnu/h-x86_64-mingw32/bin/../lib/gcc/nios2-elf/4.9.2/../../../../../H-x86_64-mingw32/nios2-elf/lib/mhw-mulx\libc.a(lib_a-memset.o)
 .bss           0x000000000001fef0        0x0 c:/altera_lite/15.1/nios2eds/bin/gnu/h-x86_64-mingw32/bin/../lib/gcc/nios2-elf/4.9.2/../../../../../H-x86_64-mingw32/nios2-elf/lib/mhw-mulx\libc.a(lib_a-reallocr.o)
 .bss           0x000000000001fef0        0x0 c:/altera_lite/15.1/nios2eds/bin/gnu/h-x86_64-mingw32/bin/../lib/gcc/nios2-elf/4.9.2/mhw-mulx\libgcc.a(_udivdi3.o)
 .bss           0x000000000001fef0        0x0 c:/altera_lite/15.1/nios2eds/bin/gnu/h-x86_64-mingw32/bin/../lib/gcc/nios2-elf/4.9.2/mhw-mulx\libgcc.a(_umoddi3.o)
 .bss           0x000000000001fef0        0x0 c:/altera_lite/15.1/nios2eds/bin/gnu/h-x86_64-mingw32/bin/../lib/gcc/nios2-elf/4.9.2/mhw-mulx\libgcc.a(floatunsidf.o)
 .bss           0x000000000001fef0        0x0 C:/Users/Eldin/Documents/GitHub/Neon3D/FPGA/Software/Neon3DSoftware_bsp/\libucosii_bsp.a(alt_load.o)
 .bss           0x000000000001fef0        0x0 C:/Users/Eldin/Documents/GitHub/Neon3D/FPGA/Software/Neon3DSoftware_bsp/\libucosii_bsp.a(alt_main.o)
 .bss           0x000000000001fef0        0x0 C:/Users/Eldin/Documents/GitHub/Neon3D/FPGA/Software/Neon3DSoftware_bsp/\libucosii_bsp.a(alt_sbrk.o)
 .bss           0x000000000001fef0        0x0 C:/Users/Eldin/Documents/GitHub/Neon3D/FPGA/Software/Neon3DSoftware_bsp/\libucosii_bsp.a(alt_env_lock.o)
 .bss           0x000000000001fef0        0x0 C:/Users/Eldin/Documents/GitHub/Neon3D/FPGA/Software/Neon3DSoftware_bsp/\libucosii_bsp.a(alt_malloc_lock.o)
 .bss           0x000000000001fef0        0x0 C:/Users/Eldin/Documents/GitHub/Neon3D/FPGA/Software/Neon3DSoftware_bsp/\libucosii_bsp.a(os_core.o)
 .bss           0x000000000001fef0        0x0 C:/Users/Eldin/Documents/GitHub/Neon3D/FPGA/Software/Neon3DSoftware_bsp/\libucosii_bsp.a(os_dbg.o)
 .bss           0x000000000001fef0        0x0 C:/Users/Eldin/Documents/GitHub/Neon3D/FPGA/Software/Neon3DSoftware_bsp/\libucosii_bsp.a(os_flag.o)
 .bss           0x000000000001fef0        0x0 C:/Users/Eldin/Documents/GitHub/Neon3D/FPGA/Software/Neon3DSoftware_bsp/\libucosii_bsp.a(os_mem.o)
 .bss           0x000000000001fef0        0x0 C:/Users/Eldin/Documents/GitHub/Neon3D/FPGA/Software/Neon3DSoftware_bsp/\libucosii_bsp.a(os_q.o)
 .bss           0x000000000001fef0        0x0 C:/Users/Eldin/Documents/GitHub/Neon3D/FPGA/Software/Neon3DSoftware_bsp/\libucosii_bsp.a(os_sem.o)
 .bss           0x000000000001fef0        0x0 C:/Users/Eldin/Documents/GitHub/Neon3D/FPGA/Software/Neon3DSoftware_bsp/\libucosii_bsp.a(os_task.o)
 .bss           0x000000000001fef0        0x0 C:/Users/Eldin/Documents/GitHub/Neon3D/FPGA/Software/Neon3DSoftware_bsp/\libucosii_bsp.a(os_time.o)
 .bss           0x000000000001fef0        0x0 C:/Users/Eldin/Documents/GitHub/Neon3D/FPGA/Software/Neon3DSoftware_bsp/\libucosii_bsp.a(alt_sys_init.o)
 .bss           0x000000000001fef0        0x0 C:/Users/Eldin/Documents/GitHub/Neon3D/FPGA/Software/Neon3DSoftware_bsp/\libucosii_bsp.a(altera_avalon_jtag_uart_fd.o)
 .bss           0x000000000001fef0        0x0 C:/Users/Eldin/Documents/GitHub/Neon3D/FPGA/Software/Neon3DSoftware_bsp/\libucosii_bsp.a(altera_avalon_jtag_uart_init.o)
 .bss           0x000000000001fef0        0x0 C:/Users/Eldin/Documents/GitHub/Neon3D/FPGA/Software/Neon3DSoftware_bsp/\libucosii_bsp.a(altera_avalon_jtag_uart_ioctl.o)
 .bss           0x000000000001fef0        0x0 C:/Users/Eldin/Documents/GitHub/Neon3D/FPGA/Software/Neon3DSoftware_bsp/\libucosii_bsp.a(altera_avalon_jtag_uart_read.o)
 .bss           0x000000000001fef0        0x0 C:/Users/Eldin/Documents/GitHub/Neon3D/FPGA/Software/Neon3DSoftware_bsp/\libucosii_bsp.a(altera_avalon_jtag_uart_write.o)
 .bss           0x000000000001fef0        0x0 C:/Users/Eldin/Documents/GitHub/Neon3D/FPGA/Software/Neon3DSoftware_bsp/\libucosii_bsp.a(altera_avalon_timer_sc.o)
 .bss           0x000000000001fef0        0x0 C:/Users/Eldin/Documents/GitHub/Neon3D/FPGA/Software/Neon3DSoftware_bsp/\libucosii_bsp.a(altera_up_avalon_character_lcd.o)
 .bss           0x000000000001fef0        0x0 C:/Users/Eldin/Documents/GitHub/Neon3D/FPGA/Software/Neon3DSoftware_bsp/\libucosii_bsp.a(altera_up_avalon_irda.o)
 .bss           0x000000000001fef0        0x0 C:/Users/Eldin/Documents/GitHub/Neon3D/FPGA/Software/Neon3DSoftware_bsp/\libucosii_bsp.a(altera_up_avalon_ps2.o)
 .bss           0x000000000001fef0        0x0 C:/Users/Eldin/Documents/GitHub/Neon3D/FPGA/Software/Neon3DSoftware_bsp/\libucosii_bsp.a(altera_up_avalon_rs232.o)
 .bss           0x000000000001fef0        0x0 C:/Users/Eldin/Documents/GitHub/Neon3D/FPGA/Software/Neon3DSoftware_bsp/\libucosii_bsp.a(altera_up_avalon_video_character_buffer_with_dma.o)
 .bss           0x000000000001fef0        0x0 C:/Users/Eldin/Documents/GitHub/Neon3D/FPGA/Software/Neon3DSoftware_bsp/\libucosii_bsp.a(alt_alarm_start.o)
 .bss           0x000000000001fef0        0x0 C:/Users/Eldin/Documents/GitHub/Neon3D/FPGA/Software/Neon3DSoftware_bsp/\libucosii_bsp.a(alt_close.o)
 .bss           0x000000000001fef0        0x0 C:/Users/Eldin/Documents/GitHub/Neon3D/FPGA/Software/Neon3DSoftware_bsp/\libucosii_bsp.a(alt_dcache_flush_all.o)
 .bss           0x000000000001fef0        0x0 C:/Users/Eldin/Documents/GitHub/Neon3D/FPGA/Software/Neon3DSoftware_bsp/\libucosii_bsp.a(alt_dev.o)
 .bss           0x000000000001fef0        0x0 C:/Users/Eldin/Documents/GitHub/Neon3D/FPGA/Software/Neon3DSoftware_bsp/\libucosii_bsp.a(alt_dev_llist_insert.o)
 .bss           0x000000000001fef0        0x0 C:/Users/Eldin/Documents/GitHub/Neon3D/FPGA/Software/Neon3DSoftware_bsp/\libucosii_bsp.a(alt_do_ctors.o)
 .bss           0x000000000001fef0        0x0 C:/Users/Eldin/Documents/GitHub/Neon3D/FPGA/Software/Neon3DSoftware_bsp/\libucosii_bsp.a(alt_do_dtors.o)
 .bss           0x000000000001fef0        0x0 C:/Users/Eldin/Documents/GitHub/Neon3D/FPGA/Software/Neon3DSoftware_bsp/\libucosii_bsp.a(alt_errno.o)
 .bss           0x000000000001fef0        0x0 C:/Users/Eldin/Documents/GitHub/Neon3D/FPGA/Software/Neon3DSoftware_bsp/\libucosii_bsp.a(alt_find_dev.o)
 .bss           0x000000000001fef0        0x0 C:/Users/Eldin/Documents/GitHub/Neon3D/FPGA/Software/Neon3DSoftware_bsp/\libucosii_bsp.a(alt_icache_flush_all.o)
 .bss           0x000000000001fef0        0x0 C:/Users/Eldin/Documents/GitHub/Neon3D/FPGA/Software/Neon3DSoftware_bsp/\libucosii_bsp.a(alt_io_redirect.o)
 .bss           0x000000000001fef0        0x0 C:/Users/Eldin/Documents/GitHub/Neon3D/FPGA/Software/Neon3DSoftware_bsp/\libucosii_bsp.a(alt_irq_register.o)
 .bss           0x000000000001fef0        0x0 C:/Users/Eldin/Documents/GitHub/Neon3D/FPGA/Software/Neon3DSoftware_bsp/\libucosii_bsp.a(alt_irq_vars.o)
 .bss           0x000000000001fef0        0x0 C:/Users/Eldin/Documents/GitHub/Neon3D/FPGA/Software/Neon3DSoftware_bsp/\libucosii_bsp.a(alt_open.o)
 .bss           0x000000000001fef0        0x0 C:/Users/Eldin/Documents/GitHub/Neon3D/FPGA/Software/Neon3DSoftware_bsp/\libucosii_bsp.a(alt_release_fd.o)
 .bss           0x000000000001fef0        0x0 C:/Users/Eldin/Documents/GitHub/Neon3D/FPGA/Software/Neon3DSoftware_bsp/\libucosii_bsp.a(alt_tick.o)
 .bss           0x000000000001fef0        0x0 C:/Users/Eldin/Documents/GitHub/Neon3D/FPGA/Software/Neon3DSoftware_bsp/\libucosii_bsp.a(altera_nios2_gen2_irq.o)
 .bss           0x000000000001fef0        0x0 C:/Users/Eldin/Documents/GitHub/Neon3D/FPGA/Software/Neon3DSoftware_bsp/\libucosii_bsp.a(os_cpu_a.o)
 .bss           0x000000000001fef0        0x0 C:/Users/Eldin/Documents/GitHub/Neon3D/FPGA/Software/Neon3DSoftware_bsp/\libucosii_bsp.a(os_cpu_c.o)
 .bss           0x000000000001fef0        0x0 C:/Users/Eldin/Documents/GitHub/Neon3D/FPGA/Software/Neon3DSoftware_bsp/\libucosii_bsp.a(alt_find_file.o)
 .bss           0x000000000001fef0        0x0 C:/Users/Eldin/Documents/GitHub/Neon3D/FPGA/Software/Neon3DSoftware_bsp/\libucosii_bsp.a(alt_get_fd.o)
 .bss           0x000000000001fef0        0x0 C:/Users/Eldin/Documents/GitHub/Neon3D/FPGA/Software/Neon3DSoftware_bsp/\libucosii_bsp.a(alt_icache_flush.o)
 .bss           0x000000000001fef0        0x0 C:/Users/Eldin/Documents/GitHub/Neon3D/FPGA/Software/Neon3DSoftware_bsp/\libucosii_bsp.a(alt_irq_entry.o)
 .bss           0x000000000001fef0        0x0 C:/Users/Eldin/Documents/GitHub/Neon3D/FPGA/Software/Neon3DSoftware_bsp/\libucosii_bsp.a(alt_irq_handler.o)
 .bss           0x000000000001fef0        0x0 C:/Users/Eldin/Documents/GitHub/Neon3D/FPGA/Software/Neon3DSoftware_bsp/\libucosii_bsp.a(alt_exception_entry.o)
 .bss           0x000000000001fef0        0x0 C:/Users/Eldin/Documents/GitHub/Neon3D/FPGA/Software/Neon3DSoftware_bsp/\libucosii_bsp.a(alt_instruction_exception_entry.o)
 .bss           0x000000000001fef0        0x0 c:/altera_lite/15.1/nios2eds/bin/gnu/h-x86_64-mingw32/bin/../lib/gcc/nios2-elf/4.9.2/../../../../../H-x86_64-mingw32/nios2-elf/lib/mhw-mulx\libc.a(lib_a-atexit.o)
 .bss           0x000000000001fef0        0x0 c:/altera_lite/15.1/nios2eds/bin/gnu/h-x86_64-mingw32/bin/../lib/gcc/nios2-elf/4.9.2/../../../../../H-x86_64-mingw32/nios2-elf/lib/mhw-mulx\libc.a(lib_a-exit.o)
 .bss           0x000000000001fef0        0x0 c:/altera_lite/15.1/nios2eds/bin/gnu/h-x86_64-mingw32/bin/../lib/gcc/nios2-elf/4.9.2/../../../../../H-x86_64-mingw32/nios2-elf/lib/mhw-mulx\libc.a(lib_a-memcmp.o)
 .bss           0x000000000001fef0        0x0 c:/altera_lite/15.1/nios2eds/bin/gnu/h-x86_64-mingw32/bin/../lib/gcc/nios2-elf/4.9.2/../../../../../H-x86_64-mingw32/nios2-elf/lib/mhw-mulx\libc.a(lib_a-__atexit.o)
 .bss           0x000000000001fef0        0x0 c:/altera_lite/15.1/nios2eds/bin/gnu/h-x86_64-mingw32/bin/../lib/gcc/nios2-elf/4.9.2/../../../../../H-x86_64-mingw32/nios2-elf/lib/mhw-mulx\libc.a(lib_a-__call_atexit.o)
 .bss           0x000000000001fef0        0x0 C:/Users/Eldin/Documents/GitHub/Neon3D/FPGA/Software/Neon3DSoftware_bsp/\libucosii_bsp.a(alt_exit.o)
 *(COMMON)
 COMMON         0x000000000001fef0     0x3224 C:/Users/Eldin/Documents/GitHub/Neon3D/FPGA/Software/Neon3DSoftware_bsp/\libucosii_bsp.a(os_core.o)
                0x000000000001fef0                OSFlagTbl
                0x0000000000020260                OSMemTbl
                0x0000000000020e90                OSTaskStatStk
                0x0000000000021690                OSQTbl
                0x0000000000021870                OSTaskIdleStk
                0x0000000000022070                OSEventTbl
                0x0000000000022bb0                OSTCBTbl
                0x00000000000230c0                OSTCBPrioTbl
 COMMON         0x0000000000023114      0x100 C:/Users/Eldin/Documents/GitHub/Neon3D/FPGA/Software/Neon3DSoftware_bsp/\libucosii_bsp.a(alt_irq_handler.o)
                0x0000000000023114                alt_irq
                0x0000000000023214                . = ALIGN (0x4)
                0x0000000000023214                __bss_end = ABSOLUTE (.)

.SDRAM          0x0000000000023214        0x0
                0x0000000000023214                PROVIDE (_alt_partition_SDRAM_start, ABSOLUTE (.))
 *(.SDRAM .SDRAM. SDRAM.*)
                0x0000000000023214                . = ALIGN (0x4)
                0x0000000000023214                PROVIDE (_alt_partition_SDRAM_end, ABSOLUTE (.))
                0x0000000000023214                _end = ABSOLUTE (.)
                0x0000000000023214                end = ABSOLUTE (.)
                0x0000000000023214                __alt_stack_base = ABSOLUTE (.)
                0x0000000000023214                PROVIDE (_alt_partition_SDRAM_load_addr, LOADADDR (.SDRAM))

.Flash_flash_data
                0x000000000c000000        0x0 load address 0x0000000000023214
                0x000000000c000000                PROVIDE (_alt_partition_Flash_flash_data_start, ABSOLUTE (.))
 *(.Flash_flash_data .Flash_flash_data. Flash_flash_data.*)
                0x000000000c000000                . = ALIGN (0x4)
                0x000000000c000000                PROVIDE (_alt_partition_Flash_flash_data_end, ABSOLUTE (.))
                0x0000000000023214                PROVIDE (_alt_partition_Flash_flash_data_load_addr, LOADADDR (.Flash_flash_data))

.stab
 *(.stab)

.stabstr
 *(.stabstr)

.stab.excl
 *(.stab.excl)

.stab.exclstr
 *(.stab.exclstr)

.stab.index
 *(.stab.index)

.stab.indexstr
 *(.stab.indexstr)

.comment        0x0000000000000000       0x23
 *(.comment)
 .comment       0x0000000000000000       0x23 obj/default/hello_ucosii.o
                                         0x24 (size before relaxing)
 .comment       0x0000000000000000       0x24 c:/altera_lite/15.1/nios2eds/bin/gnu/h-x86_64-mingw32/bin/../lib/gcc/nios2-elf/4.9.2/../../../../../H-x86_64-mingw32/nios2-elf/lib/mhw-mulx\libm.a(lib_a-s_cos.o)
 .comment       0x0000000000000000       0x24 c:/altera_lite/15.1/nios2eds/bin/gnu/h-x86_64-mingw32/bin/../lib/gcc/nios2-elf/4.9.2/../../../../../H-x86_64-mingw32/nios2-elf/lib/mhw-mulx\libm.a(lib_a-s_sin.o)
 .comment       0x0000000000000000       0x24 c:/altera_lite/15.1/nios2eds/bin/gnu/h-x86_64-mingw32/bin/../lib/gcc/nios2-elf/4.9.2/../../../../../H-x86_64-mingw32/nios2-elf/lib/mhw-mulx\libm.a(lib_a-e_rem_pio2.o)
 .comment       0x0000000000000000       0x24 c:/altera_lite/15.1/nios2eds/bin/gnu/h-x86_64-mingw32/bin/../lib/gcc/nios2-elf/4.9.2/../../../../../H-x86_64-mingw32/nios2-elf/lib/mhw-mulx\libm.a(lib_a-k_cos.o)
 .comment       0x0000000000000000       0x24 c:/altera_lite/15.1/nios2eds/bin/gnu/h-x86_64-mingw32/bin/../lib/gcc/nios2-elf/4.9.2/../../../../../H-x86_64-mingw32/nios2-elf/lib/mhw-mulx\libm.a(lib_a-k_rem_pio2.o)
 .comment       0x0000000000000000       0x24 c:/altera_lite/15.1/nios2eds/bin/gnu/h-x86_64-mingw32/bin/../lib/gcc/nios2-elf/4.9.2/../../../../../H-x86_64-mingw32/nios2-elf/lib/mhw-mulx\libm.a(lib_a-k_sin.o)
 .comment       0x0000000000000000       0x24 c:/altera_lite/15.1/nios2eds/bin/gnu/h-x86_64-mingw32/bin/../lib/gcc/nios2-elf/4.9.2/../../../../../H-x86_64-mingw32/nios2-elf/lib/mhw-mulx\libm.a(lib_a-s_fabs.o)
 .comment       0x0000000000000000       0x24 c:/altera_lite/15.1/nios2eds/bin/gnu/h-x86_64-mingw32/bin/../lib/gcc/nios2-elf/4.9.2/../../../../../H-x86_64-mingw32/nios2-elf/lib/mhw-mulx\libm.a(lib_a-s_floor.o)
 .comment       0x0000000000000000       0x24 c:/altera_lite/15.1/nios2eds/bin/gnu/h-x86_64-mingw32/bin/../lib/gcc/nios2-elf/4.9.2/../../../../../H-x86_64-mingw32/nios2-elf/lib/mhw-mulx\libm.a(lib_a-s_scalbn.o)
 .comment       0x0000000000000000       0x24 c:/altera_lite/15.1/nios2eds/bin/gnu/h-x86_64-mingw32/bin/../lib/gcc/nios2-elf/4.9.2/../../../../../H-x86_64-mingw32/nios2-elf/lib/mhw-mulx\libm.a(lib_a-s_copysign.o)
 .comment       0x0000000000000000       0x24 c:/altera_lite/15.1/nios2eds/bin/gnu/h-x86_64-mingw32/bin/../lib/gcc/nios2-elf/4.9.2/mhw-mulx\libgcc.a(lib2-divmod.o)
 .comment       0x0000000000000000       0x24 c:/altera_lite/15.1/nios2eds/bin/gnu/h-x86_64-mingw32/bin/../lib/gcc/nios2-elf/4.9.2/mhw-mulx\libgcc.a(floatsisf.o)
 .comment       0x0000000000000000       0x24 c:/altera_lite/15.1/nios2eds/bin/gnu/h-x86_64-mingw32/bin/../lib/gcc/nios2-elf/4.9.2/mhw-mulx\libgcc.a(adddf3.o)
 .comment       0x0000000000000000       0x24 c:/altera_lite/15.1/nios2eds/bin/gnu/h-x86_64-mingw32/bin/../lib/gcc/nios2-elf/4.9.2/mhw-mulx\libgcc.a(divdf3.o)
 .comment       0x0000000000000000       0x24 c:/altera_lite/15.1/nios2eds/bin/gnu/h-x86_64-mingw32/bin/../lib/gcc/nios2-elf/4.9.2/mhw-mulx\libgcc.a(eqdf2.o)
 .comment       0x0000000000000000       0x24 c:/altera_lite/15.1/nios2eds/bin/gnu/h-x86_64-mingw32/bin/../lib/gcc/nios2-elf/4.9.2/mhw-mulx\libgcc.a(gedf2.o)
 .comment       0x0000000000000000       0x24 c:/altera_lite/15.1/nios2eds/bin/gnu/h-x86_64-mingw32/bin/../lib/gcc/nios2-elf/4.9.2/mhw-mulx\libgcc.a(ledf2.o)
 .comment       0x0000000000000000       0x24 c:/altera_lite/15.1/nios2eds/bin/gnu/h-x86_64-mingw32/bin/../lib/gcc/nios2-elf/4.9.2/mhw-mulx\libgcc.a(muldf3.o)
 .comment       0x0000000000000000       0x24 c:/altera_lite/15.1/nios2eds/bin/gnu/h-x86_64-mingw32/bin/../lib/gcc/nios2-elf/4.9.2/mhw-mulx\libgcc.a(subdf3.o)
 .comment       0x0000000000000000       0x24 c:/altera_lite/15.1/nios2eds/bin/gnu/h-x86_64-mingw32/bin/../lib/gcc/nios2-elf/4.9.2/mhw-mulx\libgcc.a(fixdfsi.o)
 .comment       0x0000000000000000       0x24 c:/altera_lite/15.1/nios2eds/bin/gnu/h-x86_64-mingw32/bin/../lib/gcc/nios2-elf/4.9.2/mhw-mulx\libgcc.a(floatsidf.o)
 .comment       0x0000000000000000       0x24 c:/altera_lite/15.1/nios2eds/bin/gnu/h-x86_64-mingw32/bin/../lib/gcc/nios2-elf/4.9.2/mhw-mulx\libgcc.a(extendsfdf2.o)
 .comment       0x0000000000000000       0x24 c:/altera_lite/15.1/nios2eds/bin/gnu/h-x86_64-mingw32/bin/../lib/gcc/nios2-elf/4.9.2/mhw-mulx\libgcc.a(_clzsi2.o)
 .comment       0x0000000000000000       0x24 c:/altera_lite/15.1/nios2eds/bin/gnu/h-x86_64-mingw32/bin/../lib/gcc/nios2-elf/4.9.2/mhw-mulx\libgcc.a(_clz.o)
 .comment       0x0000000000000000       0x24 c:/altera_lite/15.1/nios2eds/bin/gnu/h-x86_64-mingw32/bin/../lib/gcc/nios2-elf/4.9.2/../../../../../H-x86_64-mingw32/nios2-elf/lib/mhw-mulx\libc.a(lib_a-memcpy.o)
 .comment       0x0000000000000000       0x24 c:/altera_lite/15.1/nios2eds/bin/gnu/h-x86_64-mingw32/bin/../lib/gcc/nios2-elf/4.9.2/../../../../../H-x86_64-mingw32/nios2-elf/lib/mhw-mulx\libc.a(lib_a-sprintf.o)
 .comment       0x0000000000000000       0x24 c:/altera_lite/15.1/nios2eds/bin/gnu/h-x86_64-mingw32/bin/../lib/gcc/nios2-elf/4.9.2/../../../../../H-x86_64-mingw32/nios2-elf/lib/mhw-mulx\libc.a(lib_a-svfprintf.o)
 .comment       0x0000000000000000       0x24 c:/altera_lite/15.1/nios2eds/bin/gnu/h-x86_64-mingw32/bin/../lib/gcc/nios2-elf/4.9.2/../../../../../H-x86_64-mingw32/nios2-elf/lib/mhw-mulx\libc.a(lib_a-dtoa.o)
 .comment       0x0000000000000000       0x24 c:/altera_lite/15.1/nios2eds/bin/gnu/h-x86_64-mingw32/bin/../lib/gcc/nios2-elf/4.9.2/../../../../../H-x86_64-mingw32/nios2-elf/lib/mhw-mulx\libc.a(lib_a-impure.o)
 .comment       0x0000000000000000       0x24 c:/altera_lite/15.1/nios2eds/bin/gnu/h-x86_64-mingw32/bin/../lib/gcc/nios2-elf/4.9.2/../../../../../H-x86_64-mingw32/nios2-elf/lib/mhw-mulx\libc.a(lib_a-locale.o)
 .comment       0x0000000000000000       0x24 c:/altera_lite/15.1/nios2eds/bin/gnu/h-x86_64-mingw32/bin/../lib/gcc/nios2-elf/4.9.2/../../../../../H-x86_64-mingw32/nios2-elf/lib/mhw-mulx\libc.a(lib_a-mallocr.o)
 .comment       0x0000000000000000       0x24 c:/altera_lite/15.1/nios2eds/bin/gnu/h-x86_64-mingw32/bin/../lib/gcc/nios2-elf/4.9.2/../../../../../H-x86_64-mingw32/nios2-elf/lib/mhw-mulx\libc.a(lib_a-memchr.o)
 .comment       0x0000000000000000       0x24 c:/altera_lite/15.1/nios2eds/bin/gnu/h-x86_64-mingw32/bin/../lib/gcc/nios2-elf/4.9.2/../../../../../H-x86_64-mingw32/nios2-elf/lib/mhw-mulx\libc.a(lib_a-mprec.o)
 .comment       0x0000000000000000       0x24 c:/altera_lite/15.1/nios2eds/bin/gnu/h-x86_64-mingw32/bin/../lib/gcc/nios2-elf/4.9.2/../../../../../H-x86_64-mingw32/nios2-elf/lib/mhw-mulx\libc.a(lib_a-s_fpclassify.o)
 .comment       0x0000000000000000       0x24 c:/altera_lite/15.1/nios2eds/bin/gnu/h-x86_64-mingw32/bin/../lib/gcc/nios2-elf/4.9.2/../../../../../H-x86_64-mingw32/nios2-elf/lib/mhw-mulx\libc.a(lib_a-sbrkr.o)
 .comment       0x0000000000000000       0x24 c:/altera_lite/15.1/nios2eds/bin/gnu/h-x86_64-mingw32/bin/../lib/gcc/nios2-elf/4.9.2/../../../../../H-x86_64-mingw32/nios2-elf/lib/mhw-mulx\libc.a(lib_a-strcmp.o)
 .comment       0x0000000000000000       0x24 c:/altera_lite/15.1/nios2eds/bin/gnu/h-x86_64-mingw32/bin/../lib/gcc/nios2-elf/4.9.2/../../../../../H-x86_64-mingw32/nios2-elf/lib/mhw-mulx\libc.a(lib_a-strlen.o)
 .comment       0x0000000000000000       0x24 c:/altera_lite/15.1/nios2eds/bin/gnu/h-x86_64-mingw32/bin/../lib/gcc/nios2-elf/4.9.2/../../../../../H-x86_64-mingw32/nios2-elf/lib/mhw-mulx\libc.a(lib_a-svfiprintf.o)
 .comment       0x0000000000000000       0x24 c:/altera_lite/15.1/nios2eds/bin/gnu/h-x86_64-mingw32/bin/../lib/gcc/nios2-elf/4.9.2/../../../../../H-x86_64-mingw32/nios2-elf/lib/mhw-mulx\libc.a(lib_a-callocr.o)
 .comment       0x0000000000000000       0x24 c:/altera_lite/15.1/nios2eds/bin/gnu/h-x86_64-mingw32/bin/../lib/gcc/nios2-elf/4.9.2/../../../../../H-x86_64-mingw32/nios2-elf/lib/mhw-mulx\libc.a(lib_a-freer.o)
 .comment       0x0000000000000000       0x24 c:/altera_lite/15.1/nios2eds/bin/gnu/h-x86_64-mingw32/bin/../lib/gcc/nios2-elf/4.9.2/../../../../../H-x86_64-mingw32/nios2-elf/lib/mhw-mulx\libc.a(lib_a-int_errno.o)
 .comment       0x0000000000000000       0x24 c:/altera_lite/15.1/nios2eds/bin/gnu/h-x86_64-mingw32/bin/../lib/gcc/nios2-elf/4.9.2/../../../../../H-x86_64-mingw32/nios2-elf/lib/mhw-mulx\libc.a(lib_a-memmove.o)
 .comment       0x0000000000000000       0x24 c:/altera_lite/15.1/nios2eds/bin/gnu/h-x86_64-mingw32/bin/../lib/gcc/nios2-elf/4.9.2/../../../../../H-x86_64-mingw32/nios2-elf/lib/mhw-mulx\libc.a(lib_a-memset.o)
 .comment       0x0000000000000000       0x24 c:/altera_lite/15.1/nios2eds/bin/gnu/h-x86_64-mingw32/bin/../lib/gcc/nios2-elf/4.9.2/../../../../../H-x86_64-mingw32/nios2-elf/lib/mhw-mulx\libc.a(lib_a-reallocr.o)
 .comment       0x0000000000000000       0x24 c:/altera_lite/15.1/nios2eds/bin/gnu/h-x86_64-mingw32/bin/../lib/gcc/nios2-elf/4.9.2/mhw-mulx\libgcc.a(_udivdi3.o)
 .comment       0x0000000000000000       0x24 c:/altera_lite/15.1/nios2eds/bin/gnu/h-x86_64-mingw32/bin/../lib/gcc/nios2-elf/4.9.2/mhw-mulx\libgcc.a(_umoddi3.o)
 .comment       0x0000000000000000       0x24 c:/altera_lite/15.1/nios2eds/bin/gnu/h-x86_64-mingw32/bin/../lib/gcc/nios2-elf/4.9.2/mhw-mulx\libgcc.a(floatunsidf.o)
 .comment       0x0000000000000000       0x24 C:/Users/Eldin/Documents/GitHub/Neon3D/FPGA/Software/Neon3DSoftware_bsp/\libucosii_bsp.a(alt_load.o)
 .comment       0x0000000000000000       0x24 C:/Users/Eldin/Documents/GitHub/Neon3D/FPGA/Software/Neon3DSoftware_bsp/\libucosii_bsp.a(alt_main.o)
 .comment       0x0000000000000000       0x24 C:/Users/Eldin/Documents/GitHub/Neon3D/FPGA/Software/Neon3DSoftware_bsp/\libucosii_bsp.a(alt_sbrk.o)
 .comment       0x0000000000000000       0x24 C:/Users/Eldin/Documents/GitHub/Neon3D/FPGA/Software/Neon3DSoftware_bsp/\libucosii_bsp.a(alt_env_lock.o)
 .comment       0x0000000000000000       0x24 C:/Users/Eldin/Documents/GitHub/Neon3D/FPGA/Software/Neon3DSoftware_bsp/\libucosii_bsp.a(alt_malloc_lock.o)
 .comment       0x0000000000000000       0x24 C:/Users/Eldin/Documents/GitHub/Neon3D/FPGA/Software/Neon3DSoftware_bsp/\libucosii_bsp.a(os_core.o)
 .comment       0x0000000000000000       0x24 C:/Users/Eldin/Documents/GitHub/Neon3D/FPGA/Software/Neon3DSoftware_bsp/\libucosii_bsp.a(os_dbg.o)
 .comment       0x0000000000000000       0x24 C:/Users/Eldin/Documents/GitHub/Neon3D/FPGA/Software/Neon3DSoftware_bsp/\libucosii_bsp.a(os_flag.o)
 .comment       0x0000000000000000       0x24 C:/Users/Eldin/Documents/GitHub/Neon3D/FPGA/Software/Neon3DSoftware_bsp/\libucosii_bsp.a(os_mem.o)
 .comment       0x0000000000000000       0x24 C:/Users/Eldin/Documents/GitHub/Neon3D/FPGA/Software/Neon3DSoftware_bsp/\libucosii_bsp.a(os_q.o)
 .comment       0x0000000000000000       0x24 C:/Users/Eldin/Documents/GitHub/Neon3D/FPGA/Software/Neon3DSoftware_bsp/\libucosii_bsp.a(os_sem.o)
 .comment       0x0000000000000000       0x24 C:/Users/Eldin/Documents/GitHub/Neon3D/FPGA/Software/Neon3DSoftware_bsp/\libucosii_bsp.a(os_task.o)
 .comment       0x0000000000000000       0x24 C:/Users/Eldin/Documents/GitHub/Neon3D/FPGA/Software/Neon3DSoftware_bsp/\libucosii_bsp.a(os_time.o)
 .comment       0x0000000000000000       0x24 C:/Users/Eldin/Documents/GitHub/Neon3D/FPGA/Software/Neon3DSoftware_bsp/\libucosii_bsp.a(alt_sys_init.o)
 .comment       0x0000000000000000       0x24 C:/Users/Eldin/Documents/GitHub/Neon3D/FPGA/Software/Neon3DSoftware_bsp/\libucosii_bsp.a(altera_avalon_jtag_uart_fd.o)
 .comment       0x0000000000000000       0x24 C:/Users/Eldin/Documents/GitHub/Neon3D/FPGA/Software/Neon3DSoftware_bsp/\libucosii_bsp.a(altera_avalon_jtag_uart_init.o)
 .comment       0x0000000000000000       0x24 C:/Users/Eldin/Documents/GitHub/Neon3D/FPGA/Software/Neon3DSoftware_bsp/\libucosii_bsp.a(altera_avalon_jtag_uart_ioctl.o)
 .comment       0x0000000000000000       0x24 C:/Users/Eldin/Documents/GitHub/Neon3D/FPGA/Software/Neon3DSoftware_bsp/\libucosii_bsp.a(altera_avalon_jtag_uart_read.o)
 .comment       0x0000000000000000       0x24 C:/Users/Eldin/Documents/GitHub/Neon3D/FPGA/Software/Neon3DSoftware_bsp/\libucosii_bsp.a(altera_avalon_jtag_uart_write.o)
 .comment       0x0000000000000000       0x24 C:/Users/Eldin/Documents/GitHub/Neon3D/FPGA/Software/Neon3DSoftware_bsp/\libucosii_bsp.a(altera_avalon_timer_sc.o)
 .comment       0x0000000000000000       0x24 C:/Users/Eldin/Documents/GitHub/Neon3D/FPGA/Software/Neon3DSoftware_bsp/\libucosii_bsp.a(altera_up_avalon_character_lcd.o)
 .comment       0x0000000000000000       0x24 C:/Users/Eldin/Documents/GitHub/Neon3D/FPGA/Software/Neon3DSoftware_bsp/\libucosii_bsp.a(altera_up_avalon_irda.o)
 .comment       0x0000000000000000       0x24 C:/Users/Eldin/Documents/GitHub/Neon3D/FPGA/Software/Neon3DSoftware_bsp/\libucosii_bsp.a(altera_up_avalon_ps2.o)
 .comment       0x0000000000000000       0x24 C:/Users/Eldin/Documents/GitHub/Neon3D/FPGA/Software/Neon3DSoftware_bsp/\libucosii_bsp.a(altera_up_avalon_rs232.o)
 .comment       0x0000000000000000       0x24 C:/Users/Eldin/Documents/GitHub/Neon3D/FPGA/Software/Neon3DSoftware_bsp/\libucosii_bsp.a(altera_up_avalon_video_character_buffer_with_dma.o)
 .comment       0x0000000000000000       0x24 C:/Users/Eldin/Documents/GitHub/Neon3D/FPGA/Software/Neon3DSoftware_bsp/\libucosii_bsp.a(alt_alarm_start.o)
 .comment       0x0000000000000000       0x24 C:/Users/Eldin/Documents/GitHub/Neon3D/FPGA/Software/Neon3DSoftware_bsp/\libucosii_bsp.a(alt_close.o)
 .comment       0x0000000000000000       0x24 C:/Users/Eldin/Documents/GitHub/Neon3D/FPGA/Software/Neon3DSoftware_bsp/\libucosii_bsp.a(alt_dcache_flush_all.o)
 .comment       0x0000000000000000       0x24 C:/Users/Eldin/Documents/GitHub/Neon3D/FPGA/Software/Neon3DSoftware_bsp/\libucosii_bsp.a(alt_dev.o)
 .comment       0x0000000000000000       0x24 C:/Users/Eldin/Documents/GitHub/Neon3D/FPGA/Software/Neon3DSoftware_bsp/\libucosii_bsp.a(alt_dev_llist_insert.o)
 .comment       0x0000000000000000       0x24 C:/Users/Eldin/Documents/GitHub/Neon3D/FPGA/Software/Neon3DSoftware_bsp/\libucosii_bsp.a(alt_do_ctors.o)
 .comment       0x0000000000000000       0x24 C:/Users/Eldin/Documents/GitHub/Neon3D/FPGA/Software/Neon3DSoftware_bsp/\libucosii_bsp.a(alt_do_dtors.o)
 .comment       0x0000000000000000       0x24 C:/Users/Eldin/Documents/GitHub/Neon3D/FPGA/Software/Neon3DSoftware_bsp/\libucosii_bsp.a(alt_errno.o)
 .comment       0x0000000000000000       0x24 C:/Users/Eldin/Documents/GitHub/Neon3D/FPGA/Software/Neon3DSoftware_bsp/\libucosii_bsp.a(alt_find_dev.o)
 .comment       0x0000000000000000       0x24 C:/Users/Eldin/Documents/GitHub/Neon3D/FPGA/Software/Neon3DSoftware_bsp/\libucosii_bsp.a(alt_icache_flush_all.o)
 .comment       0x0000000000000000       0x24 C:/Users/Eldin/Documents/GitHub/Neon3D/FPGA/Software/Neon3DSoftware_bsp/\libucosii_bsp.a(alt_io_redirect.o)
 .comment       0x0000000000000000       0x24 C:/Users/Eldin/Documents/GitHub/Neon3D/FPGA/Software/Neon3DSoftware_bsp/\libucosii_bsp.a(alt_irq_register.o)
 .comment       0x0000000000000000       0x24 C:/Users/Eldin/Documents/GitHub/Neon3D/FPGA/Software/Neon3DSoftware_bsp/\libucosii_bsp.a(alt_irq_vars.o)
 .comment       0x0000000000000000       0x24 C:/Users/Eldin/Documents/GitHub/Neon3D/FPGA/Software/Neon3DSoftware_bsp/\libucosii_bsp.a(alt_open.o)
 .comment       0x0000000000000000       0x24 C:/Users/Eldin/Documents/GitHub/Neon3D/FPGA/Software/Neon3DSoftware_bsp/\libucosii_bsp.a(alt_release_fd.o)
 .comment       0x0000000000000000       0x24 C:/Users/Eldin/Documents/GitHub/Neon3D/FPGA/Software/Neon3DSoftware_bsp/\libucosii_bsp.a(alt_tick.o)
 .comment       0x0000000000000000       0x24 C:/Users/Eldin/Documents/GitHub/Neon3D/FPGA/Software/Neon3DSoftware_bsp/\libucosii_bsp.a(altera_nios2_gen2_irq.o)
 .comment       0x0000000000000000       0x24 C:/Users/Eldin/Documents/GitHub/Neon3D/FPGA/Software/Neon3DSoftware_bsp/\libucosii_bsp.a(os_cpu_c.o)
 .comment       0x0000000000000000       0x24 C:/Users/Eldin/Documents/GitHub/Neon3D/FPGA/Software/Neon3DSoftware_bsp/\libucosii_bsp.a(alt_find_file.o)
 .comment       0x0000000000000000       0x24 C:/Users/Eldin/Documents/GitHub/Neon3D/FPGA/Software/Neon3DSoftware_bsp/\libucosii_bsp.a(alt_get_fd.o)
 .comment       0x0000000000000000       0x24 C:/Users/Eldin/Documents/GitHub/Neon3D/FPGA/Software/Neon3DSoftware_bsp/\libucosii_bsp.a(alt_icache_flush.o)
 .comment       0x0000000000000000       0x24 C:/Users/Eldin/Documents/GitHub/Neon3D/FPGA/Software/Neon3DSoftware_bsp/\libucosii_bsp.a(alt_irq_handler.o)
 .comment       0x0000000000000000       0x24 C:/Users/Eldin/Documents/GitHub/Neon3D/FPGA/Software/Neon3DSoftware_bsp/\libucosii_bsp.a(alt_instruction_exception_entry.o)
 .comment       0x0000000000000000       0x24 c:/altera_lite/15.1/nios2eds/bin/gnu/h-x86_64-mingw32/bin/../lib/gcc/nios2-elf/4.9.2/../../../../../H-x86_64-mingw32/nios2-elf/lib/mhw-mulx\libc.a(lib_a-atexit.o)
 .comment       0x0000000000000000       0x24 c:/altera_lite/15.1/nios2eds/bin/gnu/h-x86_64-mingw32/bin/../lib/gcc/nios2-elf/4.9.2/../../../../../H-x86_64-mingw32/nios2-elf/lib/mhw-mulx\libc.a(lib_a-exit.o)
 .comment       0x0000000000000000       0x24 c:/altera_lite/15.1/nios2eds/bin/gnu/h-x86_64-mingw32/bin/../lib/gcc/nios2-elf/4.9.2/../../../../../H-x86_64-mingw32/nios2-elf/lib/mhw-mulx\libc.a(lib_a-memcmp.o)
 .comment       0x0000000000000000       0x24 c:/altera_lite/15.1/nios2eds/bin/gnu/h-x86_64-mingw32/bin/../lib/gcc/nios2-elf/4.9.2/../../../../../H-x86_64-mingw32/nios2-elf/lib/mhw-mulx\libc.a(lib_a-__atexit.o)
 .comment       0x0000000000000000       0x24 c:/altera_lite/15.1/nios2eds/bin/gnu/h-x86_64-mingw32/bin/../lib/gcc/nios2-elf/4.9.2/../../../../../H-x86_64-mingw32/nios2-elf/lib/mhw-mulx\libc.a(lib_a-__call_atexit.o)
 .comment       0x0000000000000000       0x24 C:/Users/Eldin/Documents/GitHub/Neon3D/FPGA/Software/Neon3DSoftware_bsp/\libucosii_bsp.a(alt_exit.o)

.debug
 *(.debug)

.line
 *(.line)

.debug_srcinfo
 *(.debug_srcinfo)

.debug_sfnames
 *(.debug_sfnames)

.debug_aranges  0x0000000000000000      0xe38
 *(.debug_aranges)
 .debug_aranges
                0x0000000000000000       0x28 C:/Users/Eldin/Documents/GitHub/Neon3D/FPGA/Software/Neon3DSoftware_bsp//obj/HAL/src/crt0.o
 .debug_aranges
                0x0000000000000028       0x20 obj/default/hello_ucosii.o
 .debug_aranges
                0x0000000000000048       0x20 c:/altera_lite/15.1/nios2eds/bin/gnu/h-x86_64-mingw32/bin/../lib/gcc/nios2-elf/4.9.2/../../../../../H-x86_64-mingw32/nios2-elf/lib/mhw-mulx\libm.a(lib_a-s_cos.o)
 .debug_aranges
                0x0000000000000068       0x20 c:/altera_lite/15.1/nios2eds/bin/gnu/h-x86_64-mingw32/bin/../lib/gcc/nios2-elf/4.9.2/../../../../../H-x86_64-mingw32/nios2-elf/lib/mhw-mulx\libm.a(lib_a-s_sin.o)
 .debug_aranges
                0x0000000000000088       0x20 c:/altera_lite/15.1/nios2eds/bin/gnu/h-x86_64-mingw32/bin/../lib/gcc/nios2-elf/4.9.2/../../../../../H-x86_64-mingw32/nios2-elf/lib/mhw-mulx\libm.a(lib_a-e_rem_pio2.o)
 .debug_aranges
                0x00000000000000a8       0x20 c:/altera_lite/15.1/nios2eds/bin/gnu/h-x86_64-mingw32/bin/../lib/gcc/nios2-elf/4.9.2/../../../../../H-x86_64-mingw32/nios2-elf/lib/mhw-mulx\libm.a(lib_a-k_cos.o)
 .debug_aranges
                0x00000000000000c8       0x20 c:/altera_lite/15.1/nios2eds/bin/gnu/h-x86_64-mingw32/bin/../lib/gcc/nios2-elf/4.9.2/../../../../../H-x86_64-mingw32/nios2-elf/lib/mhw-mulx\libm.a(lib_a-k_rem_pio2.o)
 .debug_aranges
                0x00000000000000e8       0x20 c:/altera_lite/15.1/nios2eds/bin/gnu/h-x86_64-mingw32/bin/../lib/gcc/nios2-elf/4.9.2/../../../../../H-x86_64-mingw32/nios2-elf/lib/mhw-mulx\libm.a(lib_a-k_sin.o)
 .debug_aranges
                0x0000000000000108       0x20 c:/altera_lite/15.1/nios2eds/bin/gnu/h-x86_64-mingw32/bin/../lib/gcc/nios2-elf/4.9.2/../../../../../H-x86_64-mingw32/nios2-elf/lib/mhw-mulx\libm.a(lib_a-s_fabs.o)
 .debug_aranges
                0x0000000000000128       0x20 c:/altera_lite/15.1/nios2eds/bin/gnu/h-x86_64-mingw32/bin/../lib/gcc/nios2-elf/4.9.2/../../../../../H-x86_64-mingw32/nios2-elf/lib/mhw-mulx\libm.a(lib_a-s_floor.o)
 .debug_aranges
                0x0000000000000148       0x20 c:/altera_lite/15.1/nios2eds/bin/gnu/h-x86_64-mingw32/bin/../lib/gcc/nios2-elf/4.9.2/../../../../../H-x86_64-mingw32/nios2-elf/lib/mhw-mulx\libm.a(lib_a-s_scalbn.o)
 .debug_aranges
                0x0000000000000168       0x20 c:/altera_lite/15.1/nios2eds/bin/gnu/h-x86_64-mingw32/bin/../lib/gcc/nios2-elf/4.9.2/../../../../../H-x86_64-mingw32/nios2-elf/lib/mhw-mulx\libm.a(lib_a-s_copysign.o)
 .debug_aranges
                0x0000000000000188       0x20 c:/altera_lite/15.1/nios2eds/bin/gnu/h-x86_64-mingw32/bin/../lib/gcc/nios2-elf/4.9.2/mhw-mulx\libgcc.a(lib2-divmod.o)
 .debug_aranges
                0x00000000000001a8       0x20 c:/altera_lite/15.1/nios2eds/bin/gnu/h-x86_64-mingw32/bin/../lib/gcc/nios2-elf/4.9.2/mhw-mulx\libgcc.a(floatsisf.o)
 .debug_aranges
                0x00000000000001c8       0x20 c:/altera_lite/15.1/nios2eds/bin/gnu/h-x86_64-mingw32/bin/../lib/gcc/nios2-elf/4.9.2/mhw-mulx\libgcc.a(adddf3.o)
 .debug_aranges
                0x00000000000001e8       0x20 c:/altera_lite/15.1/nios2eds/bin/gnu/h-x86_64-mingw32/bin/../lib/gcc/nios2-elf/4.9.2/mhw-mulx\libgcc.a(divdf3.o)
 .debug_aranges
                0x0000000000000208       0x20 c:/altera_lite/15.1/nios2eds/bin/gnu/h-x86_64-mingw32/bin/../lib/gcc/nios2-elf/4.9.2/mhw-mulx\libgcc.a(eqdf2.o)
 .debug_aranges
                0x0000000000000228       0x20 c:/altera_lite/15.1/nios2eds/bin/gnu/h-x86_64-mingw32/bin/../lib/gcc/nios2-elf/4.9.2/mhw-mulx\libgcc.a(gedf2.o)
 .debug_aranges
                0x0000000000000248       0x20 c:/altera_lite/15.1/nios2eds/bin/gnu/h-x86_64-mingw32/bin/../lib/gcc/nios2-elf/4.9.2/mhw-mulx\libgcc.a(ledf2.o)
 .debug_aranges
                0x0000000000000268       0x20 c:/altera_lite/15.1/nios2eds/bin/gnu/h-x86_64-mingw32/bin/../lib/gcc/nios2-elf/4.9.2/mhw-mulx\libgcc.a(muldf3.o)
 .debug_aranges
                0x0000000000000288       0x20 c:/altera_lite/15.1/nios2eds/bin/gnu/h-x86_64-mingw32/bin/../lib/gcc/nios2-elf/4.9.2/mhw-mulx\libgcc.a(subdf3.o)
 .debug_aranges
                0x00000000000002a8       0x20 c:/altera_lite/15.1/nios2eds/bin/gnu/h-x86_64-mingw32/bin/../lib/gcc/nios2-elf/4.9.2/mhw-mulx\libgcc.a(fixdfsi.o)
 .debug_aranges
                0x00000000000002c8       0x20 c:/altera_lite/15.1/nios2eds/bin/gnu/h-x86_64-mingw32/bin/../lib/gcc/nios2-elf/4.9.2/mhw-mulx\libgcc.a(floatsidf.o)
 .debug_aranges
                0x00000000000002e8       0x20 c:/altera_lite/15.1/nios2eds/bin/gnu/h-x86_64-mingw32/bin/../lib/gcc/nios2-elf/4.9.2/mhw-mulx\libgcc.a(extendsfdf2.o)
 .debug_aranges
                0x0000000000000308       0x20 c:/altera_lite/15.1/nios2eds/bin/gnu/h-x86_64-mingw32/bin/../lib/gcc/nios2-elf/4.9.2/mhw-mulx\libgcc.a(_clzsi2.o)
 .debug_aranges
                0x0000000000000328       0x18 c:/altera_lite/15.1/nios2eds/bin/gnu/h-x86_64-mingw32/bin/../lib/gcc/nios2-elf/4.9.2/mhw-mulx\libgcc.a(_clz.o)
 .debug_aranges
                0x0000000000000340       0x20 c:/altera_lite/15.1/nios2eds/bin/gnu/h-x86_64-mingw32/bin/../lib/gcc/nios2-elf/4.9.2/../../../../../H-x86_64-mingw32/nios2-elf/lib/mhw-mulx\libc.a(lib_a-memcpy.o)
 .debug_aranges
                0x0000000000000360       0x28 c:/altera_lite/15.1/nios2eds/bin/gnu/h-x86_64-mingw32/bin/../lib/gcc/nios2-elf/4.9.2/../../../../../H-x86_64-mingw32/nios2-elf/lib/mhw-mulx\libc.a(lib_a-sprintf.o)
 .debug_aranges
                0x0000000000000388       0x20 c:/altera_lite/15.1/nios2eds/bin/gnu/h-x86_64-mingw32/bin/../lib/gcc/nios2-elf/4.9.2/../../../../../H-x86_64-mingw32/nios2-elf/lib/mhw-mulx\libc.a(lib_a-svfprintf.o)
 .debug_aranges
                0x00000000000003a8       0x28 c:/altera_lite/15.1/nios2eds/bin/gnu/h-x86_64-mingw32/bin/../lib/gcc/nios2-elf/4.9.2/../../../../../H-x86_64-mingw32/nios2-elf/lib/mhw-mulx\libc.a(lib_a-dtoa.o)
 .debug_aranges
                0x00000000000003d0       0x18 c:/altera_lite/15.1/nios2eds/bin/gnu/h-x86_64-mingw32/bin/../lib/gcc/nios2-elf/4.9.2/../../../../../H-x86_64-mingw32/nios2-elf/lib/mhw-mulx\libc.a(lib_a-impure.o)
 .debug_aranges
                0x00000000000003e8       0x58 c:/altera_lite/15.1/nios2eds/bin/gnu/h-x86_64-mingw32/bin/../lib/gcc/nios2-elf/4.9.2/../../../../../H-x86_64-mingw32/nios2-elf/lib/mhw-mulx\libc.a(lib_a-locale.o)
 .debug_aranges
                0x0000000000000440       0x20 c:/altera_lite/15.1/nios2eds/bin/gnu/h-x86_64-mingw32/bin/../lib/gcc/nios2-elf/4.9.2/../../../../../H-x86_64-mingw32/nios2-elf/lib/mhw-mulx\libc.a(lib_a-mallocr.o)
 .debug_aranges
                0x0000000000000460       0x20 c:/altera_lite/15.1/nios2eds/bin/gnu/h-x86_64-mingw32/bin/../lib/gcc/nios2-elf/4.9.2/../../../../../H-x86_64-mingw32/nios2-elf/lib/mhw-mulx\libc.a(lib_a-memchr.o)
 .debug_aranges
                0x0000000000000480       0xb0 c:/altera_lite/15.1/nios2eds/bin/gnu/h-x86_64-mingw32/bin/../lib/gcc/nios2-elf/4.9.2/../../../../../H-x86_64-mingw32/nios2-elf/lib/mhw-mulx\libc.a(lib_a-mprec.o)
 .debug_aranges
                0x0000000000000530       0x20 c:/altera_lite/15.1/nios2eds/bin/gnu/h-x86_64-mingw32/bin/../lib/gcc/nios2-elf/4.9.2/../../../../../H-x86_64-mingw32/nios2-elf/lib/mhw-mulx\libc.a(lib_a-s_fpclassify.o)
 .debug_aranges
                0x0000000000000550       0x20 c:/altera_lite/15.1/nios2eds/bin/gnu/h-x86_64-mingw32/bin/../lib/gcc/nios2-elf/4.9.2/../../../../../H-x86_64-mingw32/nios2-elf/lib/mhw-mulx\libc.a(lib_a-sbrkr.o)
 .debug_aranges
                0x0000000000000570       0x20 c:/altera_lite/15.1/nios2eds/bin/gnu/h-x86_64-mingw32/bin/../lib/gcc/nios2-elf/4.9.2/../../../../../H-x86_64-mingw32/nios2-elf/lib/mhw-mulx\libc.a(lib_a-strcmp.o)
 .debug_aranges
                0x0000000000000590       0x20 c:/altera_lite/15.1/nios2eds/bin/gnu/h-x86_64-mingw32/bin/../lib/gcc/nios2-elf/4.9.2/../../../../../H-x86_64-mingw32/nios2-elf/lib/mhw-mulx\libc.a(lib_a-strlen.o)
 .debug_aranges
                0x00000000000005b0       0x28 c:/altera_lite/15.1/nios2eds/bin/gnu/h-x86_64-mingw32/bin/../lib/gcc/nios2-elf/4.9.2/../../../../../H-x86_64-mingw32/nios2-elf/lib/mhw-mulx\libc.a(lib_a-svfiprintf.o)
 .debug_aranges
                0x00000000000005d8       0x20 c:/altera_lite/15.1/nios2eds/bin/gnu/h-x86_64-mingw32/bin/../lib/gcc/nios2-elf/4.9.2/../../../../../H-x86_64-mingw32/nios2-elf/lib/mhw-mulx\libc.a(lib_a-callocr.o)
 .debug_aranges
                0x00000000000005f8       0x28 c:/altera_lite/15.1/nios2eds/bin/gnu/h-x86_64-mingw32/bin/../lib/gcc/nios2-elf/4.9.2/../../../../../H-x86_64-mingw32/nios2-elf/lib/mhw-mulx\libc.a(lib_a-freer.o)
 .debug_aranges
                0x0000000000000620       0x18 c:/altera_lite/15.1/nios2eds/bin/gnu/h-x86_64-mingw32/bin/../lib/gcc/nios2-elf/4.9.2/../../../../../H-x86_64-mingw32/nios2-elf/lib/mhw-mulx\libc.a(lib_a-int_errno.o)
 .debug_aranges
                0x0000000000000638       0x20 c:/altera_lite/15.1/nios2eds/bin/gnu/h-x86_64-mingw32/bin/../lib/gcc/nios2-elf/4.9.2/../../../../../H-x86_64-mingw32/nios2-elf/lib/mhw-mulx\libc.a(lib_a-memmove.o)
 .debug_aranges
                0x0000000000000658       0x20 c:/altera_lite/15.1/nios2eds/bin/gnu/h-x86_64-mingw32/bin/../lib/gcc/nios2-elf/4.9.2/../../../../../H-x86_64-mingw32/nios2-elf/lib/mhw-mulx\libc.a(lib_a-memset.o)
 .debug_aranges
                0x0000000000000678       0x20 c:/altera_lite/15.1/nios2eds/bin/gnu/h-x86_64-mingw32/bin/../lib/gcc/nios2-elf/4.9.2/../../../../../H-x86_64-mingw32/nios2-elf/lib/mhw-mulx\libc.a(lib_a-reallocr.o)
 .debug_aranges
                0x0000000000000698       0x20 c:/altera_lite/15.1/nios2eds/bin/gnu/h-x86_64-mingw32/bin/../lib/gcc/nios2-elf/4.9.2/mhw-mulx\libgcc.a(_udivdi3.o)
 .debug_aranges
                0x00000000000006b8       0x20 c:/altera_lite/15.1/nios2eds/bin/gnu/h-x86_64-mingw32/bin/../lib/gcc/nios2-elf/4.9.2/mhw-mulx\libgcc.a(_umoddi3.o)
 .debug_aranges
                0x00000000000006d8       0x20 c:/altera_lite/15.1/nios2eds/bin/gnu/h-x86_64-mingw32/bin/../lib/gcc/nios2-elf/4.9.2/mhw-mulx\libgcc.a(floatunsidf.o)
 .debug_aranges
                0x00000000000006f8       0x20 C:/Users/Eldin/Documents/GitHub/Neon3D/FPGA/Software/Neon3DSoftware_bsp/\libucosii_bsp.a(alt_load.o)
 .debug_aranges
                0x0000000000000718       0x20 C:/Users/Eldin/Documents/GitHub/Neon3D/FPGA/Software/Neon3DSoftware_bsp/\libucosii_bsp.a(alt_main.o)
 .debug_aranges
                0x0000000000000738       0x20 C:/Users/Eldin/Documents/GitHub/Neon3D/FPGA/Software/Neon3DSoftware_bsp/\libucosii_bsp.a(alt_sbrk.o)
 .debug_aranges
                0x0000000000000758       0x20 C:/Users/Eldin/Documents/GitHub/Neon3D/FPGA/Software/Neon3DSoftware_bsp/\libucosii_bsp.a(alt_env_lock.o)
 .debug_aranges
                0x0000000000000778       0x20 C:/Users/Eldin/Documents/GitHub/Neon3D/FPGA/Software/Neon3DSoftware_bsp/\libucosii_bsp.a(alt_malloc_lock.o)
 .debug_aranges
                0x0000000000000798       0x20 C:/Users/Eldin/Documents/GitHub/Neon3D/FPGA/Software/Neon3DSoftware_bsp/\libucosii_bsp.a(os_core.o)
 .debug_aranges
                0x00000000000007b8       0x20 C:/Users/Eldin/Documents/GitHub/Neon3D/FPGA/Software/Neon3DSoftware_bsp/\libucosii_bsp.a(os_dbg.o)
 .debug_aranges
                0x00000000000007d8       0x20 C:/Users/Eldin/Documents/GitHub/Neon3D/FPGA/Software/Neon3DSoftware_bsp/\libucosii_bsp.a(os_flag.o)
 .debug_aranges
                0x00000000000007f8       0x20 C:/Users/Eldin/Documents/GitHub/Neon3D/FPGA/Software/Neon3DSoftware_bsp/\libucosii_bsp.a(os_mem.o)
 .debug_aranges
                0x0000000000000818       0x20 C:/Users/Eldin/Documents/GitHub/Neon3D/FPGA/Software/Neon3DSoftware_bsp/\libucosii_bsp.a(os_q.o)
 .debug_aranges
                0x0000000000000838       0x20 C:/Users/Eldin/Documents/GitHub/Neon3D/FPGA/Software/Neon3DSoftware_bsp/\libucosii_bsp.a(os_sem.o)
 .debug_aranges
                0x0000000000000858       0x20 C:/Users/Eldin/Documents/GitHub/Neon3D/FPGA/Software/Neon3DSoftware_bsp/\libucosii_bsp.a(os_task.o)
 .debug_aranges
                0x0000000000000878       0x20 C:/Users/Eldin/Documents/GitHub/Neon3D/FPGA/Software/Neon3DSoftware_bsp/\libucosii_bsp.a(os_time.o)
 .debug_aranges
                0x0000000000000898       0x20 C:/Users/Eldin/Documents/GitHub/Neon3D/FPGA/Software/Neon3DSoftware_bsp/\libucosii_bsp.a(alt_sys_init.o)
 .debug_aranges
                0x00000000000008b8       0x20 C:/Users/Eldin/Documents/GitHub/Neon3D/FPGA/Software/Neon3DSoftware_bsp/\libucosii_bsp.a(altera_avalon_jtag_uart_fd.o)
 .debug_aranges
                0x00000000000008d8       0x20 C:/Users/Eldin/Documents/GitHub/Neon3D/FPGA/Software/Neon3DSoftware_bsp/\libucosii_bsp.a(altera_avalon_jtag_uart_init.o)
 .debug_aranges
                0x00000000000008f8       0x20 C:/Users/Eldin/Documents/GitHub/Neon3D/FPGA/Software/Neon3DSoftware_bsp/\libucosii_bsp.a(altera_avalon_jtag_uart_ioctl.o)
 .debug_aranges
                0x0000000000000918       0x20 C:/Users/Eldin/Documents/GitHub/Neon3D/FPGA/Software/Neon3DSoftware_bsp/\libucosii_bsp.a(altera_avalon_jtag_uart_read.o)
 .debug_aranges
                0x0000000000000938       0x20 C:/Users/Eldin/Documents/GitHub/Neon3D/FPGA/Software/Neon3DSoftware_bsp/\libucosii_bsp.a(altera_avalon_jtag_uart_write.o)
 .debug_aranges
                0x0000000000000958       0x20 C:/Users/Eldin/Documents/GitHub/Neon3D/FPGA/Software/Neon3DSoftware_bsp/\libucosii_bsp.a(altera_avalon_timer_sc.o)
 .debug_aranges
                0x0000000000000978       0x20 C:/Users/Eldin/Documents/GitHub/Neon3D/FPGA/Software/Neon3DSoftware_bsp/\libucosii_bsp.a(altera_up_avalon_character_lcd.o)
 .debug_aranges
                0x0000000000000998       0x20 C:/Users/Eldin/Documents/GitHub/Neon3D/FPGA/Software/Neon3DSoftware_bsp/\libucosii_bsp.a(altera_up_avalon_irda.o)
 .debug_aranges
                0x00000000000009b8       0x20 C:/Users/Eldin/Documents/GitHub/Neon3D/FPGA/Software/Neon3DSoftware_bsp/\libucosii_bsp.a(altera_up_avalon_ps2.o)
 .debug_aranges
                0x00000000000009d8       0x20 C:/Users/Eldin/Documents/GitHub/Neon3D/FPGA/Software/Neon3DSoftware_bsp/\libucosii_bsp.a(altera_up_avalon_rs232.o)
 .debug_aranges
                0x00000000000009f8       0x20 C:/Users/Eldin/Documents/GitHub/Neon3D/FPGA/Software/Neon3DSoftware_bsp/\libucosii_bsp.a(altera_up_avalon_video_character_buffer_with_dma.o)
 .debug_aranges
                0x0000000000000a18       0x20 C:/Users/Eldin/Documents/GitHub/Neon3D/FPGA/Software/Neon3DSoftware_bsp/\libucosii_bsp.a(alt_alarm_start.o)
 .debug_aranges
                0x0000000000000a38       0x20 C:/Users/Eldin/Documents/GitHub/Neon3D/FPGA/Software/Neon3DSoftware_bsp/\libucosii_bsp.a(alt_close.o)
 .debug_aranges
                0x0000000000000a58       0x20 C:/Users/Eldin/Documents/GitHub/Neon3D/FPGA/Software/Neon3DSoftware_bsp/\libucosii_bsp.a(alt_dcache_flush_all.o)
 .debug_aranges
                0x0000000000000a78       0x20 C:/Users/Eldin/Documents/GitHub/Neon3D/FPGA/Software/Neon3DSoftware_bsp/\libucosii_bsp.a(alt_dev.o)
 .debug_aranges
                0x0000000000000a98       0x20 C:/Users/Eldin/Documents/GitHub/Neon3D/FPGA/Software/Neon3DSoftware_bsp/\libucosii_bsp.a(alt_dev_llist_insert.o)
 .debug_aranges
                0x0000000000000ab8       0x20 C:/Users/Eldin/Documents/GitHub/Neon3D/FPGA/Software/Neon3DSoftware_bsp/\libucosii_bsp.a(alt_do_ctors.o)
 .debug_aranges
                0x0000000000000ad8       0x20 C:/Users/Eldin/Documents/GitHub/Neon3D/FPGA/Software/Neon3DSoftware_bsp/\libucosii_bsp.a(alt_do_dtors.o)
 .debug_aranges
                0x0000000000000af8       0x18 C:/Users/Eldin/Documents/GitHub/Neon3D/FPGA/Software/Neon3DSoftware_bsp/\libucosii_bsp.a(alt_errno.o)
 .debug_aranges
                0x0000000000000b10       0x20 C:/Users/Eldin/Documents/GitHub/Neon3D/FPGA/Software/Neon3DSoftware_bsp/\libucosii_bsp.a(alt_find_dev.o)
 .debug_aranges
                0x0000000000000b30       0x20 C:/Users/Eldin/Documents/GitHub/Neon3D/FPGA/Software/Neon3DSoftware_bsp/\libucosii_bsp.a(alt_icache_flush_all.o)
 .debug_aranges
                0x0000000000000b50       0x20 C:/Users/Eldin/Documents/GitHub/Neon3D/FPGA/Software/Neon3DSoftware_bsp/\libucosii_bsp.a(alt_io_redirect.o)
 .debug_aranges
                0x0000000000000b70       0x20 C:/Users/Eldin/Documents/GitHub/Neon3D/FPGA/Software/Neon3DSoftware_bsp/\libucosii_bsp.a(alt_irq_register.o)
 .debug_aranges
                0x0000000000000b90       0x18 C:/Users/Eldin/Documents/GitHub/Neon3D/FPGA/Software/Neon3DSoftware_bsp/\libucosii_bsp.a(alt_irq_vars.o)
 .debug_aranges
                0x0000000000000ba8       0x20 C:/Users/Eldin/Documents/GitHub/Neon3D/FPGA/Software/Neon3DSoftware_bsp/\libucosii_bsp.a(alt_open.o)
 .debug_aranges
                0x0000000000000bc8       0x20 C:/Users/Eldin/Documents/GitHub/Neon3D/FPGA/Software/Neon3DSoftware_bsp/\libucosii_bsp.a(alt_release_fd.o)
 .debug_aranges
                0x0000000000000be8       0x20 C:/Users/Eldin/Documents/GitHub/Neon3D/FPGA/Software/Neon3DSoftware_bsp/\libucosii_bsp.a(alt_tick.o)
 .debug_aranges
                0x0000000000000c08       0x20 C:/Users/Eldin/Documents/GitHub/Neon3D/FPGA/Software/Neon3DSoftware_bsp/\libucosii_bsp.a(altera_nios2_gen2_irq.o)
 .debug_aranges
                0x0000000000000c28       0x20 C:/Users/Eldin/Documents/GitHub/Neon3D/FPGA/Software/Neon3DSoftware_bsp/\libucosii_bsp.a(os_cpu_a.o)
 .debug_aranges
                0x0000000000000c48       0x20 C:/Users/Eldin/Documents/GitHub/Neon3D/FPGA/Software/Neon3DSoftware_bsp/\libucosii_bsp.a(os_cpu_c.o)
 .debug_aranges
                0x0000000000000c68       0x20 C:/Users/Eldin/Documents/GitHub/Neon3D/FPGA/Software/Neon3DSoftware_bsp/\libucosii_bsp.a(alt_find_file.o)
 .debug_aranges
                0x0000000000000c88       0x20 C:/Users/Eldin/Documents/GitHub/Neon3D/FPGA/Software/Neon3DSoftware_bsp/\libucosii_bsp.a(alt_get_fd.o)
 .debug_aranges
                0x0000000000000ca8       0x20 C:/Users/Eldin/Documents/GitHub/Neon3D/FPGA/Software/Neon3DSoftware_bsp/\libucosii_bsp.a(alt_icache_flush.o)
 .debug_aranges
                0x0000000000000cc8       0x30 C:/Users/Eldin/Documents/GitHub/Neon3D/FPGA/Software/Neon3DSoftware_bsp/\libucosii_bsp.a(alt_irq_entry.o)
 .debug_aranges
                0x0000000000000cf8       0x20 C:/Users/Eldin/Documents/GitHub/Neon3D/FPGA/Software/Neon3DSoftware_bsp/\libucosii_bsp.a(alt_irq_handler.o)
 .debug_aranges
                0x0000000000000d18       0x38 C:/Users/Eldin/Documents/GitHub/Neon3D/FPGA/Software/Neon3DSoftware_bsp/\libucosii_bsp.a(alt_exception_entry.o)
 .debug_aranges
                0x0000000000000d50       0x28 C:/Users/Eldin/Documents/GitHub/Neon3D/FPGA/Software/Neon3DSoftware_bsp/\libucosii_bsp.a(alt_instruction_exception_entry.o)
 .debug_aranges
                0x0000000000000d78       0x20 c:/altera_lite/15.1/nios2eds/bin/gnu/h-x86_64-mingw32/bin/../lib/gcc/nios2-elf/4.9.2/../../../../../H-x86_64-mingw32/nios2-elf/lib/mhw-mulx\libc.a(lib_a-atexit.o)
 .debug_aranges
                0x0000000000000d98       0x20 c:/altera_lite/15.1/nios2eds/bin/gnu/h-x86_64-mingw32/bin/../lib/gcc/nios2-elf/4.9.2/../../../../../H-x86_64-mingw32/nios2-elf/lib/mhw-mulx\libc.a(lib_a-exit.o)
 .debug_aranges
                0x0000000000000db8       0x20 c:/altera_lite/15.1/nios2eds/bin/gnu/h-x86_64-mingw32/bin/../lib/gcc/nios2-elf/4.9.2/../../../../../H-x86_64-mingw32/nios2-elf/lib/mhw-mulx\libc.a(lib_a-memcmp.o)
 .debug_aranges
                0x0000000000000dd8       0x20 c:/altera_lite/15.1/nios2eds/bin/gnu/h-x86_64-mingw32/bin/../lib/gcc/nios2-elf/4.9.2/../../../../../H-x86_64-mingw32/nios2-elf/lib/mhw-mulx\libc.a(lib_a-__atexit.o)
 .debug_aranges
                0x0000000000000df8       0x20 c:/altera_lite/15.1/nios2eds/bin/gnu/h-x86_64-mingw32/bin/../lib/gcc/nios2-elf/4.9.2/../../../../../H-x86_64-mingw32/nios2-elf/lib/mhw-mulx\libc.a(lib_a-__call_atexit.o)
 .debug_aranges
                0x0000000000000e18       0x20 C:/Users/Eldin/Documents/GitHub/Neon3D/FPGA/Software/Neon3DSoftware_bsp/\libucosii_bsp.a(alt_exit.o)

.debug_pubnames
 *(.debug_pubnames)

.debug_info     0x0000000000000000    0x232a1
 *(.debug_info .gnu.linkonce.wi.*)
 .debug_info    0x0000000000000000       0x7c C:/Users/Eldin/Documents/GitHub/Neon3D/FPGA/Software/Neon3DSoftware_bsp//obj/HAL/src/crt0.o
 .debug_info    0x000000000000007c      0x9d8 obj/default/hello_ucosii.o
 .debug_info    0x0000000000000a54      0x1ab c:/altera_lite/15.1/nios2eds/bin/gnu/h-x86_64-mingw32/bin/../lib/gcc/nios2-elf/4.9.2/../../../../../H-x86_64-mingw32/nios2-elf/lib/mhw-mulx\libm.a(lib_a-s_cos.o)
 .debug_info    0x0000000000000bff      0x1bd c:/altera_lite/15.1/nios2eds/bin/gnu/h-x86_64-mingw32/bin/../lib/gcc/nios2-elf/4.9.2/../../../../../H-x86_64-mingw32/nios2-elf/lib/mhw-mulx\libm.a(lib_a-s_sin.o)
 .debug_info    0x0000000000000dbc      0x3ce c:/altera_lite/15.1/nios2eds/bin/gnu/h-x86_64-mingw32/bin/../lib/gcc/nios2-elf/4.9.2/../../../../../H-x86_64-mingw32/nios2-elf/lib/mhw-mulx\libm.a(lib_a-e_rem_pio2.o)
 .debug_info    0x000000000000118a      0x214 c:/altera_lite/15.1/nios2eds/bin/gnu/h-x86_64-mingw32/bin/../lib/gcc/nios2-elf/4.9.2/../../../../../H-x86_64-mingw32/nios2-elf/lib/mhw-mulx\libm.a(lib_a-k_cos.o)
 .debug_info    0x000000000000139e      0x36e c:/altera_lite/15.1/nios2eds/bin/gnu/h-x86_64-mingw32/bin/../lib/gcc/nios2-elf/4.9.2/../../../../../H-x86_64-mingw32/nios2-elf/lib/mhw-mulx\libm.a(lib_a-k_rem_pio2.o)
 .debug_info    0x000000000000170c      0x19c c:/altera_lite/15.1/nios2eds/bin/gnu/h-x86_64-mingw32/bin/../lib/gcc/nios2-elf/4.9.2/../../../../../H-x86_64-mingw32/nios2-elf/lib/mhw-mulx\libm.a(lib_a-k_sin.o)
 .debug_info    0x00000000000018a8       0xca c:/altera_lite/15.1/nios2eds/bin/gnu/h-x86_64-mingw32/bin/../lib/gcc/nios2-elf/4.9.2/../../../../../H-x86_64-mingw32/nios2-elf/lib/mhw-mulx\libm.a(lib_a-s_fabs.o)
 .debug_info    0x0000000000001972      0x190 c:/altera_lite/15.1/nios2eds/bin/gnu/h-x86_64-mingw32/bin/../lib/gcc/nios2-elf/4.9.2/../../../../../H-x86_64-mingw32/nios2-elf/lib/mhw-mulx\libm.a(lib_a-s_floor.o)
 .debug_info    0x0000000000001b02      0x21e c:/altera_lite/15.1/nios2eds/bin/gnu/h-x86_64-mingw32/bin/../lib/gcc/nios2-elf/4.9.2/../../../../../H-x86_64-mingw32/nios2-elf/lib/mhw-mulx\libm.a(lib_a-s_scalbn.o)
 .debug_info    0x0000000000001d20      0x14f c:/altera_lite/15.1/nios2eds/bin/gnu/h-x86_64-mingw32/bin/../lib/gcc/nios2-elf/4.9.2/../../../../../H-x86_64-mingw32/nios2-elf/lib/mhw-mulx\libm.a(lib_a-s_copysign.o)
 .debug_info    0x0000000000001e6f      0x234 c:/altera_lite/15.1/nios2eds/bin/gnu/h-x86_64-mingw32/bin/../lib/gcc/nios2-elf/4.9.2/mhw-mulx\libgcc.a(lib2-divmod.o)
 .debug_info    0x00000000000020a3      0x1c5 c:/altera_lite/15.1/nios2eds/bin/gnu/h-x86_64-mingw32/bin/../lib/gcc/nios2-elf/4.9.2/mhw-mulx\libgcc.a(floatsisf.o)
 .debug_info    0x0000000000002268      0x485 c:/altera_lite/15.1/nios2eds/bin/gnu/h-x86_64-mingw32/bin/../lib/gcc/nios2-elf/4.9.2/mhw-mulx\libgcc.a(adddf3.o)
 .debug_info    0x00000000000026ed      0x5c6 c:/altera_lite/15.1/nios2eds/bin/gnu/h-x86_64-mingw32/bin/../lib/gcc/nios2-elf/4.9.2/mhw-mulx\libgcc.a(divdf3.o)
 .debug_info    0x0000000000002cb3      0x1e2 c:/altera_lite/15.1/nios2eds/bin/gnu/h-x86_64-mingw32/bin/../lib/gcc/nios2-elf/4.9.2/mhw-mulx\libgcc.a(eqdf2.o)
 .debug_info    0x0000000000002e95      0x202 c:/altera_lite/15.1/nios2eds/bin/gnu/h-x86_64-mingw32/bin/../lib/gcc/nios2-elf/4.9.2/mhw-mulx\libgcc.a(gedf2.o)
 .debug_info    0x0000000000003097      0x202 c:/altera_lite/15.1/nios2eds/bin/gnu/h-x86_64-mingw32/bin/../lib/gcc/nios2-elf/4.9.2/mhw-mulx\libgcc.a(ledf2.o)
 .debug_info    0x0000000000003299      0x5f2 c:/altera_lite/15.1/nios2eds/bin/gnu/h-x86_64-mingw32/bin/../lib/gcc/nios2-elf/4.9.2/mhw-mulx\libgcc.a(muldf3.o)
 .debug_info    0x000000000000388b      0x4a2 c:/altera_lite/15.1/nios2eds/bin/gnu/h-x86_64-mingw32/bin/../lib/gcc/nios2-elf/4.9.2/mhw-mulx\libgcc.a(subdf3.o)
 .debug_info    0x0000000000003d2d      0x1a6 c:/altera_lite/15.1/nios2eds/bin/gnu/h-x86_64-mingw32/bin/../lib/gcc/nios2-elf/4.9.2/mhw-mulx\libgcc.a(fixdfsi.o)
 .debug_info    0x0000000000003ed3      0x1b6 c:/altera_lite/15.1/nios2eds/bin/gnu/h-x86_64-mingw32/bin/../lib/gcc/nios2-elf/4.9.2/mhw-mulx\libgcc.a(floatsidf.o)
 .debug_info    0x0000000000004089      0x248 c:/altera_lite/15.1/nios2eds/bin/gnu/h-x86_64-mingw32/bin/../lib/gcc/nios2-elf/4.9.2/mhw-mulx\libgcc.a(extendsfdf2.o)
 .debug_info    0x00000000000042d1      0x119 c:/altera_lite/15.1/nios2eds/bin/gnu/h-x86_64-mingw32/bin/../lib/gcc/nios2-elf/4.9.2/mhw-mulx\libgcc.a(_clzsi2.o)
 .debug_info    0x00000000000043ea       0xab c:/altera_lite/15.1/nios2eds/bin/gnu/h-x86_64-mingw32/bin/../lib/gcc/nios2-elf/4.9.2/mhw-mulx\libgcc.a(_clz.o)
 .debug_info    0x0000000000004495      0x133 c:/altera_lite/15.1/nios2eds/bin/gnu/h-x86_64-mingw32/bin/../lib/gcc/nios2-elf/4.9.2/../../../../../H-x86_64-mingw32/nios2-elf/lib/mhw-mulx\libc.a(lib_a-memcpy.o)
 .debug_info    0x00000000000045c8      0x9f1 c:/altera_lite/15.1/nios2eds/bin/gnu/h-x86_64-mingw32/bin/../lib/gcc/nios2-elf/4.9.2/../../../../../H-x86_64-mingw32/nios2-elf/lib/mhw-mulx\libc.a(lib_a-sprintf.o)
 .debug_info    0x0000000000004fb9     0x1623 c:/altera_lite/15.1/nios2eds/bin/gnu/h-x86_64-mingw32/bin/../lib/gcc/nios2-elf/4.9.2/../../../../../H-x86_64-mingw32/nios2-elf/lib/mhw-mulx\libc.a(lib_a-svfprintf.o)
 .debug_info    0x00000000000065dc     0x1354 c:/altera_lite/15.1/nios2eds/bin/gnu/h-x86_64-mingw32/bin/../lib/gcc/nios2-elf/4.9.2/../../../../../H-x86_64-mingw32/nios2-elf/lib/mhw-mulx\libc.a(lib_a-dtoa.o)
 .debug_info    0x0000000000007930      0x89f c:/altera_lite/15.1/nios2eds/bin/gnu/h-x86_64-mingw32/bin/../lib/gcc/nios2-elf/4.9.2/../../../../../H-x86_64-mingw32/nios2-elf/lib/mhw-mulx\libc.a(lib_a-impure.o)
 .debug_info    0x00000000000081cf      0xc29 c:/altera_lite/15.1/nios2eds/bin/gnu/h-x86_64-mingw32/bin/../lib/gcc/nios2-elf/4.9.2/../../../../../H-x86_64-mingw32/nios2-elf/lib/mhw-mulx\libc.a(lib_a-locale.o)
 .debug_info    0x0000000000008df8      0xd81 c:/altera_lite/15.1/nios2eds/bin/gnu/h-x86_64-mingw32/bin/../lib/gcc/nios2-elf/4.9.2/../../../../../H-x86_64-mingw32/nios2-elf/lib/mhw-mulx\libc.a(lib_a-mallocr.o)
 .debug_info    0x0000000000009b79      0x12b c:/altera_lite/15.1/nios2eds/bin/gnu/h-x86_64-mingw32/bin/../lib/gcc/nios2-elf/4.9.2/../../../../../H-x86_64-mingw32/nios2-elf/lib/mhw-mulx\libc.a(lib_a-memchr.o)
 .debug_info    0x0000000000009ca4     0x168c c:/altera_lite/15.1/nios2eds/bin/gnu/h-x86_64-mingw32/bin/../lib/gcc/nios2-elf/4.9.2/../../../../../H-x86_64-mingw32/nios2-elf/lib/mhw-mulx\libc.a(lib_a-mprec.o)
 .debug_info    0x000000000000b330       0xdc c:/altera_lite/15.1/nios2eds/bin/gnu/h-x86_64-mingw32/bin/../lib/gcc/nios2-elf/4.9.2/../../../../../H-x86_64-mingw32/nios2-elf/lib/mhw-mulx\libc.a(lib_a-s_fpclassify.o)
 .debug_info    0x000000000000b40c      0x8ff c:/altera_lite/15.1/nios2eds/bin/gnu/h-x86_64-mingw32/bin/../lib/gcc/nios2-elf/4.9.2/../../../../../H-x86_64-mingw32/nios2-elf/lib/mhw-mulx\libc.a(lib_a-sbrkr.o)
 .debug_info    0x000000000000bd0b       0xdd c:/altera_lite/15.1/nios2eds/bin/gnu/h-x86_64-mingw32/bin/../lib/gcc/nios2-elf/4.9.2/../../../../../H-x86_64-mingw32/nios2-elf/lib/mhw-mulx\libc.a(lib_a-strcmp.o)
 .debug_info    0x000000000000bde8       0xdb c:/altera_lite/15.1/nios2eds/bin/gnu/h-x86_64-mingw32/bin/../lib/gcc/nios2-elf/4.9.2/../../../../../H-x86_64-mingw32/nios2-elf/lib/mhw-mulx\libc.a(lib_a-strlen.o)
 .debug_info    0x000000000000bec3      0xfe9 c:/altera_lite/15.1/nios2eds/bin/gnu/h-x86_64-mingw32/bin/../lib/gcc/nios2-elf/4.9.2/../../../../../H-x86_64-mingw32/nios2-elf/lib/mhw-mulx\libc.a(lib_a-svfiprintf.o)
 .debug_info    0x000000000000ceac      0x9f1 c:/altera_lite/15.1/nios2eds/bin/gnu/h-x86_64-mingw32/bin/../lib/gcc/nios2-elf/4.9.2/../../../../../H-x86_64-mingw32/nios2-elf/lib/mhw-mulx\libc.a(lib_a-callocr.o)
 .debug_info    0x000000000000d89d      0xc12 c:/altera_lite/15.1/nios2eds/bin/gnu/h-x86_64-mingw32/bin/../lib/gcc/nios2-elf/4.9.2/../../../../../H-x86_64-mingw32/nios2-elf/lib/mhw-mulx\libc.a(lib_a-freer.o)
 .debug_info    0x000000000000e4af       0x83 c:/altera_lite/15.1/nios2eds/bin/gnu/h-x86_64-mingw32/bin/../lib/gcc/nios2-elf/4.9.2/../../../../../H-x86_64-mingw32/nios2-elf/lib/mhw-mulx\libc.a(lib_a-int_errno.o)
 .debug_info    0x000000000000e532      0x133 c:/altera_lite/15.1/nios2eds/bin/gnu/h-x86_64-mingw32/bin/../lib/gcc/nios2-elf/4.9.2/../../../../../H-x86_64-mingw32/nios2-elf/lib/mhw-mulx\libc.a(lib_a-memmove.o)
 .debug_info    0x000000000000e665      0x11a c:/altera_lite/15.1/nios2eds/bin/gnu/h-x86_64-mingw32/bin/../lib/gcc/nios2-elf/4.9.2/../../../../../H-x86_64-mingw32/nios2-elf/lib/mhw-mulx\libc.a(lib_a-memset.o)
 .debug_info    0x000000000000e77f      0xcac c:/altera_lite/15.1/nios2eds/bin/gnu/h-x86_64-mingw32/bin/../lib/gcc/nios2-elf/4.9.2/../../../../../H-x86_64-mingw32/nios2-elf/lib/mhw-mulx\libc.a(lib_a-reallocr.o)
 .debug_info    0x000000000000f42b      0x70c c:/altera_lite/15.1/nios2eds/bin/gnu/h-x86_64-mingw32/bin/../lib/gcc/nios2-elf/4.9.2/mhw-mulx\libgcc.a(_udivdi3.o)
 .debug_info    0x000000000000fb37      0x765 c:/altera_lite/15.1/nios2eds/bin/gnu/h-x86_64-mingw32/bin/../lib/gcc/nios2-elf/4.9.2/mhw-mulx\libgcc.a(_umoddi3.o)
 .debug_info    0x000000000001029c      0x1af c:/altera_lite/15.1/nios2eds/bin/gnu/h-x86_64-mingw32/bin/../lib/gcc/nios2-elf/4.9.2/mhw-mulx\libgcc.a(floatunsidf.o)
 .debug_info    0x000000000001044b      0x13e C:/Users/Eldin/Documents/GitHub/Neon3D/FPGA/Software/Neon3DSoftware_bsp/\libucosii_bsp.a(alt_load.o)
 .debug_info    0x0000000000010589      0x27c C:/Users/Eldin/Documents/GitHub/Neon3D/FPGA/Software/Neon3DSoftware_bsp/\libucosii_bsp.a(alt_main.o)
 .debug_info    0x0000000000010805      0x1cb C:/Users/Eldin/Documents/GitHub/Neon3D/FPGA/Software/Neon3DSoftware_bsp/\libucosii_bsp.a(alt_sbrk.o)
 .debug_info    0x00000000000109d0      0xc76 C:/Users/Eldin/Documents/GitHub/Neon3D/FPGA/Software/Neon3DSoftware_bsp/\libucosii_bsp.a(alt_env_lock.o)
 .debug_info    0x0000000000011646      0xdbc C:/Users/Eldin/Documents/GitHub/Neon3D/FPGA/Software/Neon3DSoftware_bsp/\libucosii_bsp.a(alt_malloc_lock.o)
 .debug_info    0x0000000000012402     0x161c C:/Users/Eldin/Documents/GitHub/Neon3D/FPGA/Software/Neon3DSoftware_bsp/\libucosii_bsp.a(os_core.o)
 .debug_info    0x0000000000013a1e      0xab7 C:/Users/Eldin/Documents/GitHub/Neon3D/FPGA/Software/Neon3DSoftware_bsp/\libucosii_bsp.a(os_dbg.o)
 .debug_info    0x00000000000144d5      0xfab C:/Users/Eldin/Documents/GitHub/Neon3D/FPGA/Software/Neon3DSoftware_bsp/\libucosii_bsp.a(os_flag.o)
 .debug_info    0x0000000000015480      0x689 C:/Users/Eldin/Documents/GitHub/Neon3D/FPGA/Software/Neon3DSoftware_bsp/\libucosii_bsp.a(os_mem.o)
 .debug_info    0x0000000000015b09      0xdb2 C:/Users/Eldin/Documents/GitHub/Neon3D/FPGA/Software/Neon3DSoftware_bsp/\libucosii_bsp.a(os_q.o)
 .debug_info    0x00000000000168bb      0xa13 C:/Users/Eldin/Documents/GitHub/Neon3D/FPGA/Software/Neon3DSoftware_bsp/\libucosii_bsp.a(os_sem.o)
 .debug_info    0x00000000000172ce     0x1126 C:/Users/Eldin/Documents/GitHub/Neon3D/FPGA/Software/Neon3DSoftware_bsp/\libucosii_bsp.a(os_task.o)
 .debug_info    0x00000000000183f4      0x6f8 C:/Users/Eldin/Documents/GitHub/Neon3D/FPGA/Software/Neon3DSoftware_bsp/\libucosii_bsp.a(os_time.o)
 .debug_info    0x0000000000018aec      0xb2c C:/Users/Eldin/Documents/GitHub/Neon3D/FPGA/Software/Neon3DSoftware_bsp/\libucosii_bsp.a(alt_sys_init.o)
 .debug_info    0x0000000000019618      0x68a C:/Users/Eldin/Documents/GitHub/Neon3D/FPGA/Software/Neon3DSoftware_bsp/\libucosii_bsp.a(altera_avalon_jtag_uart_fd.o)
 .debug_info    0x0000000000019ca2      0x6d7 C:/Users/Eldin/Documents/GitHub/Neon3D/FPGA/Software/Neon3DSoftware_bsp/\libucosii_bsp.a(altera_avalon_jtag_uart_init.o)
 .debug_info    0x000000000001a379      0x3dc C:/Users/Eldin/Documents/GitHub/Neon3D/FPGA/Software/Neon3DSoftware_bsp/\libucosii_bsp.a(altera_avalon_jtag_uart_ioctl.o)
 .debug_info    0x000000000001a755      0x58e C:/Users/Eldin/Documents/GitHub/Neon3D/FPGA/Software/Neon3DSoftware_bsp/\libucosii_bsp.a(altera_avalon_jtag_uart_read.o)
 .debug_info    0x000000000001ace3      0x588 C:/Users/Eldin/Documents/GitHub/Neon3D/FPGA/Software/Neon3DSoftware_bsp/\libucosii_bsp.a(altera_avalon_jtag_uart_write.o)
 .debug_info    0x000000000001b26b      0x242 C:/Users/Eldin/Documents/GitHub/Neon3D/FPGA/Software/Neon3DSoftware_bsp/\libucosii_bsp.a(altera_avalon_timer_sc.o)
 .debug_info    0x000000000001b4ad      0x61e C:/Users/Eldin/Documents/GitHub/Neon3D/FPGA/Software/Neon3DSoftware_bsp/\libucosii_bsp.a(altera_up_avalon_character_lcd.o)
 .debug_info    0x000000000001bacb      0x5a0 C:/Users/Eldin/Documents/GitHub/Neon3D/FPGA/Software/Neon3DSoftware_bsp/\libucosii_bsp.a(altera_up_avalon_irda.o)
 .debug_info    0x000000000001c06b      0x808 C:/Users/Eldin/Documents/GitHub/Neon3D/FPGA/Software/Neon3DSoftware_bsp/\libucosii_bsp.a(altera_up_avalon_ps2.o)
 .debug_info    0x000000000001c873      0x5a0 C:/Users/Eldin/Documents/GitHub/Neon3D/FPGA/Software/Neon3DSoftware_bsp/\libucosii_bsp.a(altera_up_avalon_rs232.o)
 .debug_info    0x000000000001ce13      0x4a0 C:/Users/Eldin/Documents/GitHub/Neon3D/FPGA/Software/Neon3DSoftware_bsp/\libucosii_bsp.a(altera_up_avalon_video_character_buffer_with_dma.o)
 .debug_info    0x000000000001d2b3      0x2db C:/Users/Eldin/Documents/GitHub/Neon3D/FPGA/Software/Neon3DSoftware_bsp/\libucosii_bsp.a(alt_alarm_start.o)
 .debug_info    0x000000000001d58e      0x364 C:/Users/Eldin/Documents/GitHub/Neon3D/FPGA/Software/Neon3DSoftware_bsp/\libucosii_bsp.a(alt_close.o)
 .debug_info    0x000000000001d8f2       0x8b C:/Users/Eldin/Documents/GitHub/Neon3D/FPGA/Software/Neon3DSoftware_bsp/\libucosii_bsp.a(alt_dcache_flush_all.o)
 .debug_info    0x000000000001d97d      0x594 C:/Users/Eldin/Documents/GitHub/Neon3D/FPGA/Software/Neon3DSoftware_bsp/\libucosii_bsp.a(alt_dev.o)
 .debug_info    0x000000000001df11      0x1a2 C:/Users/Eldin/Documents/GitHub/Neon3D/FPGA/Software/Neon3DSoftware_bsp/\libucosii_bsp.a(alt_dev_llist_insert.o)
 .debug_info    0x000000000001e0b3       0x83 C:/Users/Eldin/Documents/GitHub/Neon3D/FPGA/Software/Neon3DSoftware_bsp/\libucosii_bsp.a(alt_do_ctors.o)
 .debug_info    0x000000000001e136       0x83 C:/Users/Eldin/Documents/GitHub/Neon3D/FPGA/Software/Neon3DSoftware_bsp/\libucosii_bsp.a(alt_do_dtors.o)
 .debug_info    0x000000000001e1b9       0x9f C:/Users/Eldin/Documents/GitHub/Neon3D/FPGA/Software/Neon3DSoftware_bsp/\libucosii_bsp.a(alt_errno.o)
 .debug_info    0x000000000001e258      0x32c C:/Users/Eldin/Documents/GitHub/Neon3D/FPGA/Software/Neon3DSoftware_bsp/\libucosii_bsp.a(alt_find_dev.o)
 .debug_info    0x000000000001e584       0x8b C:/Users/Eldin/Documents/GitHub/Neon3D/FPGA/Software/Neon3DSoftware_bsp/\libucosii_bsp.a(alt_icache_flush_all.o)
 .debug_info    0x000000000001e60f      0x4e8 C:/Users/Eldin/Documents/GitHub/Neon3D/FPGA/Software/Neon3DSoftware_bsp/\libucosii_bsp.a(alt_io_redirect.o)
 .debug_info    0x000000000001eaf7      0x346 C:/Users/Eldin/Documents/GitHub/Neon3D/FPGA/Software/Neon3DSoftware_bsp/\libucosii_bsp.a(alt_irq_register.o)
 .debug_info    0x000000000001ee3d       0x88 C:/Users/Eldin/Documents/GitHub/Neon3D/FPGA/Software/Neon3DSoftware_bsp/\libucosii_bsp.a(alt_irq_vars.o)
 .debug_info    0x000000000001eec5      0x3f3 C:/Users/Eldin/Documents/GitHub/Neon3D/FPGA/Software/Neon3DSoftware_bsp/\libucosii_bsp.a(alt_open.o)
 .debug_info    0x000000000001f2b8      0x308 C:/Users/Eldin/Documents/GitHub/Neon3D/FPGA/Software/Neon3DSoftware_bsp/\libucosii_bsp.a(alt_release_fd.o)
 .debug_info    0x000000000001f5c0      0x2b6 C:/Users/Eldin/Documents/GitHub/Neon3D/FPGA/Software/Neon3DSoftware_bsp/\libucosii_bsp.a(alt_tick.o)
 .debug_info    0x000000000001f876       0xb1 C:/Users/Eldin/Documents/GitHub/Neon3D/FPGA/Software/Neon3DSoftware_bsp/\libucosii_bsp.a(altera_nios2_gen2_irq.o)
 .debug_info    0x000000000001f927       0x84 C:/Users/Eldin/Documents/GitHub/Neon3D/FPGA/Software/Neon3DSoftware_bsp/\libucosii_bsp.a(os_cpu_a.o)
 .debug_info    0x000000000001f9ab      0xcf9 C:/Users/Eldin/Documents/GitHub/Neon3D/FPGA/Software/Neon3DSoftware_bsp/\libucosii_bsp.a(os_cpu_c.o)
 .debug_info    0x00000000000206a4      0x329 C:/Users/Eldin/Documents/GitHub/Neon3D/FPGA/Software/Neon3DSoftware_bsp/\libucosii_bsp.a(alt_find_file.o)
 .debug_info    0x00000000000209cd      0x45a C:/Users/Eldin/Documents/GitHub/Neon3D/FPGA/Software/Neon3DSoftware_bsp/\libucosii_bsp.a(alt_get_fd.o)
 .debug_info    0x0000000000020e27       0xd5 C:/Users/Eldin/Documents/GitHub/Neon3D/FPGA/Software/Neon3DSoftware_bsp/\libucosii_bsp.a(alt_icache_flush.o)
 .debug_info    0x0000000000020efc       0x85 C:/Users/Eldin/Documents/GitHub/Neon3D/FPGA/Software/Neon3DSoftware_bsp/\libucosii_bsp.a(alt_irq_entry.o)
 .debug_info    0x0000000000020f81      0x1c4 C:/Users/Eldin/Documents/GitHub/Neon3D/FPGA/Software/Neon3DSoftware_bsp/\libucosii_bsp.a(alt_irq_handler.o)
 .debug_info    0x0000000000021145       0x8b C:/Users/Eldin/Documents/GitHub/Neon3D/FPGA/Software/Neon3DSoftware_bsp/\libucosii_bsp.a(alt_exception_entry.o)
 .debug_info    0x00000000000211d0      0x1d8 C:/Users/Eldin/Documents/GitHub/Neon3D/FPGA/Software/Neon3DSoftware_bsp/\libucosii_bsp.a(alt_instruction_exception_entry.o)
 .debug_info    0x00000000000213a8      0x10a c:/altera_lite/15.1/nios2eds/bin/gnu/h-x86_64-mingw32/bin/../lib/gcc/nios2-elf/4.9.2/../../../../../H-x86_64-mingw32/nios2-elf/lib/mhw-mulx\libc.a(lib_a-atexit.o)
 .debug_info    0x00000000000214b2      0x8ef c:/altera_lite/15.1/nios2eds/bin/gnu/h-x86_64-mingw32/bin/../lib/gcc/nios2-elf/4.9.2/../../../../../H-x86_64-mingw32/nios2-elf/lib/mhw-mulx\libc.a(lib_a-exit.o)
 .debug_info    0x0000000000021da1      0x113 c:/altera_lite/15.1/nios2eds/bin/gnu/h-x86_64-mingw32/bin/../lib/gcc/nios2-elf/4.9.2/../../../../../H-x86_64-mingw32/nios2-elf/lib/mhw-mulx\libc.a(lib_a-memcmp.o)
 .debug_info    0x0000000000021eb4      0x93f c:/altera_lite/15.1/nios2eds/bin/gnu/h-x86_64-mingw32/bin/../lib/gcc/nios2-elf/4.9.2/../../../../../H-x86_64-mingw32/nios2-elf/lib/mhw-mulx\libc.a(lib_a-__atexit.o)
 .debug_info    0x00000000000227f3      0x964 c:/altera_lite/15.1/nios2eds/bin/gnu/h-x86_64-mingw32/bin/../lib/gcc/nios2-elf/4.9.2/../../../../../H-x86_64-mingw32/nios2-elf/lib/mhw-mulx\libc.a(lib_a-__call_atexit.o)
 .debug_info    0x0000000000023157      0x14a C:/Users/Eldin/Documents/GitHub/Neon3D/FPGA/Software/Neon3DSoftware_bsp/\libucosii_bsp.a(alt_exit.o)

.debug_abbrev   0x0000000000000000     0x8b64
 *(.debug_abbrev)
 .debug_abbrev  0x0000000000000000       0x12 C:/Users/Eldin/Documents/GitHub/Neon3D/FPGA/Software/Neon3DSoftware_bsp//obj/HAL/src/crt0.o
 .debug_abbrev  0x0000000000000012      0x1b2 obj/default/hello_ucosii.o
 .debug_abbrev  0x00000000000001c4       0xfd c:/altera_lite/15.1/nios2eds/bin/gnu/h-x86_64-mingw32/bin/../lib/gcc/nios2-elf/4.9.2/../../../../../H-x86_64-mingw32/nios2-elf/lib/mhw-mulx\libm.a(lib_a-s_cos.o)
 .debug_abbrev  0x00000000000002c1      0x108 c:/altera_lite/15.1/nios2eds/bin/gnu/h-x86_64-mingw32/bin/../lib/gcc/nios2-elf/4.9.2/../../../../../H-x86_64-mingw32/nios2-elf/lib/mhw-mulx\libm.a(lib_a-s_sin.o)
 .debug_abbrev  0x00000000000003c9      0x186 c:/altera_lite/15.1/nios2eds/bin/gnu/h-x86_64-mingw32/bin/../lib/gcc/nios2-elf/4.9.2/../../../../../H-x86_64-mingw32/nios2-elf/lib/mhw-mulx\libm.a(lib_a-e_rem_pio2.o)
 .debug_abbrev  0x000000000000054f       0xed c:/altera_lite/15.1/nios2eds/bin/gnu/h-x86_64-mingw32/bin/../lib/gcc/nios2-elf/4.9.2/../../../../../H-x86_64-mingw32/nios2-elf/lib/mhw-mulx\libm.a(lib_a-k_cos.o)
 .debug_abbrev  0x000000000000063c      0x156 c:/altera_lite/15.1/nios2eds/bin/gnu/h-x86_64-mingw32/bin/../lib/gcc/nios2-elf/4.9.2/../../../../../H-x86_64-mingw32/nios2-elf/lib/mhw-mulx\libm.a(lib_a-k_rem_pio2.o)
 .debug_abbrev  0x0000000000000792       0x96 c:/altera_lite/15.1/nios2eds/bin/gnu/h-x86_64-mingw32/bin/../lib/gcc/nios2-elf/4.9.2/../../../../../H-x86_64-mingw32/nios2-elf/lib/mhw-mulx\libm.a(lib_a-k_sin.o)
 .debug_abbrev  0x0000000000000828       0x6f c:/altera_lite/15.1/nios2eds/bin/gnu/h-x86_64-mingw32/bin/../lib/gcc/nios2-elf/4.9.2/../../../../../H-x86_64-mingw32/nios2-elf/lib/mhw-mulx\libm.a(lib_a-s_fabs.o)
 .debug_abbrev  0x0000000000000897       0xe0 c:/altera_lite/15.1/nios2eds/bin/gnu/h-x86_64-mingw32/bin/../lib/gcc/nios2-elf/4.9.2/../../../../../H-x86_64-mingw32/nios2-elf/lib/mhw-mulx\libm.a(lib_a-s_floor.o)
 .debug_abbrev  0x0000000000000977      0x107 c:/altera_lite/15.1/nios2eds/bin/gnu/h-x86_64-mingw32/bin/../lib/gcc/nios2-elf/4.9.2/../../../../../H-x86_64-mingw32/nios2-elf/lib/mhw-mulx\libm.a(lib_a-s_scalbn.o)
 .debug_abbrev  0x0000000000000a7e       0xe6 c:/altera_lite/15.1/nios2eds/bin/gnu/h-x86_64-mingw32/bin/../lib/gcc/nios2-elf/4.9.2/../../../../../H-x86_64-mingw32/nios2-elf/lib/mhw-mulx\libm.a(lib_a-s_copysign.o)
 .debug_abbrev  0x0000000000000b64       0xd9 c:/altera_lite/15.1/nios2eds/bin/gnu/h-x86_64-mingw32/bin/../lib/gcc/nios2-elf/4.9.2/mhw-mulx\libgcc.a(lib2-divmod.o)
 .debug_abbrev  0x0000000000000c3d      0x12b c:/altera_lite/15.1/nios2eds/bin/gnu/h-x86_64-mingw32/bin/../lib/gcc/nios2-elf/4.9.2/mhw-mulx\libgcc.a(floatsisf.o)
 .debug_abbrev  0x0000000000000d68      0x13a c:/altera_lite/15.1/nios2eds/bin/gnu/h-x86_64-mingw32/bin/../lib/gcc/nios2-elf/4.9.2/mhw-mulx\libgcc.a(adddf3.o)
 .debug_abbrev  0x0000000000000ea2      0x120 c:/altera_lite/15.1/nios2eds/bin/gnu/h-x86_64-mingw32/bin/../lib/gcc/nios2-elf/4.9.2/mhw-mulx\libgcc.a(divdf3.o)
 .debug_abbrev  0x0000000000000fc2      0x128 c:/altera_lite/15.1/nios2eds/bin/gnu/h-x86_64-mingw32/bin/../lib/gcc/nios2-elf/4.9.2/mhw-mulx\libgcc.a(eqdf2.o)
 .debug_abbrev  0x00000000000010ea      0x137 c:/altera_lite/15.1/nios2eds/bin/gnu/h-x86_64-mingw32/bin/../lib/gcc/nios2-elf/4.9.2/mhw-mulx\libgcc.a(gedf2.o)
 .debug_abbrev  0x0000000000001221      0x137 c:/altera_lite/15.1/nios2eds/bin/gnu/h-x86_64-mingw32/bin/../lib/gcc/nios2-elf/4.9.2/mhw-mulx\libgcc.a(ledf2.o)
 .debug_abbrev  0x0000000000001358      0x132 c:/altera_lite/15.1/nios2eds/bin/gnu/h-x86_64-mingw32/bin/../lib/gcc/nios2-elf/4.9.2/mhw-mulx\libgcc.a(muldf3.o)
 .debug_abbrev  0x000000000000148a      0x133 c:/altera_lite/15.1/nios2eds/bin/gnu/h-x86_64-mingw32/bin/../lib/gcc/nios2-elf/4.9.2/mhw-mulx\libgcc.a(subdf3.o)
 .debug_abbrev  0x00000000000015bd      0x119 c:/altera_lite/15.1/nios2eds/bin/gnu/h-x86_64-mingw32/bin/../lib/gcc/nios2-elf/4.9.2/mhw-mulx\libgcc.a(fixdfsi.o)
 .debug_abbrev  0x00000000000016d6      0x11e c:/altera_lite/15.1/nios2eds/bin/gnu/h-x86_64-mingw32/bin/../lib/gcc/nios2-elf/4.9.2/mhw-mulx\libgcc.a(floatsidf.o)
 .debug_abbrev  0x00000000000017f4      0x124 c:/altera_lite/15.1/nios2eds/bin/gnu/h-x86_64-mingw32/bin/../lib/gcc/nios2-elf/4.9.2/mhw-mulx\libgcc.a(extendsfdf2.o)
 .debug_abbrev  0x0000000000001918       0xaf c:/altera_lite/15.1/nios2eds/bin/gnu/h-x86_64-mingw32/bin/../lib/gcc/nios2-elf/4.9.2/mhw-mulx\libgcc.a(_clzsi2.o)
 .debug_abbrev  0x00000000000019c7       0x5d c:/altera_lite/15.1/nios2eds/bin/gnu/h-x86_64-mingw32/bin/../lib/gcc/nios2-elf/4.9.2/mhw-mulx\libgcc.a(_clz.o)
 .debug_abbrev  0x0000000000001a24       0x9c c:/altera_lite/15.1/nios2eds/bin/gnu/h-x86_64-mingw32/bin/../lib/gcc/nios2-elf/4.9.2/../../../../../H-x86_64-mingw32/nios2-elf/lib/mhw-mulx\libc.a(lib_a-memcpy.o)
 .debug_abbrev  0x0000000000001ac0      0x216 c:/altera_lite/15.1/nios2eds/bin/gnu/h-x86_64-mingw32/bin/../lib/gcc/nios2-elf/4.9.2/../../../../../H-x86_64-mingw32/nios2-elf/lib/mhw-mulx\libc.a(lib_a-sprintf.o)
 .debug_abbrev  0x0000000000001cd6      0x37a c:/altera_lite/15.1/nios2eds/bin/gnu/h-x86_64-mingw32/bin/../lib/gcc/nios2-elf/4.9.2/../../../../../H-x86_64-mingw32/nios2-elf/lib/mhw-mulx\libc.a(lib_a-svfprintf.o)
 .debug_abbrev  0x0000000000002050      0x2d6 c:/altera_lite/15.1/nios2eds/bin/gnu/h-x86_64-mingw32/bin/../lib/gcc/nios2-elf/4.9.2/../../../../../H-x86_64-mingw32/nios2-elf/lib/mhw-mulx\libc.a(lib_a-dtoa.o)
 .debug_abbrev  0x0000000000002326      0x18f c:/altera_lite/15.1/nios2eds/bin/gnu/h-x86_64-mingw32/bin/../lib/gcc/nios2-elf/4.9.2/../../../../../H-x86_64-mingw32/nios2-elf/lib/mhw-mulx\libc.a(lib_a-impure.o)
 .debug_abbrev  0x00000000000024b5      0x2c2 c:/altera_lite/15.1/nios2eds/bin/gnu/h-x86_64-mingw32/bin/../lib/gcc/nios2-elf/4.9.2/../../../../../H-x86_64-mingw32/nios2-elf/lib/mhw-mulx\libc.a(lib_a-locale.o)
 .debug_abbrev  0x0000000000002777      0x2ad c:/altera_lite/15.1/nios2eds/bin/gnu/h-x86_64-mingw32/bin/../lib/gcc/nios2-elf/4.9.2/../../../../../H-x86_64-mingw32/nios2-elf/lib/mhw-mulx\libc.a(lib_a-mallocr.o)
 .debug_abbrev  0x0000000000002a24       0xab c:/altera_lite/15.1/nios2eds/bin/gnu/h-x86_64-mingw32/bin/../lib/gcc/nios2-elf/4.9.2/../../../../../H-x86_64-mingw32/nios2-elf/lib/mhw-mulx\libc.a(lib_a-memchr.o)
 .debug_abbrev  0x0000000000002acf      0x3e4 c:/altera_lite/15.1/nios2eds/bin/gnu/h-x86_64-mingw32/bin/../lib/gcc/nios2-elf/4.9.2/../../../../../H-x86_64-mingw32/nios2-elf/lib/mhw-mulx\libc.a(lib_a-mprec.o)
 .debug_abbrev  0x0000000000002eb3       0x7e c:/altera_lite/15.1/nios2eds/bin/gnu/h-x86_64-mingw32/bin/../lib/gcc/nios2-elf/4.9.2/../../../../../H-x86_64-mingw32/nios2-elf/lib/mhw-mulx\libc.a(lib_a-s_fpclassify.o)
 .debug_abbrev  0x0000000000002f31      0x20c c:/altera_lite/15.1/nios2eds/bin/gnu/h-x86_64-mingw32/bin/../lib/gcc/nios2-elf/4.9.2/../../../../../H-x86_64-mingw32/nios2-elf/lib/mhw-mulx\libc.a(lib_a-sbrkr.o)
 .debug_abbrev  0x000000000000313d       0x74 c:/altera_lite/15.1/nios2eds/bin/gnu/h-x86_64-mingw32/bin/../lib/gcc/nios2-elf/4.9.2/../../../../../H-x86_64-mingw32/nios2-elf/lib/mhw-mulx\libc.a(lib_a-strcmp.o)
 .debug_abbrev  0x00000000000031b1       0x90 c:/altera_lite/15.1/nios2eds/bin/gnu/h-x86_64-mingw32/bin/../lib/gcc/nios2-elf/4.9.2/../../../../../H-x86_64-mingw32/nios2-elf/lib/mhw-mulx\libc.a(lib_a-strlen.o)
 .debug_abbrev  0x0000000000003241      0x2d0 c:/altera_lite/15.1/nios2eds/bin/gnu/h-x86_64-mingw32/bin/../lib/gcc/nios2-elf/4.9.2/../../../../../H-x86_64-mingw32/nios2-elf/lib/mhw-mulx\libc.a(lib_a-svfiprintf.o)
 .debug_abbrev  0x0000000000003511      0x213 c:/altera_lite/15.1/nios2eds/bin/gnu/h-x86_64-mingw32/bin/../lib/gcc/nios2-elf/4.9.2/../../../../../H-x86_64-mingw32/nios2-elf/lib/mhw-mulx\libc.a(lib_a-callocr.o)
 .debug_abbrev  0x0000000000003724      0x27b c:/altera_lite/15.1/nios2eds/bin/gnu/h-x86_64-mingw32/bin/../lib/gcc/nios2-elf/4.9.2/../../../../../H-x86_64-mingw32/nios2-elf/lib/mhw-mulx\libc.a(lib_a-freer.o)
 .debug_abbrev  0x000000000000399f       0x37 c:/altera_lite/15.1/nios2eds/bin/gnu/h-x86_64-mingw32/bin/../lib/gcc/nios2-elf/4.9.2/../../../../../H-x86_64-mingw32/nios2-elf/lib/mhw-mulx\libc.a(lib_a-int_errno.o)
 .debug_abbrev  0x00000000000039d6       0x9c c:/altera_lite/15.1/nios2eds/bin/gnu/h-x86_64-mingw32/bin/../lib/gcc/nios2-elf/4.9.2/../../../../../H-x86_64-mingw32/nios2-elf/lib/mhw-mulx\libc.a(lib_a-memmove.o)
 .debug_abbrev  0x0000000000003a72       0xae c:/altera_lite/15.1/nios2eds/bin/gnu/h-x86_64-mingw32/bin/../lib/gcc/nios2-elf/4.9.2/../../../../../H-x86_64-mingw32/nios2-elf/lib/mhw-mulx\libc.a(lib_a-memset.o)
 .debug_abbrev  0x0000000000003b20      0x25e c:/altera_lite/15.1/nios2eds/bin/gnu/h-x86_64-mingw32/bin/../lib/gcc/nios2-elf/4.9.2/../../../../../H-x86_64-mingw32/nios2-elf/lib/mhw-mulx\libc.a(lib_a-reallocr.o)
 .debug_abbrev  0x0000000000003d7e      0x170 c:/altera_lite/15.1/nios2eds/bin/gnu/h-x86_64-mingw32/bin/../lib/gcc/nios2-elf/4.9.2/mhw-mulx\libgcc.a(_udivdi3.o)
 .debug_abbrev  0x0000000000003eee      0x193 c:/altera_lite/15.1/nios2eds/bin/gnu/h-x86_64-mingw32/bin/../lib/gcc/nios2-elf/4.9.2/mhw-mulx\libgcc.a(_umoddi3.o)
 .debug_abbrev  0x0000000000004081      0x117 c:/altera_lite/15.1/nios2eds/bin/gnu/h-x86_64-mingw32/bin/../lib/gcc/nios2-elf/4.9.2/mhw-mulx\libgcc.a(floatunsidf.o)
 .debug_abbrev  0x0000000000004198       0x9f C:/Users/Eldin/Documents/GitHub/Neon3D/FPGA/Software/Neon3DSoftware_bsp/\libucosii_bsp.a(alt_load.o)
 .debug_abbrev  0x0000000000004237      0x139 C:/Users/Eldin/Documents/GitHub/Neon3D/FPGA/Software/Neon3DSoftware_bsp/\libucosii_bsp.a(alt_main.o)
 .debug_abbrev  0x0000000000004370      0x119 C:/Users/Eldin/Documents/GitHub/Neon3D/FPGA/Software/Neon3DSoftware_bsp/\libucosii_bsp.a(alt_sbrk.o)
 .debug_abbrev  0x0000000000004489      0x1e3 C:/Users/Eldin/Documents/GitHub/Neon3D/FPGA/Software/Neon3DSoftware_bsp/\libucosii_bsp.a(alt_env_lock.o)
 .debug_abbrev  0x000000000000466c      0x26d C:/Users/Eldin/Documents/GitHub/Neon3D/FPGA/Software/Neon3DSoftware_bsp/\libucosii_bsp.a(alt_malloc_lock.o)
 .debug_abbrev  0x00000000000048d9      0x302 C:/Users/Eldin/Documents/GitHub/Neon3D/FPGA/Software/Neon3DSoftware_bsp/\libucosii_bsp.a(os_core.o)
 .debug_abbrev  0x0000000000004bdb       0xf7 C:/Users/Eldin/Documents/GitHub/Neon3D/FPGA/Software/Neon3DSoftware_bsp/\libucosii_bsp.a(os_dbg.o)
 .debug_abbrev  0x0000000000004cd2      0x25a C:/Users/Eldin/Documents/GitHub/Neon3D/FPGA/Software/Neon3DSoftware_bsp/\libucosii_bsp.a(os_flag.o)
 .debug_abbrev  0x0000000000004f2c      0x228 C:/Users/Eldin/Documents/GitHub/Neon3D/FPGA/Software/Neon3DSoftware_bsp/\libucosii_bsp.a(os_mem.o)
 .debug_abbrev  0x0000000000005154      0x248 C:/Users/Eldin/Documents/GitHub/Neon3D/FPGA/Software/Neon3DSoftware_bsp/\libucosii_bsp.a(os_q.o)
 .debug_abbrev  0x000000000000539c      0x262 C:/Users/Eldin/Documents/GitHub/Neon3D/FPGA/Software/Neon3DSoftware_bsp/\libucosii_bsp.a(os_sem.o)
 .debug_abbrev  0x00000000000055fe      0x247 C:/Users/Eldin/Documents/GitHub/Neon3D/FPGA/Software/Neon3DSoftware_bsp/\libucosii_bsp.a(os_task.o)
 .debug_abbrev  0x0000000000005845      0x20c C:/Users/Eldin/Documents/GitHub/Neon3D/FPGA/Software/Neon3DSoftware_bsp/\libucosii_bsp.a(os_time.o)
 .debug_abbrev  0x0000000000005a51      0x1e2 C:/Users/Eldin/Documents/GitHub/Neon3D/FPGA/Software/Neon3DSoftware_bsp/\libucosii_bsp.a(alt_sys_init.o)
 .debug_abbrev  0x0000000000005c33      0x16c C:/Users/Eldin/Documents/GitHub/Neon3D/FPGA/Software/Neon3DSoftware_bsp/\libucosii_bsp.a(altera_avalon_jtag_uart_fd.o)
 .debug_abbrev  0x0000000000005d9f      0x248 C:/Users/Eldin/Documents/GitHub/Neon3D/FPGA/Software/Neon3DSoftware_bsp/\libucosii_bsp.a(altera_avalon_jtag_uart_init.o)
 .debug_abbrev  0x0000000000005fe7      0x156 C:/Users/Eldin/Documents/GitHub/Neon3D/FPGA/Software/Neon3DSoftware_bsp/\libucosii_bsp.a(altera_avalon_jtag_uart_ioctl.o)
 .debug_abbrev  0x000000000000613d      0x1fa C:/Users/Eldin/Documents/GitHub/Neon3D/FPGA/Software/Neon3DSoftware_bsp/\libucosii_bsp.a(altera_avalon_jtag_uart_read.o)
 .debug_abbrev  0x0000000000006337      0x1f6 C:/Users/Eldin/Documents/GitHub/Neon3D/FPGA/Software/Neon3DSoftware_bsp/\libucosii_bsp.a(altera_avalon_jtag_uart_write.o)
 .debug_abbrev  0x000000000000652d      0x155 C:/Users/Eldin/Documents/GitHub/Neon3D/FPGA/Software/Neon3DSoftware_bsp/\libucosii_bsp.a(altera_avalon_timer_sc.o)
 .debug_abbrev  0x0000000000006682      0x156 C:/Users/Eldin/Documents/GitHub/Neon3D/FPGA/Software/Neon3DSoftware_bsp/\libucosii_bsp.a(altera_up_avalon_character_lcd.o)
 .debug_abbrev  0x00000000000067d8      0x13c C:/Users/Eldin/Documents/GitHub/Neon3D/FPGA/Software/Neon3DSoftware_bsp/\libucosii_bsp.a(altera_up_avalon_irda.o)
 .debug_abbrev  0x0000000000006914      0x1a6 C:/Users/Eldin/Documents/GitHub/Neon3D/FPGA/Software/Neon3DSoftware_bsp/\libucosii_bsp.a(altera_up_avalon_ps2.o)
 .debug_abbrev  0x0000000000006aba      0x13c C:/Users/Eldin/Documents/GitHub/Neon3D/FPGA/Software/Neon3DSoftware_bsp/\libucosii_bsp.a(altera_up_avalon_rs232.o)
 .debug_abbrev  0x0000000000006bf6      0x13c C:/Users/Eldin/Documents/GitHub/Neon3D/FPGA/Software/Neon3DSoftware_bsp/\libucosii_bsp.a(altera_up_avalon_video_character_buffer_with_dma.o)
 .debug_abbrev  0x0000000000006d32      0x162 C:/Users/Eldin/Documents/GitHub/Neon3D/FPGA/Software/Neon3DSoftware_bsp/\libucosii_bsp.a(alt_alarm_start.o)
 .debug_abbrev  0x0000000000006e94      0x126 C:/Users/Eldin/Documents/GitHub/Neon3D/FPGA/Software/Neon3DSoftware_bsp/\libucosii_bsp.a(alt_close.o)
 .debug_abbrev  0x0000000000006fba       0x42 C:/Users/Eldin/Documents/GitHub/Neon3D/FPGA/Software/Neon3DSoftware_bsp/\libucosii_bsp.a(alt_dcache_flush_all.o)
 .debug_abbrev  0x0000000000006ffc      0x11c C:/Users/Eldin/Documents/GitHub/Neon3D/FPGA/Software/Neon3DSoftware_bsp/\libucosii_bsp.a(alt_dev.o)
 .debug_abbrev  0x0000000000007118      0x114 C:/Users/Eldin/Documents/GitHub/Neon3D/FPGA/Software/Neon3DSoftware_bsp/\libucosii_bsp.a(alt_dev_llist_insert.o)
 .debug_abbrev  0x000000000000722c       0x79 C:/Users/Eldin/Documents/GitHub/Neon3D/FPGA/Software/Neon3DSoftware_bsp/\libucosii_bsp.a(alt_do_ctors.o)
 .debug_abbrev  0x00000000000072a5       0x79 C:/Users/Eldin/Documents/GitHub/Neon3D/FPGA/Software/Neon3DSoftware_bsp/\libucosii_bsp.a(alt_do_dtors.o)
 .debug_abbrev  0x000000000000731e       0x5a C:/Users/Eldin/Documents/GitHub/Neon3D/FPGA/Software/Neon3DSoftware_bsp/\libucosii_bsp.a(alt_errno.o)
 .debug_abbrev  0x0000000000007378       0xf7 C:/Users/Eldin/Documents/GitHub/Neon3D/FPGA/Software/Neon3DSoftware_bsp/\libucosii_bsp.a(alt_find_dev.o)
 .debug_abbrev  0x000000000000746f       0x42 C:/Users/Eldin/Documents/GitHub/Neon3D/FPGA/Software/Neon3DSoftware_bsp/\libucosii_bsp.a(alt_icache_flush_all.o)
 .debug_abbrev  0x00000000000074b1      0x11b C:/Users/Eldin/Documents/GitHub/Neon3D/FPGA/Software/Neon3DSoftware_bsp/\libucosii_bsp.a(alt_io_redirect.o)
 .debug_abbrev  0x00000000000075cc      0x186 C:/Users/Eldin/Documents/GitHub/Neon3D/FPGA/Software/Neon3DSoftware_bsp/\libucosii_bsp.a(alt_irq_register.o)
 .debug_abbrev  0x0000000000007752       0x40 C:/Users/Eldin/Documents/GitHub/Neon3D/FPGA/Software/Neon3DSoftware_bsp/\libucosii_bsp.a(alt_irq_vars.o)
 .debug_abbrev  0x0000000000007792      0x14f C:/Users/Eldin/Documents/GitHub/Neon3D/FPGA/Software/Neon3DSoftware_bsp/\libucosii_bsp.a(alt_open.o)
 .debug_abbrev  0x00000000000078e1       0xe5 C:/Users/Eldin/Documents/GitHub/Neon3D/FPGA/Software/Neon3DSoftware_bsp/\libucosii_bsp.a(alt_release_fd.o)
 .debug_abbrev  0x00000000000079c6      0x16b C:/Users/Eldin/Documents/GitHub/Neon3D/FPGA/Software/Neon3DSoftware_bsp/\libucosii_bsp.a(alt_tick.o)
 .debug_abbrev  0x0000000000007b31       0x67 C:/Users/Eldin/Documents/GitHub/Neon3D/FPGA/Software/Neon3DSoftware_bsp/\libucosii_bsp.a(altera_nios2_gen2_irq.o)
 .debug_abbrev  0x0000000000007b98       0x14 C:/Users/Eldin/Documents/GitHub/Neon3D/FPGA/Software/Neon3DSoftware_bsp/\libucosii_bsp.a(os_cpu_a.o)
 .debug_abbrev  0x0000000000007bac      0x215 C:/Users/Eldin/Documents/GitHub/Neon3D/FPGA/Software/Neon3DSoftware_bsp/\libucosii_bsp.a(os_cpu_c.o)
 .debug_abbrev  0x0000000000007dc1       0xf7 C:/Users/Eldin/Documents/GitHub/Neon3D/FPGA/Software/Neon3DSoftware_bsp/\libucosii_bsp.a(alt_find_file.o)
 .debug_abbrev  0x0000000000007eb8      0x19b C:/Users/Eldin/Documents/GitHub/Neon3D/FPGA/Software/Neon3DSoftware_bsp/\libucosii_bsp.a(alt_get_fd.o)
 .debug_abbrev  0x0000000000008053       0x8c C:/Users/Eldin/Documents/GitHub/Neon3D/FPGA/Software/Neon3DSoftware_bsp/\libucosii_bsp.a(alt_icache_flush.o)
 .debug_abbrev  0x00000000000080df       0x12 C:/Users/Eldin/Documents/GitHub/Neon3D/FPGA/Software/Neon3DSoftware_bsp/\libucosii_bsp.a(alt_irq_entry.o)
 .debug_abbrev  0x00000000000080f1      0x13a C:/Users/Eldin/Documents/GitHub/Neon3D/FPGA/Software/Neon3DSoftware_bsp/\libucosii_bsp.a(alt_irq_handler.o)
 .debug_abbrev  0x000000000000822b       0x12 C:/Users/Eldin/Documents/GitHub/Neon3D/FPGA/Software/Neon3DSoftware_bsp/\libucosii_bsp.a(alt_exception_entry.o)
 .debug_abbrev  0x000000000000823d       0xd1 C:/Users/Eldin/Documents/GitHub/Neon3D/FPGA/Software/Neon3DSoftware_bsp/\libucosii_bsp.a(alt_instruction_exception_entry.o)
 .debug_abbrev  0x000000000000830e       0xb8 c:/altera_lite/15.1/nios2eds/bin/gnu/h-x86_64-mingw32/bin/../lib/gcc/nios2-elf/4.9.2/../../../../../H-x86_64-mingw32/nios2-elf/lib/mhw-mulx\libc.a(lib_a-atexit.o)
 .debug_abbrev  0x00000000000083c6      0x1f5 c:/altera_lite/15.1/nios2eds/bin/gnu/h-x86_64-mingw32/bin/../lib/gcc/nios2-elf/4.9.2/../../../../../H-x86_64-mingw32/nios2-elf/lib/mhw-mulx\libc.a(lib_a-exit.o)
 .debug_abbrev  0x00000000000085bb       0x7f c:/altera_lite/15.1/nios2eds/bin/gnu/h-x86_64-mingw32/bin/../lib/gcc/nios2-elf/4.9.2/../../../../../H-x86_64-mingw32/nios2-elf/lib/mhw-mulx\libc.a(lib_a-memcmp.o)
 .debug_abbrev  0x000000000000863a      0x21e c:/altera_lite/15.1/nios2eds/bin/gnu/h-x86_64-mingw32/bin/../lib/gcc/nios2-elf/4.9.2/../../../../../H-x86_64-mingw32/nios2-elf/lib/mhw-mulx\libc.a(lib_a-__atexit.o)
 .debug_abbrev  0x0000000000008858      0x22e c:/altera_lite/15.1/nios2eds/bin/gnu/h-x86_64-mingw32/bin/../lib/gcc/nios2-elf/4.9.2/../../../../../H-x86_64-mingw32/nios2-elf/lib/mhw-mulx\libc.a(lib_a-__call_atexit.o)
 .debug_abbrev  0x0000000000008a86       0xde C:/Users/Eldin/Documents/GitHub/Neon3D/FPGA/Software/Neon3DSoftware_bsp/\libucosii_bsp.a(alt_exit.o)

.debug_line     0x0000000000000000     0xc4b7
 *(.debug_line)
 .debug_line    0x0000000000000000       0x6c C:/Users/Eldin/Documents/GitHub/Neon3D/FPGA/Software/Neon3DSoftware_bsp//obj/HAL/src/crt0.o
 .debug_line    0x000000000000006c      0x3cb obj/default/hello_ucosii.o
 .debug_line    0x0000000000000437      0x1cd c:/altera_lite/15.1/nios2eds/bin/gnu/h-x86_64-mingw32/bin/../lib/gcc/nios2-elf/4.9.2/../../../../../H-x86_64-mingw32/nios2-elf/lib/mhw-mulx\libm.a(lib_a-s_cos.o)
 .debug_line    0x0000000000000604      0x1ce c:/altera_lite/15.1/nios2eds/bin/gnu/h-x86_64-mingw32/bin/../lib/gcc/nios2-elf/4.9.2/../../../../../H-x86_64-mingw32/nios2-elf/lib/mhw-mulx\libm.a(lib_a-s_sin.o)
 .debug_line    0x00000000000007d2      0x286 c:/altera_lite/15.1/nios2eds/bin/gnu/h-x86_64-mingw32/bin/../lib/gcc/nios2-elf/4.9.2/../../../../../H-x86_64-mingw32/nios2-elf/lib/mhw-mulx\libm.a(lib_a-e_rem_pio2.o)
 .debug_line    0x0000000000000a58      0x167 c:/altera_lite/15.1/nios2eds/bin/gnu/h-x86_64-mingw32/bin/../lib/gcc/nios2-elf/4.9.2/../../../../../H-x86_64-mingw32/nios2-elf/lib/mhw-mulx\libm.a(lib_a-k_cos.o)
 .debug_line    0x0000000000000bbf      0x402 c:/altera_lite/15.1/nios2eds/bin/gnu/h-x86_64-mingw32/bin/../lib/gcc/nios2-elf/4.9.2/../../../../../H-x86_64-mingw32/nios2-elf/lib/mhw-mulx\libm.a(lib_a-k_rem_pio2.o)
 .debug_line    0x0000000000000fc1      0x110 c:/altera_lite/15.1/nios2eds/bin/gnu/h-x86_64-mingw32/bin/../lib/gcc/nios2-elf/4.9.2/../../../../../H-x86_64-mingw32/nios2-elf/lib/mhw-mulx\libm.a(lib_a-k_sin.o)
 .debug_line    0x00000000000010d1      0x152 c:/altera_lite/15.1/nios2eds/bin/gnu/h-x86_64-mingw32/bin/../lib/gcc/nios2-elf/4.9.2/../../../../../H-x86_64-mingw32/nios2-elf/lib/mhw-mulx\libm.a(lib_a-s_fabs.o)
 .debug_line    0x0000000000001223      0x1ef c:/altera_lite/15.1/nios2eds/bin/gnu/h-x86_64-mingw32/bin/../lib/gcc/nios2-elf/4.9.2/../../../../../H-x86_64-mingw32/nios2-elf/lib/mhw-mulx\libm.a(lib_a-s_floor.o)
 .debug_line    0x0000000000001412      0x1af c:/altera_lite/15.1/nios2eds/bin/gnu/h-x86_64-mingw32/bin/../lib/gcc/nios2-elf/4.9.2/../../../../../H-x86_64-mingw32/nios2-elf/lib/mhw-mulx\libm.a(lib_a-s_scalbn.o)
 .debug_line    0x00000000000015c1      0x166 c:/altera_lite/15.1/nios2eds/bin/gnu/h-x86_64-mingw32/bin/../lib/gcc/nios2-elf/4.9.2/../../../../../H-x86_64-mingw32/nios2-elf/lib/mhw-mulx\libm.a(lib_a-s_copysign.o)
 .debug_line    0x0000000000001727       0xc7 c:/altera_lite/15.1/nios2eds/bin/gnu/h-x86_64-mingw32/bin/../lib/gcc/nios2-elf/4.9.2/mhw-mulx\libgcc.a(lib2-divmod.o)
 .debug_line    0x00000000000017ee       0xc3 c:/altera_lite/15.1/nios2eds/bin/gnu/h-x86_64-mingw32/bin/../lib/gcc/nios2-elf/4.9.2/mhw-mulx\libgcc.a(floatsisf.o)
 .debug_line    0x00000000000018b1      0x386 c:/altera_lite/15.1/nios2eds/bin/gnu/h-x86_64-mingw32/bin/../lib/gcc/nios2-elf/4.9.2/mhw-mulx\libgcc.a(adddf3.o)
 .debug_line    0x0000000000001c37      0x2a6 c:/altera_lite/15.1/nios2eds/bin/gnu/h-x86_64-mingw32/bin/../lib/gcc/nios2-elf/4.9.2/mhw-mulx\libgcc.a(divdf3.o)
 .debug_line    0x0000000000001edd       0xae c:/altera_lite/15.1/nios2eds/bin/gnu/h-x86_64-mingw32/bin/../lib/gcc/nios2-elf/4.9.2/mhw-mulx\libgcc.a(eqdf2.o)
 .debug_line    0x0000000000001f8b       0xce c:/altera_lite/15.1/nios2eds/bin/gnu/h-x86_64-mingw32/bin/../lib/gcc/nios2-elf/4.9.2/mhw-mulx\libgcc.a(gedf2.o)
 .debug_line    0x0000000000002059       0xcd c:/altera_lite/15.1/nios2eds/bin/gnu/h-x86_64-mingw32/bin/../lib/gcc/nios2-elf/4.9.2/mhw-mulx\libgcc.a(ledf2.o)
 .debug_line    0x0000000000002126      0x1de c:/altera_lite/15.1/nios2eds/bin/gnu/h-x86_64-mingw32/bin/../lib/gcc/nios2-elf/4.9.2/mhw-mulx\libgcc.a(muldf3.o)
 .debug_line    0x0000000000002304      0x3a1 c:/altera_lite/15.1/nios2eds/bin/gnu/h-x86_64-mingw32/bin/../lib/gcc/nios2-elf/4.9.2/mhw-mulx\libgcc.a(subdf3.o)
 .debug_line    0x00000000000026a5       0x9c c:/altera_lite/15.1/nios2eds/bin/gnu/h-x86_64-mingw32/bin/../lib/gcc/nios2-elf/4.9.2/mhw-mulx\libgcc.a(fixdfsi.o)
 .debug_line    0x0000000000002741       0xa0 c:/altera_lite/15.1/nios2eds/bin/gnu/h-x86_64-mingw32/bin/../lib/gcc/nios2-elf/4.9.2/mhw-mulx\libgcc.a(floatsidf.o)
 .debug_line    0x00000000000027e1       0xc9 c:/altera_lite/15.1/nios2eds/bin/gnu/h-x86_64-mingw32/bin/../lib/gcc/nios2-elf/4.9.2/mhw-mulx\libgcc.a(extendsfdf2.o)
 .debug_line    0x00000000000028aa       0xba c:/altera_lite/15.1/nios2eds/bin/gnu/h-x86_64-mingw32/bin/../lib/gcc/nios2-elf/4.9.2/mhw-mulx\libgcc.a(_clzsi2.o)
 .debug_line    0x0000000000002964       0x56 c:/altera_lite/15.1/nios2eds/bin/gnu/h-x86_64-mingw32/bin/../lib/gcc/nios2-elf/4.9.2/mhw-mulx\libgcc.a(_clz.o)
 .debug_line    0x00000000000029ba      0x185 c:/altera_lite/15.1/nios2eds/bin/gnu/h-x86_64-mingw32/bin/../lib/gcc/nios2-elf/4.9.2/../../../../../H-x86_64-mingw32/nios2-elf/lib/mhw-mulx\libc.a(lib_a-memcpy.o)
 .debug_line    0x0000000000002b3f      0x228 c:/altera_lite/15.1/nios2eds/bin/gnu/h-x86_64-mingw32/bin/../lib/gcc/nios2-elf/4.9.2/../../../../../H-x86_64-mingw32/nios2-elf/lib/mhw-mulx\libc.a(lib_a-sprintf.o)
 .debug_line    0x0000000000002d67      0xa71 c:/altera_lite/15.1/nios2eds/bin/gnu/h-x86_64-mingw32/bin/../lib/gcc/nios2-elf/4.9.2/../../../../../H-x86_64-mingw32/nios2-elf/lib/mhw-mulx\libc.a(lib_a-svfprintf.o)
 .debug_line    0x00000000000037d8      0x7e3 c:/altera_lite/15.1/nios2eds/bin/gnu/h-x86_64-mingw32/bin/../lib/gcc/nios2-elf/4.9.2/../../../../../H-x86_64-mingw32/nios2-elf/lib/mhw-mulx\libc.a(lib_a-dtoa.o)
 .debug_line    0x0000000000003fbb      0x160 c:/altera_lite/15.1/nios2eds/bin/gnu/h-x86_64-mingw32/bin/../lib/gcc/nios2-elf/4.9.2/../../../../../H-x86_64-mingw32/nios2-elf/lib/mhw-mulx\libc.a(lib_a-impure.o)
 .debug_line    0x000000000000411b      0x291 c:/altera_lite/15.1/nios2eds/bin/gnu/h-x86_64-mingw32/bin/../lib/gcc/nios2-elf/4.9.2/../../../../../H-x86_64-mingw32/nios2-elf/lib/mhw-mulx\libc.a(lib_a-locale.o)
 .debug_line    0x00000000000043ac      0x3fd c:/altera_lite/15.1/nios2eds/bin/gnu/h-x86_64-mingw32/bin/../lib/gcc/nios2-elf/4.9.2/../../../../../H-x86_64-mingw32/nios2-elf/lib/mhw-mulx\libc.a(lib_a-mallocr.o)
 .debug_line    0x00000000000047a9      0x18e c:/altera_lite/15.1/nios2eds/bin/gnu/h-x86_64-mingw32/bin/../lib/gcc/nios2-elf/4.9.2/../../../../../H-x86_64-mingw32/nios2-elf/lib/mhw-mulx\libc.a(lib_a-memchr.o)
 .debug_line    0x0000000000004937      0x782 c:/altera_lite/15.1/nios2eds/bin/gnu/h-x86_64-mingw32/bin/../lib/gcc/nios2-elf/4.9.2/../../../../../H-x86_64-mingw32/nios2-elf/lib/mhw-mulx\libc.a(lib_a-mprec.o)
 .debug_line    0x00000000000050b9      0x17b c:/altera_lite/15.1/nios2eds/bin/gnu/h-x86_64-mingw32/bin/../lib/gcc/nios2-elf/4.9.2/../../../../../H-x86_64-mingw32/nios2-elf/lib/mhw-mulx\libc.a(lib_a-s_fpclassify.o)
 .debug_line    0x0000000000005234      0x1e9 c:/altera_lite/15.1/nios2eds/bin/gnu/h-x86_64-mingw32/bin/../lib/gcc/nios2-elf/4.9.2/../../../../../H-x86_64-mingw32/nios2-elf/lib/mhw-mulx\libc.a(lib_a-sbrkr.o)
 .debug_line    0x000000000000541d       0xf7 c:/altera_lite/15.1/nios2eds/bin/gnu/h-x86_64-mingw32/bin/../lib/gcc/nios2-elf/4.9.2/../../../../../H-x86_64-mingw32/nios2-elf/lib/mhw-mulx\libc.a(lib_a-strcmp.o)
 .debug_line    0x0000000000005514      0x16f c:/altera_lite/15.1/nios2eds/bin/gnu/h-x86_64-mingw32/bin/../lib/gcc/nios2-elf/4.9.2/../../../../../H-x86_64-mingw32/nios2-elf/lib/mhw-mulx\libc.a(lib_a-strlen.o)
 .debug_line    0x0000000000005683      0x7af c:/altera_lite/15.1/nios2eds/bin/gnu/h-x86_64-mingw32/bin/../lib/gcc/nios2-elf/4.9.2/../../../../../H-x86_64-mingw32/nios2-elf/lib/mhw-mulx\libc.a(lib_a-svfiprintf.o)
 .debug_line    0x0000000000005e32      0x1b7 c:/altera_lite/15.1/nios2eds/bin/gnu/h-x86_64-mingw32/bin/../lib/gcc/nios2-elf/4.9.2/../../../../../H-x86_64-mingw32/nios2-elf/lib/mhw-mulx\libc.a(lib_a-callocr.o)
 .debug_line    0x0000000000005fe9      0x2ef c:/altera_lite/15.1/nios2eds/bin/gnu/h-x86_64-mingw32/bin/../lib/gcc/nios2-elf/4.9.2/../../../../../H-x86_64-mingw32/nios2-elf/lib/mhw-mulx\libc.a(lib_a-freer.o)
 .debug_line    0x00000000000062d8       0x5f c:/altera_lite/15.1/nios2eds/bin/gnu/h-x86_64-mingw32/bin/../lib/gcc/nios2-elf/4.9.2/../../../../../H-x86_64-mingw32/nios2-elf/lib/mhw-mulx\libc.a(lib_a-int_errno.o)
 .debug_line    0x0000000000006337      0x18c c:/altera_lite/15.1/nios2eds/bin/gnu/h-x86_64-mingw32/bin/../lib/gcc/nios2-elf/4.9.2/../../../../../H-x86_64-mingw32/nios2-elf/lib/mhw-mulx\libc.a(lib_a-memmove.o)
 .debug_line    0x00000000000064c3      0x18f c:/altera_lite/15.1/nios2eds/bin/gnu/h-x86_64-mingw32/bin/../lib/gcc/nios2-elf/4.9.2/../../../../../H-x86_64-mingw32/nios2-elf/lib/mhw-mulx\libc.a(lib_a-memset.o)
 .debug_line    0x0000000000006652      0x2ec c:/altera_lite/15.1/nios2eds/bin/gnu/h-x86_64-mingw32/bin/../lib/gcc/nios2-elf/4.9.2/../../../../../H-x86_64-mingw32/nios2-elf/lib/mhw-mulx\libc.a(lib_a-reallocr.o)
 .debug_line    0x000000000000693e      0x13a c:/altera_lite/15.1/nios2eds/bin/gnu/h-x86_64-mingw32/bin/../lib/gcc/nios2-elf/4.9.2/mhw-mulx\libgcc.a(_udivdi3.o)
 .debug_line    0x0000000000006a78      0x14b c:/altera_lite/15.1/nios2eds/bin/gnu/h-x86_64-mingw32/bin/../lib/gcc/nios2-elf/4.9.2/mhw-mulx\libgcc.a(_umoddi3.o)
 .debug_line    0x0000000000006bc3       0x96 c:/altera_lite/15.1/nios2eds/bin/gnu/h-x86_64-mingw32/bin/../lib/gcc/nios2-elf/4.9.2/mhw-mulx\libgcc.a(floatunsidf.o)
 .debug_line    0x0000000000006c59       0x8d C:/Users/Eldin/Documents/GitHub/Neon3D/FPGA/Software/Neon3DSoftware_bsp/\libucosii_bsp.a(alt_load.o)
 .debug_line    0x0000000000006ce6      0x143 C:/Users/Eldin/Documents/GitHub/Neon3D/FPGA/Software/Neon3DSoftware_bsp/\libucosii_bsp.a(alt_main.o)
 .debug_line    0x0000000000006e29      0x12c C:/Users/Eldin/Documents/GitHub/Neon3D/FPGA/Software/Neon3DSoftware_bsp/\libucosii_bsp.a(alt_sbrk.o)
 .debug_line    0x0000000000006f55      0x1b0 C:/Users/Eldin/Documents/GitHub/Neon3D/FPGA/Software/Neon3DSoftware_bsp/\libucosii_bsp.a(alt_env_lock.o)
 .debug_line    0x0000000000007105      0x21e C:/Users/Eldin/Documents/GitHub/Neon3D/FPGA/Software/Neon3DSoftware_bsp/\libucosii_bsp.a(alt_malloc_lock.o)
 .debug_line    0x0000000000007323      0x690 C:/Users/Eldin/Documents/GitHub/Neon3D/FPGA/Software/Neon3DSoftware_bsp/\libucosii_bsp.a(os_core.o)
 .debug_line    0x00000000000079b3       0xe6 C:/Users/Eldin/Documents/GitHub/Neon3D/FPGA/Software/Neon3DSoftware_bsp/\libucosii_bsp.a(os_dbg.o)
 .debug_line    0x0000000000007a99      0x519 C:/Users/Eldin/Documents/GitHub/Neon3D/FPGA/Software/Neon3DSoftware_bsp/\libucosii_bsp.a(os_flag.o)
 .debug_line    0x0000000000007fb2      0x252 C:/Users/Eldin/Documents/GitHub/Neon3D/FPGA/Software/Neon3DSoftware_bsp/\libucosii_bsp.a(os_mem.o)
 .debug_line    0x0000000000008204      0x424 C:/Users/Eldin/Documents/GitHub/Neon3D/FPGA/Software/Neon3DSoftware_bsp/\libucosii_bsp.a(os_q.o)
 .debug_line    0x0000000000008628      0x2fe C:/Users/Eldin/Documents/GitHub/Neon3D/FPGA/Software/Neon3DSoftware_bsp/\libucosii_bsp.a(os_sem.o)
 .debug_line    0x0000000000008926      0x55b C:/Users/Eldin/Documents/GitHub/Neon3D/FPGA/Software/Neon3DSoftware_bsp/\libucosii_bsp.a(os_task.o)
 .debug_line    0x0000000000008e81      0x1bf C:/Users/Eldin/Documents/GitHub/Neon3D/FPGA/Software/Neon3DSoftware_bsp/\libucosii_bsp.a(os_time.o)
 .debug_line    0x0000000000009040      0x36e C:/Users/Eldin/Documents/GitHub/Neon3D/FPGA/Software/Neon3DSoftware_bsp/\libucosii_bsp.a(alt_sys_init.o)
 .debug_line    0x00000000000093ae      0x169 C:/Users/Eldin/Documents/GitHub/Neon3D/FPGA/Software/Neon3DSoftware_bsp/\libucosii_bsp.a(altera_avalon_jtag_uart_fd.o)
 .debug_line    0x0000000000009517      0x231 C:/Users/Eldin/Documents/GitHub/Neon3D/FPGA/Software/Neon3DSoftware_bsp/\libucosii_bsp.a(altera_avalon_jtag_uart_init.o)
 .debug_line    0x0000000000009748      0x168 C:/Users/Eldin/Documents/GitHub/Neon3D/FPGA/Software/Neon3DSoftware_bsp/\libucosii_bsp.a(altera_avalon_jtag_uart_ioctl.o)
 .debug_line    0x00000000000098b0      0x1ec C:/Users/Eldin/Documents/GitHub/Neon3D/FPGA/Software/Neon3DSoftware_bsp/\libucosii_bsp.a(altera_avalon_jtag_uart_read.o)
 .debug_line    0x0000000000009a9c      0x1ec C:/Users/Eldin/Documents/GitHub/Neon3D/FPGA/Software/Neon3DSoftware_bsp/\libucosii_bsp.a(altera_avalon_jtag_uart_write.o)
 .debug_line    0x0000000000009c88      0x113 C:/Users/Eldin/Documents/GitHub/Neon3D/FPGA/Software/Neon3DSoftware_bsp/\libucosii_bsp.a(altera_avalon_timer_sc.o)
 .debug_line    0x0000000000009d9b      0x1cc C:/Users/Eldin/Documents/GitHub/Neon3D/FPGA/Software/Neon3DSoftware_bsp/\libucosii_bsp.a(altera_up_avalon_character_lcd.o)
 .debug_line    0x0000000000009f67      0x15c C:/Users/Eldin/Documents/GitHub/Neon3D/FPGA/Software/Neon3DSoftware_bsp/\libucosii_bsp.a(altera_up_avalon_irda.o)
 .debug_line    0x000000000000a0c3      0x1c8 C:/Users/Eldin/Documents/GitHub/Neon3D/FPGA/Software/Neon3DSoftware_bsp/\libucosii_bsp.a(altera_up_avalon_ps2.o)
 .debug_line    0x000000000000a28b      0x162 C:/Users/Eldin/Documents/GitHub/Neon3D/FPGA/Software/Neon3DSoftware_bsp/\libucosii_bsp.a(altera_up_avalon_rs232.o)
 .debug_line    0x000000000000a3ed      0x190 C:/Users/Eldin/Documents/GitHub/Neon3D/FPGA/Software/Neon3DSoftware_bsp/\libucosii_bsp.a(altera_up_avalon_video_character_buffer_with_dma.o)
 .debug_line    0x000000000000a57d      0x10e C:/Users/Eldin/Documents/GitHub/Neon3D/FPGA/Software/Neon3DSoftware_bsp/\libucosii_bsp.a(alt_alarm_start.o)
 .debug_line    0x000000000000a68b      0x186 C:/Users/Eldin/Documents/GitHub/Neon3D/FPGA/Software/Neon3DSoftware_bsp/\libucosii_bsp.a(alt_close.o)
 .debug_line    0x000000000000a811       0x51 C:/Users/Eldin/Documents/GitHub/Neon3D/FPGA/Software/Neon3DSoftware_bsp/\libucosii_bsp.a(alt_dcache_flush_all.o)
 .debug_line    0x000000000000a862      0x14d C:/Users/Eldin/Documents/GitHub/Neon3D/FPGA/Software/Neon3DSoftware_bsp/\libucosii_bsp.a(alt_dev.o)
 .debug_line    0x000000000000a9af       0xd0 C:/Users/Eldin/Documents/GitHub/Neon3D/FPGA/Software/Neon3DSoftware_bsp/\libucosii_bsp.a(alt_dev_llist_insert.o)
 .debug_line    0x000000000000aa7f       0x59 C:/Users/Eldin/Documents/GitHub/Neon3D/FPGA/Software/Neon3DSoftware_bsp/\libucosii_bsp.a(alt_do_ctors.o)
 .debug_line    0x000000000000aad8       0x59 C:/Users/Eldin/Documents/GitHub/Neon3D/FPGA/Software/Neon3DSoftware_bsp/\libucosii_bsp.a(alt_do_dtors.o)
 .debug_line    0x000000000000ab31       0x51 C:/Users/Eldin/Documents/GitHub/Neon3D/FPGA/Software/Neon3DSoftware_bsp/\libucosii_bsp.a(alt_errno.o)
 .debug_line    0x000000000000ab82       0xd8 C:/Users/Eldin/Documents/GitHub/Neon3D/FPGA/Software/Neon3DSoftware_bsp/\libucosii_bsp.a(alt_find_dev.o)
 .debug_line    0x000000000000ac5a       0x50 C:/Users/Eldin/Documents/GitHub/Neon3D/FPGA/Software/Neon3DSoftware_bsp/\libucosii_bsp.a(alt_icache_flush_all.o)
 .debug_line    0x000000000000acaa      0x153 C:/Users/Eldin/Documents/GitHub/Neon3D/FPGA/Software/Neon3DSoftware_bsp/\libucosii_bsp.a(alt_io_redirect.o)
 .debug_line    0x000000000000adfd      0x168 C:/Users/Eldin/Documents/GitHub/Neon3D/FPGA/Software/Neon3DSoftware_bsp/\libucosii_bsp.a(alt_irq_register.o)
 .debug_line    0x000000000000af65       0x50 C:/Users/Eldin/Documents/GitHub/Neon3D/FPGA/Software/Neon3DSoftware_bsp/\libucosii_bsp.a(alt_irq_vars.o)
 .debug_line    0x000000000000afb5      0x14d C:/Users/Eldin/Documents/GitHub/Neon3D/FPGA/Software/Neon3DSoftware_bsp/\libucosii_bsp.a(alt_open.o)
 .debug_line    0x000000000000b102       0xd1 C:/Users/Eldin/Documents/GitHub/Neon3D/FPGA/Software/Neon3DSoftware_bsp/\libucosii_bsp.a(alt_release_fd.o)
 .debug_line    0x000000000000b1d3      0x112 C:/Users/Eldin/Documents/GitHub/Neon3D/FPGA/Software/Neon3DSoftware_bsp/\libucosii_bsp.a(alt_tick.o)
 .debug_line    0x000000000000b2e5       0x8d C:/Users/Eldin/Documents/GitHub/Neon3D/FPGA/Software/Neon3DSoftware_bsp/\libucosii_bsp.a(altera_nios2_gen2_irq.o)
 .debug_line    0x000000000000b372       0x86 C:/Users/Eldin/Documents/GitHub/Neon3D/FPGA/Software/Neon3DSoftware_bsp/\libucosii_bsp.a(os_cpu_a.o)
 .debug_line    0x000000000000b3f8      0x1b7 C:/Users/Eldin/Documents/GitHub/Neon3D/FPGA/Software/Neon3DSoftware_bsp/\libucosii_bsp.a(os_cpu_c.o)
 .debug_line    0x000000000000b5af       0xf4 C:/Users/Eldin/Documents/GitHub/Neon3D/FPGA/Software/Neon3DSoftware_bsp/\libucosii_bsp.a(alt_find_file.o)
 .debug_line    0x000000000000b6a3      0x13d C:/Users/Eldin/Documents/GitHub/Neon3D/FPGA/Software/Neon3DSoftware_bsp/\libucosii_bsp.a(alt_get_fd.o)
 .debug_line    0x000000000000b7e0       0x81 C:/Users/Eldin/Documents/GitHub/Neon3D/FPGA/Software/Neon3DSoftware_bsp/\libucosii_bsp.a(alt_icache_flush.o)
 .debug_line    0x000000000000b861       0x6b C:/Users/Eldin/Documents/GitHub/Neon3D/FPGA/Software/Neon3DSoftware_bsp/\libucosii_bsp.a(alt_irq_entry.o)
 .debug_line    0x000000000000b8cc       0xdc C:/Users/Eldin/Documents/GitHub/Neon3D/FPGA/Software/Neon3DSoftware_bsp/\libucosii_bsp.a(alt_irq_handler.o)
 .debug_line    0x000000000000b9a8       0xb3 C:/Users/Eldin/Documents/GitHub/Neon3D/FPGA/Software/Neon3DSoftware_bsp/\libucosii_bsp.a(alt_exception_entry.o)
 .debug_line    0x000000000000ba5b       0xba C:/Users/Eldin/Documents/GitHub/Neon3D/FPGA/Software/Neon3DSoftware_bsp/\libucosii_bsp.a(alt_instruction_exception_entry.o)
 .debug_line    0x000000000000bb15       0xe7 c:/altera_lite/15.1/nios2eds/bin/gnu/h-x86_64-mingw32/bin/../lib/gcc/nios2-elf/4.9.2/../../../../../H-x86_64-mingw32/nios2-elf/lib/mhw-mulx\libc.a(lib_a-atexit.o)
 .debug_line    0x000000000000bbfc      0x1fc c:/altera_lite/15.1/nios2eds/bin/gnu/h-x86_64-mingw32/bin/../lib/gcc/nios2-elf/4.9.2/../../../../../H-x86_64-mingw32/nios2-elf/lib/mhw-mulx\libc.a(lib_a-exit.o)
 .debug_line    0x000000000000bdf8      0x176 c:/altera_lite/15.1/nios2eds/bin/gnu/h-x86_64-mingw32/bin/../lib/gcc/nios2-elf/4.9.2/../../../../../H-x86_64-mingw32/nios2-elf/lib/mhw-mulx\libc.a(lib_a-memcmp.o)
 .debug_line    0x000000000000bf6e      0x225 c:/altera_lite/15.1/nios2eds/bin/gnu/h-x86_64-mingw32/bin/../lib/gcc/nios2-elf/4.9.2/../../../../../H-x86_64-mingw32/nios2-elf/lib/mhw-mulx\libc.a(lib_a-__atexit.o)
 .debug_line    0x000000000000c193      0x241 c:/altera_lite/15.1/nios2eds/bin/gnu/h-x86_64-mingw32/bin/../lib/gcc/nios2-elf/4.9.2/../../../../../H-x86_64-mingw32/nios2-elf/lib/mhw-mulx\libc.a(lib_a-__call_atexit.o)
 .debug_line    0x000000000000c3d4       0xe3 C:/Users/Eldin/Documents/GitHub/Neon3D/FPGA/Software/Neon3DSoftware_bsp/\libucosii_bsp.a(alt_exit.o)

.debug_frame    0x0000000000000000     0x33b0
 *(.debug_frame)
 .debug_frame   0x0000000000000000      0x1f8 obj/default/hello_ucosii.o
 .debug_frame   0x00000000000001f8       0x38 c:/altera_lite/15.1/nios2eds/bin/gnu/h-x86_64-mingw32/bin/../lib/gcc/nios2-elf/4.9.2/../../../../../H-x86_64-mingw32/nios2-elf/lib/mhw-mulx\libm.a(lib_a-s_cos.o)
 .debug_frame   0x0000000000000230       0x38 c:/altera_lite/15.1/nios2eds/bin/gnu/h-x86_64-mingw32/bin/../lib/gcc/nios2-elf/4.9.2/../../../../../H-x86_64-mingw32/nios2-elf/lib/mhw-mulx\libm.a(lib_a-s_sin.o)
 .debug_frame   0x0000000000000268       0x54 c:/altera_lite/15.1/nios2eds/bin/gnu/h-x86_64-mingw32/bin/../lib/gcc/nios2-elf/4.9.2/../../../../../H-x86_64-mingw32/nios2-elf/lib/mhw-mulx\libm.a(lib_a-e_rem_pio2.o)
 .debug_frame   0x00000000000002bc       0x58 c:/altera_lite/15.1/nios2eds/bin/gnu/h-x86_64-mingw32/bin/../lib/gcc/nios2-elf/4.9.2/../../../../../H-x86_64-mingw32/nios2-elf/lib/mhw-mulx\libm.a(lib_a-k_cos.o)
 .debug_frame   0x0000000000000314       0x58 c:/altera_lite/15.1/nios2eds/bin/gnu/h-x86_64-mingw32/bin/../lib/gcc/nios2-elf/4.9.2/../../../../../H-x86_64-mingw32/nios2-elf/lib/mhw-mulx\libm.a(lib_a-k_rem_pio2.o)
 .debug_frame   0x000000000000036c       0x54 c:/altera_lite/15.1/nios2eds/bin/gnu/h-x86_64-mingw32/bin/../lib/gcc/nios2-elf/4.9.2/../../../../../H-x86_64-mingw32/nios2-elf/lib/mhw-mulx\libm.a(lib_a-k_sin.o)
 .debug_frame   0x00000000000003c0       0x20 c:/altera_lite/15.1/nios2eds/bin/gnu/h-x86_64-mingw32/bin/../lib/gcc/nios2-elf/4.9.2/../../../../../H-x86_64-mingw32/nios2-elf/lib/mhw-mulx\libm.a(lib_a-s_fabs.o)
 .debug_frame   0x00000000000003e0       0x48 c:/altera_lite/15.1/nios2eds/bin/gnu/h-x86_64-mingw32/bin/../lib/gcc/nios2-elf/4.9.2/../../../../../H-x86_64-mingw32/nios2-elf/lib/mhw-mulx\libm.a(lib_a-s_floor.o)
 .debug_frame   0x0000000000000428       0x5c c:/altera_lite/15.1/nios2eds/bin/gnu/h-x86_64-mingw32/bin/../lib/gcc/nios2-elf/4.9.2/../../../../../H-x86_64-mingw32/nios2-elf/lib/mhw-mulx\libm.a(lib_a-s_scalbn.o)
 .debug_frame   0x0000000000000484       0x20 c:/altera_lite/15.1/nios2eds/bin/gnu/h-x86_64-mingw32/bin/../lib/gcc/nios2-elf/4.9.2/../../../../../H-x86_64-mingw32/nios2-elf/lib/mhw-mulx\libm.a(lib_a-s_copysign.o)
 .debug_frame   0x00000000000004a4       0x8c c:/altera_lite/15.1/nios2eds/bin/gnu/h-x86_64-mingw32/bin/../lib/gcc/nios2-elf/4.9.2/mhw-mulx\libgcc.a(lib2-divmod.o)
 .debug_frame   0x0000000000000530       0x38 c:/altera_lite/15.1/nios2eds/bin/gnu/h-x86_64-mingw32/bin/../lib/gcc/nios2-elf/4.9.2/mhw-mulx\libgcc.a(floatsisf.o)
 .debug_frame   0x0000000000000568       0x40 c:/altera_lite/15.1/nios2eds/bin/gnu/h-x86_64-mingw32/bin/../lib/gcc/nios2-elf/4.9.2/mhw-mulx\libgcc.a(adddf3.o)
 .debug_frame   0x00000000000005a8       0x58 c:/altera_lite/15.1/nios2eds/bin/gnu/h-x86_64-mingw32/bin/../lib/gcc/nios2-elf/4.9.2/mhw-mulx\libgcc.a(divdf3.o)
 .debug_frame   0x0000000000000600       0x20 c:/altera_lite/15.1/nios2eds/bin/gnu/h-x86_64-mingw32/bin/../lib/gcc/nios2-elf/4.9.2/mhw-mulx\libgcc.a(eqdf2.o)
 .debug_frame   0x0000000000000620       0x20 c:/altera_lite/15.1/nios2eds/bin/gnu/h-x86_64-mingw32/bin/../lib/gcc/nios2-elf/4.9.2/mhw-mulx\libgcc.a(gedf2.o)
 .debug_frame   0x0000000000000640       0x20 c:/altera_lite/15.1/nios2eds/bin/gnu/h-x86_64-mingw32/bin/../lib/gcc/nios2-elf/4.9.2/mhw-mulx\libgcc.a(ledf2.o)
 .debug_frame   0x0000000000000660       0x58 c:/altera_lite/15.1/nios2eds/bin/gnu/h-x86_64-mingw32/bin/../lib/gcc/nios2-elf/4.9.2/mhw-mulx\libgcc.a(muldf3.o)
 .debug_frame   0x00000000000006b8       0x44 c:/altera_lite/15.1/nios2eds/bin/gnu/h-x86_64-mingw32/bin/../lib/gcc/nios2-elf/4.9.2/mhw-mulx\libgcc.a(subdf3.o)
 .debug_frame   0x00000000000006fc       0x20 c:/altera_lite/15.1/nios2eds/bin/gnu/h-x86_64-mingw32/bin/../lib/gcc/nios2-elf/4.9.2/mhw-mulx\libgcc.a(fixdfsi.o)
 .debug_frame   0x000000000000071c       0x38 c:/altera_lite/15.1/nios2eds/bin/gnu/h-x86_64-mingw32/bin/../lib/gcc/nios2-elf/4.9.2/mhw-mulx\libgcc.a(floatsidf.o)
 .debug_frame   0x0000000000000754       0x38 c:/altera_lite/15.1/nios2eds/bin/gnu/h-x86_64-mingw32/bin/../lib/gcc/nios2-elf/4.9.2/mhw-mulx\libgcc.a(extendsfdf2.o)
 .debug_frame   0x000000000000078c       0x20 c:/altera_lite/15.1/nios2eds/bin/gnu/h-x86_64-mingw32/bin/../lib/gcc/nios2-elf/4.9.2/mhw-mulx\libgcc.a(_clzsi2.o)
 .debug_frame   0x00000000000007ac       0x30 c:/altera_lite/15.1/nios2eds/bin/gnu/h-x86_64-mingw32/bin/../lib/gcc/nios2-elf/4.9.2/../../../../../H-x86_64-mingw32/nios2-elf/lib/mhw-mulx\libc.a(lib_a-memcpy.o)
 .debug_frame   0x00000000000007dc       0x48 c:/altera_lite/15.1/nios2eds/bin/gnu/h-x86_64-mingw32/bin/../lib/gcc/nios2-elf/4.9.2/../../../../../H-x86_64-mingw32/nios2-elf/lib/mhw-mulx\libc.a(lib_a-sprintf.o)
 .debug_frame   0x0000000000000824       0x58 c:/altera_lite/15.1/nios2eds/bin/gnu/h-x86_64-mingw32/bin/../lib/gcc/nios2-elf/4.9.2/../../../../../H-x86_64-mingw32/nios2-elf/lib/mhw-mulx\libc.a(lib_a-svfprintf.o)
 .debug_frame   0x000000000000087c       0x98 c:/altera_lite/15.1/nios2eds/bin/gnu/h-x86_64-mingw32/bin/../lib/gcc/nios2-elf/4.9.2/../../../../../H-x86_64-mingw32/nios2-elf/lib/mhw-mulx\libc.a(lib_a-dtoa.o)
 .debug_frame   0x0000000000000914       0xa8 c:/altera_lite/15.1/nios2eds/bin/gnu/h-x86_64-mingw32/bin/../lib/gcc/nios2-elf/4.9.2/../../../../../H-x86_64-mingw32/nios2-elf/lib/mhw-mulx\libc.a(lib_a-locale.o)
 .debug_frame   0x00000000000009bc       0x54 c:/altera_lite/15.1/nios2eds/bin/gnu/h-x86_64-mingw32/bin/../lib/gcc/nios2-elf/4.9.2/../../../../../H-x86_64-mingw32/nios2-elf/lib/mhw-mulx\libc.a(lib_a-mallocr.o)
 .debug_frame   0x0000000000000a10       0x20 c:/altera_lite/15.1/nios2eds/bin/gnu/h-x86_64-mingw32/bin/../lib/gcc/nios2-elf/4.9.2/../../../../../H-x86_64-mingw32/nios2-elf/lib/mhw-mulx\libc.a(lib_a-memchr.o)
 .debug_frame   0x0000000000000a30      0x2e8 c:/altera_lite/15.1/nios2eds/bin/gnu/h-x86_64-mingw32/bin/../lib/gcc/nios2-elf/4.9.2/../../../../../H-x86_64-mingw32/nios2-elf/lib/mhw-mulx\libc.a(lib_a-mprec.o)
 .debug_frame   0x0000000000000d18       0x20 c:/altera_lite/15.1/nios2eds/bin/gnu/h-x86_64-mingw32/bin/../lib/gcc/nios2-elf/4.9.2/../../../../../H-x86_64-mingw32/nios2-elf/lib/mhw-mulx\libc.a(lib_a-s_fpclassify.o)
 .debug_frame   0x0000000000000d38       0x38 c:/altera_lite/15.1/nios2eds/bin/gnu/h-x86_64-mingw32/bin/../lib/gcc/nios2-elf/4.9.2/../../../../../H-x86_64-mingw32/nios2-elf/lib/mhw-mulx\libc.a(lib_a-sbrkr.o)
 .debug_frame   0x0000000000000d70       0x20 c:/altera_lite/15.1/nios2eds/bin/gnu/h-x86_64-mingw32/bin/../lib/gcc/nios2-elf/4.9.2/../../../../../H-x86_64-mingw32/nios2-elf/lib/mhw-mulx\libc.a(lib_a-strcmp.o)
 .debug_frame   0x0000000000000d90       0x20 c:/altera_lite/15.1/nios2eds/bin/gnu/h-x86_64-mingw32/bin/../lib/gcc/nios2-elf/4.9.2/../../../../../H-x86_64-mingw32/nios2-elf/lib/mhw-mulx\libc.a(lib_a-strlen.o)
 .debug_frame   0x0000000000000db0       0x9c c:/altera_lite/15.1/nios2eds/bin/gnu/h-x86_64-mingw32/bin/../lib/gcc/nios2-elf/4.9.2/../../../../../H-x86_64-mingw32/nios2-elf/lib/mhw-mulx\libc.a(lib_a-svfiprintf.o)
 .debug_frame   0x0000000000000e4c       0x40 c:/altera_lite/15.1/nios2eds/bin/gnu/h-x86_64-mingw32/bin/../lib/gcc/nios2-elf/4.9.2/../../../../../H-x86_64-mingw32/nios2-elf/lib/mhw-mulx\libc.a(lib_a-callocr.o)
 .debug_frame   0x0000000000000e8c       0x70 c:/altera_lite/15.1/nios2eds/bin/gnu/h-x86_64-mingw32/bin/../lib/gcc/nios2-elf/4.9.2/../../../../../H-x86_64-mingw32/nios2-elf/lib/mhw-mulx\libc.a(lib_a-freer.o)
 .debug_frame   0x0000000000000efc       0x20 c:/altera_lite/15.1/nios2eds/bin/gnu/h-x86_64-mingw32/bin/../lib/gcc/nios2-elf/4.9.2/../../../../../H-x86_64-mingw32/nios2-elf/lib/mhw-mulx\libc.a(lib_a-memmove.o)
 .debug_frame   0x0000000000000f1c       0x20 c:/altera_lite/15.1/nios2eds/bin/gnu/h-x86_64-mingw32/bin/../lib/gcc/nios2-elf/4.9.2/../../../../../H-x86_64-mingw32/nios2-elf/lib/mhw-mulx\libc.a(lib_a-memset.o)
 .debug_frame   0x0000000000000f3c       0x70 c:/altera_lite/15.1/nios2eds/bin/gnu/h-x86_64-mingw32/bin/../lib/gcc/nios2-elf/4.9.2/../../../../../H-x86_64-mingw32/nios2-elf/lib/mhw-mulx\libc.a(lib_a-reallocr.o)
 .debug_frame   0x0000000000000fac       0x54 c:/altera_lite/15.1/nios2eds/bin/gnu/h-x86_64-mingw32/bin/../lib/gcc/nios2-elf/4.9.2/mhw-mulx\libgcc.a(_udivdi3.o)
 .debug_frame   0x0000000000001000       0x54 c:/altera_lite/15.1/nios2eds/bin/gnu/h-x86_64-mingw32/bin/../lib/gcc/nios2-elf/4.9.2/mhw-mulx\libgcc.a(_umoddi3.o)
 .debug_frame   0x0000000000001054       0x34 c:/altera_lite/15.1/nios2eds/bin/gnu/h-x86_64-mingw32/bin/../lib/gcc/nios2-elf/4.9.2/mhw-mulx\libgcc.a(floatunsidf.o)
 .debug_frame   0x0000000000001088       0x5c C:/Users/Eldin/Documents/GitHub/Neon3D/FPGA/Software/Neon3DSoftware_bsp/\libucosii_bsp.a(alt_load.o)
 .debug_frame   0x00000000000010e4       0x2c C:/Users/Eldin/Documents/GitHub/Neon3D/FPGA/Software/Neon3DSoftware_bsp/\libucosii_bsp.a(alt_main.o)
 .debug_frame   0x0000000000001110       0x34 C:/Users/Eldin/Documents/GitHub/Neon3D/FPGA/Software/Neon3DSoftware_bsp/\libucosii_bsp.a(alt_sbrk.o)
 .debug_frame   0x0000000000001144       0x60 C:/Users/Eldin/Documents/GitHub/Neon3D/FPGA/Software/Neon3DSoftware_bsp/\libucosii_bsp.a(alt_env_lock.o)
 .debug_frame   0x00000000000011a4       0x64 C:/Users/Eldin/Documents/GitHub/Neon3D/FPGA/Software/Neon3DSoftware_bsp/\libucosii_bsp.a(alt_malloc_lock.o)
 .debug_frame   0x0000000000001208      0x534 C:/Users/Eldin/Documents/GitHub/Neon3D/FPGA/Software/Neon3DSoftware_bsp/\libucosii_bsp.a(os_core.o)
 .debug_frame   0x000000000000173c       0x34 C:/Users/Eldin/Documents/GitHub/Neon3D/FPGA/Software/Neon3DSoftware_bsp/\libucosii_bsp.a(os_dbg.o)
 .debug_frame   0x0000000000001770      0x200 C:/Users/Eldin/Documents/GitHub/Neon3D/FPGA/Software/Neon3DSoftware_bsp/\libucosii_bsp.a(os_flag.o)
 .debug_frame   0x0000000000001970      0x118 C:/Users/Eldin/Documents/GitHub/Neon3D/FPGA/Software/Neon3DSoftware_bsp/\libucosii_bsp.a(os_mem.o)
 .debug_frame   0x0000000000001a88      0x1bc C:/Users/Eldin/Documents/GitHub/Neon3D/FPGA/Software/Neon3DSoftware_bsp/\libucosii_bsp.a(os_q.o)
 .debug_frame   0x0000000000001c44      0x144 C:/Users/Eldin/Documents/GitHub/Neon3D/FPGA/Software/Neon3DSoftware_bsp/\libucosii_bsp.a(os_sem.o)
 .debug_frame   0x0000000000001d88      0x1e4 C:/Users/Eldin/Documents/GitHub/Neon3D/FPGA/Software/Neon3DSoftware_bsp/\libucosii_bsp.a(os_task.o)
 .debug_frame   0x0000000000001f6c       0xd0 C:/Users/Eldin/Documents/GitHub/Neon3D/FPGA/Software/Neon3DSoftware_bsp/\libucosii_bsp.a(os_time.o)
 .debug_frame   0x000000000000203c       0x88 C:/Users/Eldin/Documents/GitHub/Neon3D/FPGA/Software/Neon3DSoftware_bsp/\libucosii_bsp.a(alt_sys_init.o)
 .debug_frame   0x00000000000020c4       0xb0 C:/Users/Eldin/Documents/GitHub/Neon3D/FPGA/Software/Neon3DSoftware_bsp/\libucosii_bsp.a(altera_avalon_jtag_uart_fd.o)
 .debug_frame   0x0000000000002174       0xac C:/Users/Eldin/Documents/GitHub/Neon3D/FPGA/Software/Neon3DSoftware_bsp/\libucosii_bsp.a(altera_avalon_jtag_uart_init.o)
 .debug_frame   0x0000000000002220       0x34 C:/Users/Eldin/Documents/GitHub/Neon3D/FPGA/Software/Neon3DSoftware_bsp/\libucosii_bsp.a(altera_avalon_jtag_uart_ioctl.o)
 .debug_frame   0x0000000000002254       0x38 C:/Users/Eldin/Documents/GitHub/Neon3D/FPGA/Software/Neon3DSoftware_bsp/\libucosii_bsp.a(altera_avalon_jtag_uart_read.o)
 .debug_frame   0x000000000000228c       0x38 C:/Users/Eldin/Documents/GitHub/Neon3D/FPGA/Software/Neon3DSoftware_bsp/\libucosii_bsp.a(altera_avalon_jtag_uart_write.o)
 .debug_frame   0x00000000000022c4       0x60 C:/Users/Eldin/Documents/GitHub/Neon3D/FPGA/Software/Neon3DSoftware_bsp/\libucosii_bsp.a(altera_avalon_timer_sc.o)
 .debug_frame   0x0000000000002324      0x204 C:/Users/Eldin/Documents/GitHub/Neon3D/FPGA/Software/Neon3DSoftware_bsp/\libucosii_bsp.a(altera_up_avalon_character_lcd.o)
 .debug_frame   0x0000000000002528      0x188 C:/Users/Eldin/Documents/GitHub/Neon3D/FPGA/Software/Neon3DSoftware_bsp/\libucosii_bsp.a(altera_up_avalon_irda.o)
 .debug_frame   0x00000000000026b0      0x2c0 C:/Users/Eldin/Documents/GitHub/Neon3D/FPGA/Software/Neon3DSoftware_bsp/\libucosii_bsp.a(altera_up_avalon_ps2.o)
 .debug_frame   0x0000000000002970      0x188 C:/Users/Eldin/Documents/GitHub/Neon3D/FPGA/Software/Neon3DSoftware_bsp/\libucosii_bsp.a(altera_up_avalon_rs232.o)
 .debug_frame   0x0000000000002af8       0xcc C:/Users/Eldin/Documents/GitHub/Neon3D/FPGA/Software/Neon3DSoftware_bsp/\libucosii_bsp.a(altera_up_avalon_video_character_buffer_with_dma.o)
 .debug_frame   0x0000000000002bc4       0x34 C:/Users/Eldin/Documents/GitHub/Neon3D/FPGA/Software/Neon3DSoftware_bsp/\libucosii_bsp.a(alt_alarm_start.o)
 .debug_frame   0x0000000000002bf8       0x60 C:/Users/Eldin/Documents/GitHub/Neon3D/FPGA/Software/Neon3DSoftware_bsp/\libucosii_bsp.a(alt_close.o)
 .debug_frame   0x0000000000002c58       0x34 C:/Users/Eldin/Documents/GitHub/Neon3D/FPGA/Software/Neon3DSoftware_bsp/\libucosii_bsp.a(alt_dcache_flush_all.o)
 .debug_frame   0x0000000000002c8c       0x34 C:/Users/Eldin/Documents/GitHub/Neon3D/FPGA/Software/Neon3DSoftware_bsp/\libucosii_bsp.a(alt_dev.o)
 .debug_frame   0x0000000000002cc0       0x60 C:/Users/Eldin/Documents/GitHub/Neon3D/FPGA/Software/Neon3DSoftware_bsp/\libucosii_bsp.a(alt_dev_llist_insert.o)
 .debug_frame   0x0000000000002d20       0x38 C:/Users/Eldin/Documents/GitHub/Neon3D/FPGA/Software/Neon3DSoftware_bsp/\libucosii_bsp.a(alt_do_ctors.o)
 .debug_frame   0x0000000000002d58       0x38 C:/Users/Eldin/Documents/GitHub/Neon3D/FPGA/Software/Neon3DSoftware_bsp/\libucosii_bsp.a(alt_do_dtors.o)
 .debug_frame   0x0000000000002d90       0x38 C:/Users/Eldin/Documents/GitHub/Neon3D/FPGA/Software/Neon3DSoftware_bsp/\libucosii_bsp.a(alt_find_dev.o)
 .debug_frame   0x0000000000002dc8       0x38 C:/Users/Eldin/Documents/GitHub/Neon3D/FPGA/Software/Neon3DSoftware_bsp/\libucosii_bsp.a(alt_icache_flush_all.o)
 .debug_frame   0x0000000000002e00       0x60 C:/Users/Eldin/Documents/GitHub/Neon3D/FPGA/Software/Neon3DSoftware_bsp/\libucosii_bsp.a(alt_io_redirect.o)
 .debug_frame   0x0000000000002e60       0x34 C:/Users/Eldin/Documents/GitHub/Neon3D/FPGA/Software/Neon3DSoftware_bsp/\libucosii_bsp.a(alt_irq_register.o)
 .debug_frame   0x0000000000002e94       0x84 C:/Users/Eldin/Documents/GitHub/Neon3D/FPGA/Software/Neon3DSoftware_bsp/\libucosii_bsp.a(alt_open.o)
 .debug_frame   0x0000000000002f18       0x34 C:/Users/Eldin/Documents/GitHub/Neon3D/FPGA/Software/Neon3DSoftware_bsp/\libucosii_bsp.a(alt_release_fd.o)
 .debug_frame   0x0000000000002f4c       0x5c C:/Users/Eldin/Documents/GitHub/Neon3D/FPGA/Software/Neon3DSoftware_bsp/\libucosii_bsp.a(alt_tick.o)
 .debug_frame   0x0000000000002fa8       0x34 C:/Users/Eldin/Documents/GitHub/Neon3D/FPGA/Software/Neon3DSoftware_bsp/\libucosii_bsp.a(altera_nios2_gen2_irq.o)
 .debug_frame   0x0000000000002fdc      0x17c C:/Users/Eldin/Documents/GitHub/Neon3D/FPGA/Software/Neon3DSoftware_bsp/\libucosii_bsp.a(os_cpu_c.o)
 .debug_frame   0x0000000000003158       0x38 C:/Users/Eldin/Documents/GitHub/Neon3D/FPGA/Software/Neon3DSoftware_bsp/\libucosii_bsp.a(alt_find_file.o)
 .debug_frame   0x0000000000003190       0x38 C:/Users/Eldin/Documents/GitHub/Neon3D/FPGA/Software/Neon3DSoftware_bsp/\libucosii_bsp.a(alt_get_fd.o)
 .debug_frame   0x00000000000031c8       0x34 C:/Users/Eldin/Documents/GitHub/Neon3D/FPGA/Software/Neon3DSoftware_bsp/\libucosii_bsp.a(alt_icache_flush.o)
 .debug_frame   0x00000000000031fc       0x38 C:/Users/Eldin/Documents/GitHub/Neon3D/FPGA/Software/Neon3DSoftware_bsp/\libucosii_bsp.a(alt_irq_handler.o)
 .debug_frame   0x0000000000003234       0x5c C:/Users/Eldin/Documents/GitHub/Neon3D/FPGA/Software/Neon3DSoftware_bsp/\libucosii_bsp.a(alt_instruction_exception_entry.o)
 .debug_frame   0x0000000000003290       0x20 c:/altera_lite/15.1/nios2eds/bin/gnu/h-x86_64-mingw32/bin/../lib/gcc/nios2-elf/4.9.2/../../../../../H-x86_64-mingw32/nios2-elf/lib/mhw-mulx\libc.a(lib_a-atexit.o)
 .debug_frame   0x00000000000032b0       0x28 c:/altera_lite/15.1/nios2eds/bin/gnu/h-x86_64-mingw32/bin/../lib/gcc/nios2-elf/4.9.2/../../../../../H-x86_64-mingw32/nios2-elf/lib/mhw-mulx\libc.a(lib_a-exit.o)
 .debug_frame   0x00000000000032d8       0x20 c:/altera_lite/15.1/nios2eds/bin/gnu/h-x86_64-mingw32/bin/../lib/gcc/nios2-elf/4.9.2/../../../../../H-x86_64-mingw32/nios2-elf/lib/mhw-mulx\libc.a(lib_a-memcmp.o)
 .debug_frame   0x00000000000032f8       0x38 c:/altera_lite/15.1/nios2eds/bin/gnu/h-x86_64-mingw32/bin/../lib/gcc/nios2-elf/4.9.2/../../../../../H-x86_64-mingw32/nios2-elf/lib/mhw-mulx\libc.a(lib_a-__atexit.o)
 .debug_frame   0x0000000000003330       0x54 c:/altera_lite/15.1/nios2eds/bin/gnu/h-x86_64-mingw32/bin/../lib/gcc/nios2-elf/4.9.2/../../../../../H-x86_64-mingw32/nios2-elf/lib/mhw-mulx\libc.a(lib_a-__call_atexit.o)
 .debug_frame   0x0000000000003384       0x2c C:/Users/Eldin/Documents/GitHub/Neon3D/FPGA/Software/Neon3DSoftware_bsp/\libucosii_bsp.a(alt_exit.o)

.debug_str      0x0000000000000000     0x51ce
 *(.debug_str)
 .debug_str     0x0000000000000000      0x43b obj/default/hello_ucosii.o
                                        0x4b4 (size before relaxing)
 .debug_str     0x000000000000043b      0x164 c:/altera_lite/15.1/nios2eds/bin/gnu/h-x86_64-mingw32/bin/../lib/gcc/nios2-elf/4.9.2/../../../../../H-x86_64-mingw32/nios2-elf/lib/mhw-mulx\libm.a(lib_a-s_cos.o)
                                        0x20f (size before relaxing)
 .debug_str     0x000000000000059f       0x3a c:/altera_lite/15.1/nios2eds/bin/gnu/h-x86_64-mingw32/bin/../lib/gcc/nios2-elf/4.9.2/../../../../../H-x86_64-mingw32/nios2-elf/lib/mhw-mulx\libm.a(lib_a-s_sin.o)
                                        0x20f (size before relaxing)
 .debug_str     0x00000000000005d9       0xe2 c:/altera_lite/15.1/nios2eds/bin/gnu/h-x86_64-mingw32/bin/../lib/gcc/nios2-elf/4.9.2/../../../../../H-x86_64-mingw32/nios2-elf/lib/mhw-mulx\libm.a(lib_a-e_rem_pio2.o)
                                        0x2a3 (size before relaxing)
 .debug_str     0x00000000000006bb       0x3f c:/altera_lite/15.1/nios2eds/bin/gnu/h-x86_64-mingw32/bin/../lib/gcc/nios2-elf/4.9.2/../../../../../H-x86_64-mingw32/nios2-elf/lib/mhw-mulx\libm.a(lib_a-k_cos.o)
                                        0x222 (size before relaxing)
 .debug_str     0x00000000000006fa       0x76 c:/altera_lite/15.1/nios2eds/bin/gnu/h-x86_64-mingw32/bin/../lib/gcc/nios2-elf/4.9.2/../../../../../H-x86_64-mingw32/nios2-elf/lib/mhw-mulx\libm.a(lib_a-k_rem_pio2.o)
                                        0x240 (size before relaxing)
 .debug_str     0x0000000000000770       0x3a c:/altera_lite/15.1/nios2eds/bin/gnu/h-x86_64-mingw32/bin/../lib/gcc/nios2-elf/4.9.2/../../../../../H-x86_64-mingw32/nios2-elf/lib/mhw-mulx\libm.a(lib_a-k_sin.o)
                                        0x1f4 (size before relaxing)
 .debug_str     0x00000000000007aa       0x3b c:/altera_lite/15.1/nios2eds/bin/gnu/h-x86_64-mingw32/bin/../lib/gcc/nios2-elf/4.9.2/../../../../../H-x86_64-mingw32/nios2-elf/lib/mhw-mulx\libm.a(lib_a-s_fabs.o)
                                        0x1ee (size before relaxing)
 .debug_str     0x00000000000007e5       0x46 c:/altera_lite/15.1/nios2eds/bin/gnu/h-x86_64-mingw32/bin/../lib/gcc/nios2-elf/4.9.2/../../../../../H-x86_64-mingw32/nios2-elf/lib/mhw-mulx\libm.a(lib_a-s_floor.o)
                                        0x222 (size before relaxing)
 .debug_str     0x000000000000082b       0xe7 c:/altera_lite/15.1/nios2eds/bin/gnu/h-x86_64-mingw32/bin/../lib/gcc/nios2-elf/4.9.2/../../../../../H-x86_64-mingw32/nios2-elf/lib/mhw-mulx\libm.a(lib_a-s_scalbn.o)
                                        0x248 (size before relaxing)
 .debug_str     0x0000000000000912       0x41 c:/altera_lite/15.1/nios2eds/bin/gnu/h-x86_64-mingw32/bin/../lib/gcc/nios2-elf/4.9.2/../../../../../H-x86_64-mingw32/nios2-elf/lib/mhw-mulx\libm.a(lib_a-s_copysign.o)
                                        0x21d (size before relaxing)
 .debug_str     0x0000000000000953      0x181 c:/altera_lite/15.1/nios2eds/bin/gnu/h-x86_64-mingw32/bin/../lib/gcc/nios2-elf/4.9.2/mhw-mulx\libgcc.a(lib2-divmod.o)
                                        0x1cc (size before relaxing)
 .debug_str     0x0000000000000ad4       0x87 c:/altera_lite/15.1/nios2eds/bin/gnu/h-x86_64-mingw32/bin/../lib/gcc/nios2-elf/4.9.2/mhw-mulx\libgcc.a(floatsisf.o)
                                        0x21a (size before relaxing)
 .debug_str     0x0000000000000b5b       0xac c:/altera_lite/15.1/nios2eds/bin/gnu/h-x86_64-mingw32/bin/../lib/gcc/nios2-elf/4.9.2/mhw-mulx\libgcc.a(adddf3.o)
                                        0x25e (size before relaxing)
 .debug_str     0x0000000000000c07       0xd3 c:/altera_lite/15.1/nios2eds/bin/gnu/h-x86_64-mingw32/bin/../lib/gcc/nios2-elf/4.9.2/mhw-mulx\libgcc.a(divdf3.o)
                                        0x29f (size before relaxing)
 .debug_str     0x0000000000000cda       0x37 c:/altera_lite/15.1/nios2eds/bin/gnu/h-x86_64-mingw32/bin/../lib/gcc/nios2-elf/4.9.2/mhw-mulx\libgcc.a(eqdf2.o)
                                        0x1f9 (size before relaxing)
 .debug_str     0x0000000000000d11       0x4f c:/altera_lite/15.1/nios2eds/bin/gnu/h-x86_64-mingw32/bin/../lib/gcc/nios2-elf/4.9.2/mhw-mulx\libgcc.a(gedf2.o)
                                        0x211 (size before relaxing)
 .debug_str     0x0000000000000d60       0x37 c:/altera_lite/15.1/nios2eds/bin/gnu/h-x86_64-mingw32/bin/../lib/gcc/nios2-elf/4.9.2/mhw-mulx\libgcc.a(ledf2.o)
                                        0x211 (size before relaxing)
 .debug_str     0x0000000000000d97       0x90 c:/altera_lite/15.1/nios2eds/bin/gnu/h-x86_64-mingw32/bin/../lib/gcc/nios2-elf/4.9.2/mhw-mulx\libgcc.a(muldf3.o)
                                        0x2b7 (size before relaxing)
 .debug_str     0x0000000000000e27       0x39 c:/altera_lite/15.1/nios2eds/bin/gnu/h-x86_64-mingw32/bin/../lib/gcc/nios2-elf/4.9.2/mhw-mulx\libgcc.a(subdf3.o)
                                        0x25e (size before relaxing)
 .debug_str     0x0000000000000e60       0x43 c:/altera_lite/15.1/nios2eds/bin/gnu/h-x86_64-mingw32/bin/../lib/gcc/nios2-elf/4.9.2/mhw-mulx\libgcc.a(fixdfsi.o)
                                        0x20a (size before relaxing)
 .debug_str     0x0000000000000ea3       0x3f c:/altera_lite/15.1/nios2eds/bin/gnu/h-x86_64-mingw32/bin/../lib/gcc/nios2-elf/4.9.2/mhw-mulx\libgcc.a(floatsidf.o)
                                        0x20e (size before relaxing)
 .debug_str     0x0000000000000ee2       0x43 c:/altera_lite/15.1/nios2eds/bin/gnu/h-x86_64-mingw32/bin/../lib/gcc/nios2-elf/4.9.2/mhw-mulx\libgcc.a(extendsfdf2.o)
                                        0x219 (size before relaxing)
 .debug_str     0x0000000000000f25       0x66 c:/altera_lite/15.1/nios2eds/bin/gnu/h-x86_64-mingw32/bin/../lib/gcc/nios2-elf/4.9.2/mhw-mulx\libgcc.a(_clzsi2.o)
                                        0x1ee (size before relaxing)
 .debug_str     0x0000000000000000      0x1d1 c:/altera_lite/15.1/nios2eds/bin/gnu/h-x86_64-mingw32/bin/../lib/gcc/nios2-elf/4.9.2/mhw-mulx\libgcc.a(_clz.o)
 .debug_str     0x0000000000000f8b       0xff c:/altera_lite/15.1/nios2eds/bin/gnu/h-x86_64-mingw32/bin/../lib/gcc/nios2-elf/4.9.2/../../../../../H-x86_64-mingw32/nios2-elf/lib/mhw-mulx\libc.a(lib_a-memcpy.o)
                                        0x1f9 (size before relaxing)
 .debug_str     0x000000000000108a      0x459 c:/altera_lite/15.1/nios2eds/bin/gnu/h-x86_64-mingw32/bin/../lib/gcc/nios2-elf/4.9.2/../../../../../H-x86_64-mingw32/nios2-elf/lib/mhw-mulx\libc.a(lib_a-sprintf.o)
                                        0x5de (size before relaxing)
 .debug_str     0x00000000000014e3      0x332 c:/altera_lite/15.1/nios2eds/bin/gnu/h-x86_64-mingw32/bin/../lib/gcc/nios2-elf/4.9.2/../../../../../H-x86_64-mingw32/nios2-elf/lib/mhw-mulx\libc.a(lib_a-svfprintf.o)
                                        0x93b (size before relaxing)
 .debug_str     0x0000000000001815      0x1e0 c:/altera_lite/15.1/nios2eds/bin/gnu/h-x86_64-mingw32/bin/../lib/gcc/nios2-elf/4.9.2/../../../../../H-x86_64-mingw32/nios2-elf/lib/mhw-mulx\libc.a(lib_a-dtoa.o)
                                        0x6f5 (size before relaxing)
 .debug_str     0x00000000000019f5       0xe7 c:/altera_lite/15.1/nios2eds/bin/gnu/h-x86_64-mingw32/bin/../lib/gcc/nios2-elf/4.9.2/../../../../../H-x86_64-mingw32/nios2-elf/lib/mhw-mulx\libc.a(lib_a-impure.o)
                                        0x5a3 (size before relaxing)
 .debug_str     0x0000000000001adc      0x1b1 c:/altera_lite/15.1/nios2eds/bin/gnu/h-x86_64-mingw32/bin/../lib/gcc/nios2-elf/4.9.2/../../../../../H-x86_64-mingw32/nios2-elf/lib/mhw-mulx\libc.a(lib_a-locale.o)
                                        0x800 (size before relaxing)
 .debug_str     0x0000000000001c8d      0x23e c:/altera_lite/15.1/nios2eds/bin/gnu/h-x86_64-mingw32/bin/../lib/gcc/nios2-elf/4.9.2/../../../../../H-x86_64-mingw32/nios2-elf/lib/mhw-mulx\libc.a(lib_a-mallocr.o)
                                        0x7b2 (size before relaxing)
 .debug_str     0x0000000000001ecb       0x4b c:/altera_lite/15.1/nios2eds/bin/gnu/h-x86_64-mingw32/bin/../lib/gcc/nios2-elf/4.9.2/../../../../../H-x86_64-mingw32/nios2-elf/lib/mhw-mulx\libc.a(lib_a-memchr.o)
                                        0x1ec (size before relaxing)
 .debug_str     0x0000000000001f16       0xa7 c:/altera_lite/15.1/nios2eds/bin/gnu/h-x86_64-mingw32/bin/../lib/gcc/nios2-elf/4.9.2/../../../../../H-x86_64-mingw32/nios2-elf/lib/mhw-mulx\libc.a(lib_a-mprec.o)
                                        0x6af (size before relaxing)
 .debug_str     0x0000000000001fbd       0x43 c:/altera_lite/15.1/nios2eds/bin/gnu/h-x86_64-mingw32/bin/../lib/gcc/nios2-elf/4.9.2/../../../../../H-x86_64-mingw32/nios2-elf/lib/mhw-mulx\libc.a(lib_a-s_fpclassify.o)
                                        0x1fc (size before relaxing)
 .debug_str     0x0000000000002000       0x45 c:/altera_lite/15.1/nios2eds/bin/gnu/h-x86_64-mingw32/bin/../lib/gcc/nios2-elf/4.9.2/../../../../../H-x86_64-mingw32/nios2-elf/lib/mhw-mulx\libc.a(lib_a-sbrkr.o)
                                        0x599 (size before relaxing)
 .debug_str     0x0000000000002045       0x3d c:/altera_lite/15.1/nios2eds/bin/gnu/h-x86_64-mingw32/bin/../lib/gcc/nios2-elf/4.9.2/../../../../../H-x86_64-mingw32/nios2-elf/lib/mhw-mulx\libc.a(lib_a-strcmp.o)
                                        0x1cb (size before relaxing)
 .debug_str     0x0000000000002082       0x4a c:/altera_lite/15.1/nios2eds/bin/gnu/h-x86_64-mingw32/bin/../lib/gcc/nios2-elf/4.9.2/../../../../../H-x86_64-mingw32/nios2-elf/lib/mhw-mulx\libc.a(lib_a-strlen.o)
                                        0x1e5 (size before relaxing)
 .debug_str     0x00000000000020cc       0x3b c:/altera_lite/15.1/nios2eds/bin/gnu/h-x86_64-mingw32/bin/../lib/gcc/nios2-elf/4.9.2/../../../../../H-x86_64-mingw32/nios2-elf/lib/mhw-mulx\libc.a(lib_a-svfiprintf.o)
                                        0x73e (size before relaxing)
 .debug_str     0x0000000000002107       0x16 c:/altera_lite/15.1/nios2eds/bin/gnu/h-x86_64-mingw32/bin/../lib/gcc/nios2-elf/4.9.2/../../../../../H-x86_64-mingw32/nios2-elf/lib/mhw-mulx\libc.a(lib_a-callocr.o)
                                        0x5dc (size before relaxing)
 .debug_str     0x000000000000211d       0x34 c:/altera_lite/15.1/nios2eds/bin/gnu/h-x86_64-mingw32/bin/../lib/gcc/nios2-elf/4.9.2/../../../../../H-x86_64-mingw32/nios2-elf/lib/mhw-mulx\libc.a(lib_a-freer.o)
                                        0x6fc (size before relaxing)
 .debug_str     0x0000000000002151       0x3f c:/altera_lite/15.1/nios2eds/bin/gnu/h-x86_64-mingw32/bin/../lib/gcc/nios2-elf/4.9.2/../../../../../H-x86_64-mingw32/nios2-elf/lib/mhw-mulx\libc.a(lib_a-int_errno.o)
                                        0x1cb (size before relaxing)
 .debug_str     0x0000000000002190       0x47 c:/altera_lite/15.1/nios2eds/bin/gnu/h-x86_64-mingw32/bin/../lib/gcc/nios2-elf/4.9.2/../../../../../H-x86_64-mingw32/nios2-elf/lib/mhw-mulx\libc.a(lib_a-memmove.o)
                                        0x205 (size before relaxing)
 .debug_str     0x00000000000021d7       0x3d c:/altera_lite/15.1/nios2eds/bin/gnu/h-x86_64-mingw32/bin/../lib/gcc/nios2-elf/4.9.2/../../../../../H-x86_64-mingw32/nios2-elf/lib/mhw-mulx\libc.a(lib_a-memset.o)
                                        0x1e6 (size before relaxing)
 .debug_str     0x0000000000002214       0x49 c:/altera_lite/15.1/nios2eds/bin/gnu/h-x86_64-mingw32/bin/../lib/gcc/nios2-elf/4.9.2/../../../../../H-x86_64-mingw32/nios2-elf/lib/mhw-mulx\libc.a(lib_a-reallocr.o)
                                        0x684 (size before relaxing)
 .debug_str     0x000000000000225d       0xcf c:/altera_lite/15.1/nios2eds/bin/gnu/h-x86_64-mingw32/bin/../lib/gcc/nios2-elf/4.9.2/mhw-mulx\libgcc.a(_udivdi3.o)
                                        0x28a (size before relaxing)
 .debug_str     0x000000000000232c        0xa c:/altera_lite/15.1/nios2eds/bin/gnu/h-x86_64-mingw32/bin/../lib/gcc/nios2-elf/4.9.2/mhw-mulx\libgcc.a(_umoddi3.o)
                                        0x28a (size before relaxing)
 .debug_str     0x0000000000002336       0x43 c:/altera_lite/15.1/nios2eds/bin/gnu/h-x86_64-mingw32/bin/../lib/gcc/nios2-elf/4.9.2/mhw-mulx\libgcc.a(floatunsidf.o)
                                        0x20b (size before relaxing)
 .debug_str     0x0000000000002379      0x131 C:/Users/Eldin/Documents/GitHub/Neon3D/FPGA/Software/Neon3DSoftware_bsp/\libucosii_bsp.a(alt_load.o)
                                        0x210 (size before relaxing)
 .debug_str     0x00000000000024aa       0xd1 C:/Users/Eldin/Documents/GitHub/Neon3D/FPGA/Software/Neon3DSoftware_bsp/\libucosii_bsp.a(alt_main.o)
                                        0x27f (size before relaxing)
 .debug_str     0x000000000000257b       0x98 C:/Users/Eldin/Documents/GitHub/Neon3D/FPGA/Software/Neon3DSoftware_bsp/\libucosii_bsp.a(alt_sbrk.o)
                                        0x1fb (size before relaxing)
 .debug_str     0x0000000000002613      0x24d C:/Users/Eldin/Documents/GitHub/Neon3D/FPGA/Software/Neon3DSoftware_bsp/\libucosii_bsp.a(alt_env_lock.o)
                                        0x7e7 (size before relaxing)
 .debug_str     0x0000000000002860       0x36 C:/Users/Eldin/Documents/GitHub/Neon3D/FPGA/Software/Neon3DSoftware_bsp/\libucosii_bsp.a(alt_malloc_lock.o)
                                        0x849 (size before relaxing)
 .debug_str     0x0000000000002896      0x536 C:/Users/Eldin/Documents/GitHub/Neon3D/FPGA/Software/Neon3DSoftware_bsp/\libucosii_bsp.a(os_core.o)
                                        0x975 (size before relaxing)
 .debug_str     0x0000000000002dcc      0x2e5 C:/Users/Eldin/Documents/GitHub/Neon3D/FPGA/Software/Neon3DSoftware_bsp/\libucosii_bsp.a(os_dbg.o)
                                        0x8e4 (size before relaxing)
 .debug_str     0x00000000000030b1      0x136 C:/Users/Eldin/Documents/GitHub/Neon3D/FPGA/Software/Neon3DSoftware_bsp/\libucosii_bsp.a(os_flag.o)
                                        0x611 (size before relaxing)
 .debug_str     0x00000000000031e7       0xcf C:/Users/Eldin/Documents/GitHub/Neon3D/FPGA/Software/Neon3DSoftware_bsp/\libucosii_bsp.a(os_mem.o)
                                        0x31a (size before relaxing)
 .debug_str     0x00000000000032b6       0xc0 C:/Users/Eldin/Documents/GitHub/Neon3D/FPGA/Software/Neon3DSoftware_bsp/\libucosii_bsp.a(os_q.o)
                                        0x594 (size before relaxing)
 .debug_str     0x0000000000003376       0x77 C:/Users/Eldin/Documents/GitHub/Neon3D/FPGA/Software/Neon3DSoftware_bsp/\libucosii_bsp.a(os_sem.o)
                                        0x51d (size before relaxing)
 .debug_str     0x00000000000033ed      0x118 C:/Users/Eldin/Documents/GitHub/Neon3D/FPGA/Software/Neon3DSoftware_bsp/\libucosii_bsp.a(os_task.o)
                                        0x620 (size before relaxing)
 .debug_str     0x0000000000003505       0x6d C:/Users/Eldin/Documents/GitHub/Neon3D/FPGA/Software/Neon3DSoftware_bsp/\libucosii_bsp.a(os_time.o)
                                        0x4c0 (size before relaxing)
 .debug_str     0x0000000000003572      0x54d C:/Users/Eldin/Documents/GitHub/Neon3D/FPGA/Software/Neon3DSoftware_bsp/\libucosii_bsp.a(alt_sys_init.o)
                                        0x837 (size before relaxing)
 .debug_str     0x0000000000003abf       0xac C:/Users/Eldin/Documents/GitHub/Neon3D/FPGA/Software/Neon3DSoftware_bsp/\libucosii_bsp.a(altera_avalon_jtag_uart_fd.o)
                                        0x4b3 (size before relaxing)
 .debug_str     0x0000000000003b6b       0xf6 C:/Users/Eldin/Documents/GitHub/Neon3D/FPGA/Software/Neon3DSoftware_bsp/\libucosii_bsp.a(altera_avalon_jtag_uart_init.o)
                                        0x47a (size before relaxing)
 .debug_str     0x0000000000003c61       0x4a C:/Users/Eldin/Documents/GitHub/Neon3D/FPGA/Software/Neon3DSoftware_bsp/\libucosii_bsp.a(altera_avalon_jtag_uart_ioctl.o)
                                        0x3a2 (size before relaxing)
 .debug_str     0x0000000000003cab       0x63 C:/Users/Eldin/Documents/GitHub/Neon3D/FPGA/Software/Neon3DSoftware_bsp/\libucosii_bsp.a(altera_avalon_jtag_uart_read.o)
                                        0x415 (size before relaxing)
 .debug_str     0x0000000000003d0e       0x4a C:/Users/Eldin/Documents/GitHub/Neon3D/FPGA/Software/Neon3DSoftware_bsp/\libucosii_bsp.a(altera_avalon_jtag_uart_write.o)
                                        0x416 (size before relaxing)
 .debug_str     0x0000000000003d58       0x66 C:/Users/Eldin/Documents/GitHub/Neon3D/FPGA/Software/Neon3DSoftware_bsp/\libucosii_bsp.a(altera_avalon_timer_sc.o)
                                        0x26a (size before relaxing)
 .debug_str     0x0000000000003dbe      0x1ea C:/Users/Eldin/Documents/GitHub/Neon3D/FPGA/Software/Neon3DSoftware_bsp/\libucosii_bsp.a(altera_up_avalon_character_lcd.o)
                                        0x41d (size before relaxing)
 .debug_str     0x0000000000003fa8      0x176 C:/Users/Eldin/Documents/GitHub/Neon3D/FPGA/Software/Neon3DSoftware_bsp/\libucosii_bsp.a(altera_up_avalon_irda.o)
                                        0x3a6 (size before relaxing)
 .debug_str     0x000000000000411e      0x1c5 C:/Users/Eldin/Documents/GitHub/Neon3D/FPGA/Software/Neon3DSoftware_bsp/\libucosii_bsp.a(altera_up_avalon_ps2.o)
                                        0x479 (size before relaxing)
 .debug_str     0x00000000000042e3      0x154 C:/Users/Eldin/Documents/GitHub/Neon3D/FPGA/Software/Neon3DSoftware_bsp/\libucosii_bsp.a(altera_up_avalon_rs232.o)
                                        0x3b3 (size before relaxing)
 .debug_str     0x0000000000004437       0xca C:/Users/Eldin/Documents/GitHub/Neon3D/FPGA/Software/Neon3DSoftware_bsp/\libucosii_bsp.a(altera_up_avalon_video_character_buffer_with_dma.o)
                                        0x369 (size before relaxing)
 .debug_str     0x0000000000004501       0x59 C:/Users/Eldin/Documents/GitHub/Neon3D/FPGA/Software/Neon3DSoftware_bsp/\libucosii_bsp.a(alt_alarm_start.o)
                                        0x29d (size before relaxing)
 .debug_str     0x000000000000455a       0x44 C:/Users/Eldin/Documents/GitHub/Neon3D/FPGA/Software/Neon3DSoftware_bsp/\libucosii_bsp.a(alt_close.o)
                                        0x25a (size before relaxing)
 .debug_str     0x000000000000459e       0x34 C:/Users/Eldin/Documents/GitHub/Neon3D/FPGA/Software/Neon3DSoftware_bsp/\libucosii_bsp.a(alt_dcache_flush_all.o)
                                        0x153 (size before relaxing)
 .debug_str     0x00000000000045d2      0x119 C:/Users/Eldin/Documents/GitHub/Neon3D/FPGA/Software/Neon3DSoftware_bsp/\libucosii_bsp.a(alt_dev.o)
                                        0x3c8 (size before relaxing)
 .debug_str     0x00000000000046eb       0x34 C:/Users/Eldin/Documents/GitHub/Neon3D/FPGA/Software/Neon3DSoftware_bsp/\libucosii_bsp.a(alt_dev_llist_insert.o)
                                        0x1ca (size before relaxing)
 .debug_str     0x000000000000471f       0x48 C:/Users/Eldin/Documents/GitHub/Neon3D/FPGA/Software/Neon3DSoftware_bsp/\libucosii_bsp.a(alt_do_ctors.o)
                                         0xda (size before relaxing)
 .debug_str     0x0000000000004767       0x4c C:/Users/Eldin/Documents/GitHub/Neon3D/FPGA/Software/Neon3DSoftware_bsp/\libucosii_bsp.a(alt_do_dtors.o)
                                         0xd9 (size before relaxing)
 .debug_str     0x00000000000047b3       0x14 C:/Users/Eldin/Documents/GitHub/Neon3D/FPGA/Software/Neon3DSoftware_bsp/\libucosii_bsp.a(alt_errno.o)
                                        0x143 (size before relaxing)
 .debug_str     0x00000000000047c7       0x24 C:/Users/Eldin/Documents/GitHub/Neon3D/FPGA/Software/Neon3DSoftware_bsp/\libucosii_bsp.a(alt_find_dev.o)
                                        0x23b (size before relaxing)
 .debug_str     0x00000000000047eb       0x34 C:/Users/Eldin/Documents/GitHub/Neon3D/FPGA/Software/Neon3DSoftware_bsp/\libucosii_bsp.a(alt_icache_flush_all.o)
                                        0x153 (size before relaxing)
 .debug_str     0x000000000000481f       0x56 C:/Users/Eldin/Documents/GitHub/Neon3D/FPGA/Software/Neon3DSoftware_bsp/\libucosii_bsp.a(alt_io_redirect.o)
                                        0x365 (size before relaxing)
 .debug_str     0x0000000000004875       0x70 C:/Users/Eldin/Documents/GitHub/Neon3D/FPGA/Software/Neon3DSoftware_bsp/\libucosii_bsp.a(alt_irq_register.o)
                                        0x22e (size before relaxing)
 .debug_str     0x00000000000048e5       0x17 C:/Users/Eldin/Documents/GitHub/Neon3D/FPGA/Software/Neon3DSoftware_bsp/\libucosii_bsp.a(alt_irq_vars.o)
                                        0x144 (size before relaxing)
 .debug_str     0x00000000000048fc       0x29 C:/Users/Eldin/Documents/GitHub/Neon3D/FPGA/Software/Neon3DSoftware_bsp/\libucosii_bsp.a(alt_open.o)
                                        0x292 (size before relaxing)
 .debug_str     0x0000000000004925       0x28 C:/Users/Eldin/Documents/GitHub/Neon3D/FPGA/Software/Neon3DSoftware_bsp/\libucosii_bsp.a(alt_release_fd.o)
                                        0x244 (size before relaxing)
 .debug_str     0x000000000000494d       0x4a C:/Users/Eldin/Documents/GitHub/Neon3D/FPGA/Software/Neon3DSoftware_bsp/\libucosii_bsp.a(alt_tick.o)
                                        0x27e (size before relaxing)
 .debug_str     0x0000000000004997       0x3b C:/Users/Eldin/Documents/GitHub/Neon3D/FPGA/Software/Neon3DSoftware_bsp/\libucosii_bsp.a(altera_nios2_gen2_irq.o)
                                        0x183 (size before relaxing)
 .debug_str     0x00000000000049d2       0xdb C:/Users/Eldin/Documents/GitHub/Neon3D/FPGA/Software/Neon3DSoftware_bsp/\libucosii_bsp.a(os_cpu_c.o)
                                        0x85c (size before relaxing)
 .debug_str     0x0000000000004aad       0x26 C:/Users/Eldin/Documents/GitHub/Neon3D/FPGA/Software/Neon3DSoftware_bsp/\libucosii_bsp.a(alt_find_file.o)
                                        0x249 (size before relaxing)
 .debug_str     0x0000000000004ad3       0x30 C:/Users/Eldin/Documents/GitHub/Neon3D/FPGA/Software/Neon3DSoftware_bsp/\libucosii_bsp.a(alt_get_fd.o)
                                        0x2e7 (size before relaxing)
 .debug_str     0x0000000000004b03       0x2c C:/Users/Eldin/Documents/GitHub/Neon3D/FPGA/Software/Neon3DSoftware_bsp/\libucosii_bsp.a(alt_icache_flush.o)
                                        0x159 (size before relaxing)
 .debug_str     0x0000000000004b2f       0x3a C:/Users/Eldin/Documents/GitHub/Neon3D/FPGA/Software/Neon3DSoftware_bsp/\libucosii_bsp.a(alt_irq_handler.o)
                                        0x1de (size before relaxing)
 .debug_str     0x0000000000004b69      0x48b C:/Users/Eldin/Documents/GitHub/Neon3D/FPGA/Software/Neon3DSoftware_bsp/\libucosii_bsp.a(alt_instruction_exception_entry.o)
                                        0x59d (size before relaxing)
 .debug_str     0x0000000000004ff4       0x81 c:/altera_lite/15.1/nios2eds/bin/gnu/h-x86_64-mingw32/bin/../lib/gcc/nios2-elf/4.9.2/../../../../../H-x86_64-mingw32/nios2-elf/lib/mhw-mulx\libc.a(lib_a-atexit.o)
                                        0x20f (size before relaxing)
 .debug_str     0x0000000000005075       0x4c c:/altera_lite/15.1/nios2eds/bin/gnu/h-x86_64-mingw32/bin/../lib/gcc/nios2-elf/4.9.2/../../../../../H-x86_64-mingw32/nios2-elf/lib/mhw-mulx\libc.a(lib_a-exit.o)
                                        0x5ac (size before relaxing)
 .debug_str     0x00000000000050c1       0x44 c:/altera_lite/15.1/nios2eds/bin/gnu/h-x86_64-mingw32/bin/../lib/gcc/nios2-elf/4.9.2/../../../../../H-x86_64-mingw32/nios2-elf/lib/mhw-mulx\libc.a(lib_a-memcmp.o)
                                        0x1d2 (size before relaxing)
 .debug_str     0x0000000000005105       0x3f c:/altera_lite/15.1/nios2eds/bin/gnu/h-x86_64-mingw32/bin/../lib/gcc/nios2-elf/4.9.2/../../../../../H-x86_64-mingw32/nios2-elf/lib/mhw-mulx\libc.a(lib_a-__atexit.o)
                                        0x5eb (size before relaxing)
 .debug_str     0x0000000000005144       0x60 c:/altera_lite/15.1/nios2eds/bin/gnu/h-x86_64-mingw32/bin/../lib/gcc/nios2-elf/4.9.2/../../../../../H-x86_64-mingw32/nios2-elf/lib/mhw-mulx\libc.a(lib_a-__call_atexit.o)
                                        0x5d0 (size before relaxing)
 .debug_str     0x00000000000051a4       0x2a C:/Users/Eldin/Documents/GitHub/Neon3D/FPGA/Software/Neon3DSoftware_bsp/\libucosii_bsp.a(alt_exit.o)
                                        0x1b2 (size before relaxing)

.debug_loc      0x0000000000000000    0x16462
 *(.debug_loc)
 .debug_loc     0x0000000000000000       0xa4 c:/altera_lite/15.1/nios2eds/bin/gnu/h-x86_64-mingw32/bin/../lib/gcc/nios2-elf/4.9.2/../../../../../H-x86_64-mingw32/nios2-elf/lib/mhw-mulx\libm.a(lib_a-s_cos.o)
 .debug_loc     0x00000000000000a4       0xa4 c:/altera_lite/15.1/nios2eds/bin/gnu/h-x86_64-mingw32/bin/../lib/gcc/nios2-elf/4.9.2/../../../../../H-x86_64-mingw32/nios2-elf/lib/mhw-mulx\libm.a(lib_a-s_sin.o)
 .debug_loc     0x0000000000000148      0x7e9 c:/altera_lite/15.1/nios2eds/bin/gnu/h-x86_64-mingw32/bin/../lib/gcc/nios2-elf/4.9.2/../../../../../H-x86_64-mingw32/nios2-elf/lib/mhw-mulx\libm.a(lib_a-e_rem_pio2.o)
 .debug_loc     0x0000000000000931      0x1d6 c:/altera_lite/15.1/nios2eds/bin/gnu/h-x86_64-mingw32/bin/../lib/gcc/nios2-elf/4.9.2/../../../../../H-x86_64-mingw32/nios2-elf/lib/mhw-mulx\libm.a(lib_a-k_cos.o)
 .debug_loc     0x0000000000000b07      0xcc5 c:/altera_lite/15.1/nios2eds/bin/gnu/h-x86_64-mingw32/bin/../lib/gcc/nios2-elf/4.9.2/../../../../../H-x86_64-mingw32/nios2-elf/lib/mhw-mulx\libm.a(lib_a-k_rem_pio2.o)
 .debug_loc     0x00000000000017cc      0x165 c:/altera_lite/15.1/nios2eds/bin/gnu/h-x86_64-mingw32/bin/../lib/gcc/nios2-elf/4.9.2/../../../../../H-x86_64-mingw32/nios2-elf/lib/mhw-mulx\libm.a(lib_a-k_sin.o)
 .debug_loc     0x0000000000001931       0x18 c:/altera_lite/15.1/nios2eds/bin/gnu/h-x86_64-mingw32/bin/../lib/gcc/nios2-elf/4.9.2/../../../../../H-x86_64-mingw32/nios2-elf/lib/mhw-mulx\libm.a(lib_a-s_fabs.o)
 .debug_loc     0x0000000000001949      0x32e c:/altera_lite/15.1/nios2eds/bin/gnu/h-x86_64-mingw32/bin/../lib/gcc/nios2-elf/4.9.2/../../../../../H-x86_64-mingw32/nios2-elf/lib/mhw-mulx\libm.a(lib_a-s_floor.o)
 .debug_loc     0x0000000000001c77      0x2a8 c:/altera_lite/15.1/nios2eds/bin/gnu/h-x86_64-mingw32/bin/../lib/gcc/nios2-elf/4.9.2/../../../../../H-x86_64-mingw32/nios2-elf/lib/mhw-mulx\libm.a(lib_a-s_scalbn.o)
 .debug_loc     0x0000000000001f1f       0x3b c:/altera_lite/15.1/nios2eds/bin/gnu/h-x86_64-mingw32/bin/../lib/gcc/nios2-elf/4.9.2/../../../../../H-x86_64-mingw32/nios2-elf/lib/mhw-mulx\libm.a(lib_a-s_copysign.o)
 .debug_loc     0x0000000000001f5a      0x273 c:/altera_lite/15.1/nios2eds/bin/gnu/h-x86_64-mingw32/bin/../lib/gcc/nios2-elf/4.9.2/mhw-mulx\libgcc.a(lib2-divmod.o)
 .debug_loc     0x00000000000021cd      0x1f6 c:/altera_lite/15.1/nios2eds/bin/gnu/h-x86_64-mingw32/bin/../lib/gcc/nios2-elf/4.9.2/mhw-mulx\libgcc.a(floatsisf.o)
 .debug_loc     0x00000000000023c3     0x16ec c:/altera_lite/15.1/nios2eds/bin/gnu/h-x86_64-mingw32/bin/../lib/gcc/nios2-elf/4.9.2/mhw-mulx\libgcc.a(adddf3.o)
 .debug_loc     0x0000000000003aaf     0x1f03 c:/altera_lite/15.1/nios2eds/bin/gnu/h-x86_64-mingw32/bin/../lib/gcc/nios2-elf/4.9.2/mhw-mulx\libgcc.a(divdf3.o)
 .debug_loc     0x00000000000059b2       0x52 c:/altera_lite/15.1/nios2eds/bin/gnu/h-x86_64-mingw32/bin/../lib/gcc/nios2-elf/4.9.2/mhw-mulx\libgcc.a(eqdf2.o)
 .debug_loc     0x0000000000005a04      0x109 c:/altera_lite/15.1/nios2eds/bin/gnu/h-x86_64-mingw32/bin/../lib/gcc/nios2-elf/4.9.2/mhw-mulx\libgcc.a(gedf2.o)
 .debug_loc     0x0000000000005b0d       0xfc c:/altera_lite/15.1/nios2eds/bin/gnu/h-x86_64-mingw32/bin/../lib/gcc/nios2-elf/4.9.2/mhw-mulx\libgcc.a(ledf2.o)
 .debug_loc     0x0000000000005c09     0x107e c:/altera_lite/15.1/nios2eds/bin/gnu/h-x86_64-mingw32/bin/../lib/gcc/nios2-elf/4.9.2/mhw-mulx\libgcc.a(muldf3.o)
 .debug_loc     0x0000000000006c87     0x1660 c:/altera_lite/15.1/nios2eds/bin/gnu/h-x86_64-mingw32/bin/../lib/gcc/nios2-elf/4.9.2/mhw-mulx\libgcc.a(subdf3.o)
 .debug_loc     0x00000000000082e7      0x136 c:/altera_lite/15.1/nios2eds/bin/gnu/h-x86_64-mingw32/bin/../lib/gcc/nios2-elf/4.9.2/mhw-mulx\libgcc.a(fixdfsi.o)
 .debug_loc     0x000000000000841d      0x17f c:/altera_lite/15.1/nios2eds/bin/gnu/h-x86_64-mingw32/bin/../lib/gcc/nios2-elf/4.9.2/mhw-mulx\libgcc.a(floatsidf.o)
 .debug_loc     0x000000000000859c      0x27e c:/altera_lite/15.1/nios2eds/bin/gnu/h-x86_64-mingw32/bin/../lib/gcc/nios2-elf/4.9.2/mhw-mulx\libgcc.a(extendsfdf2.o)
 .debug_loc     0x000000000000881a       0x2c c:/altera_lite/15.1/nios2eds/bin/gnu/h-x86_64-mingw32/bin/../lib/gcc/nios2-elf/4.9.2/mhw-mulx\libgcc.a(_clzsi2.o)
 .debug_loc     0x0000000000008846      0x2a2 c:/altera_lite/15.1/nios2eds/bin/gnu/h-x86_64-mingw32/bin/../lib/gcc/nios2-elf/4.9.2/../../../../../H-x86_64-mingw32/nios2-elf/lib/mhw-mulx\libc.a(lib_a-memcpy.o)
 .debug_loc     0x0000000000008ae8      0x106 c:/altera_lite/15.1/nios2eds/bin/gnu/h-x86_64-mingw32/bin/../lib/gcc/nios2-elf/4.9.2/../../../../../H-x86_64-mingw32/nios2-elf/lib/mhw-mulx\libc.a(lib_a-sprintf.o)
 .debug_loc     0x0000000000008bee     0x2bf3 c:/altera_lite/15.1/nios2eds/bin/gnu/h-x86_64-mingw32/bin/../lib/gcc/nios2-elf/4.9.2/../../../../../H-x86_64-mingw32/nios2-elf/lib/mhw-mulx\libc.a(lib_a-svfprintf.o)
 .debug_loc     0x000000000000b7e1     0x299a c:/altera_lite/15.1/nios2eds/bin/gnu/h-x86_64-mingw32/bin/../lib/gcc/nios2-elf/4.9.2/../../../../../H-x86_64-mingw32/nios2-elf/lib/mhw-mulx\libc.a(lib_a-dtoa.o)
 .debug_loc     0x000000000000e17b      0x11b c:/altera_lite/15.1/nios2eds/bin/gnu/h-x86_64-mingw32/bin/../lib/gcc/nios2-elf/4.9.2/../../../../../H-x86_64-mingw32/nios2-elf/lib/mhw-mulx\libc.a(lib_a-locale.o)
 .debug_loc     0x000000000000e296      0xbad c:/altera_lite/15.1/nios2eds/bin/gnu/h-x86_64-mingw32/bin/../lib/gcc/nios2-elf/4.9.2/../../../../../H-x86_64-mingw32/nios2-elf/lib/mhw-mulx\libc.a(lib_a-mallocr.o)
 .debug_loc     0x000000000000ee43      0x19f c:/altera_lite/15.1/nios2eds/bin/gnu/h-x86_64-mingw32/bin/../lib/gcc/nios2-elf/4.9.2/../../../../../H-x86_64-mingw32/nios2-elf/lib/mhw-mulx\libc.a(lib_a-memchr.o)
 .debug_loc     0x000000000000efe2     0x1a68 c:/altera_lite/15.1/nios2eds/bin/gnu/h-x86_64-mingw32/bin/../lib/gcc/nios2-elf/4.9.2/../../../../../H-x86_64-mingw32/nios2-elf/lib/mhw-mulx\libc.a(lib_a-mprec.o)
 .debug_loc     0x0000000000010a4a       0x2f c:/altera_lite/15.1/nios2eds/bin/gnu/h-x86_64-mingw32/bin/../lib/gcc/nios2-elf/4.9.2/../../../../../H-x86_64-mingw32/nios2-elf/lib/mhw-mulx\libc.a(lib_a-s_fpclassify.o)
 .debug_loc     0x0000000000010a79       0x58 c:/altera_lite/15.1/nios2eds/bin/gnu/h-x86_64-mingw32/bin/../lib/gcc/nios2-elf/4.9.2/../../../../../H-x86_64-mingw32/nios2-elf/lib/mhw-mulx\libc.a(lib_a-sbrkr.o)
 .debug_loc     0x0000000000010ad1       0xb0 c:/altera_lite/15.1/nios2eds/bin/gnu/h-x86_64-mingw32/bin/../lib/gcc/nios2-elf/4.9.2/../../../../../H-x86_64-mingw32/nios2-elf/lib/mhw-mulx\libc.a(lib_a-strcmp.o)
 .debug_loc     0x0000000000010b81       0x47 c:/altera_lite/15.1/nios2eds/bin/gnu/h-x86_64-mingw32/bin/../lib/gcc/nios2-elf/4.9.2/../../../../../H-x86_64-mingw32/nios2-elf/lib/mhw-mulx\libc.a(lib_a-strlen.o)
 .debug_loc     0x0000000000010bc8     0x159b c:/altera_lite/15.1/nios2eds/bin/gnu/h-x86_64-mingw32/bin/../lib/gcc/nios2-elf/4.9.2/../../../../../H-x86_64-mingw32/nios2-elf/lib/mhw-mulx\libc.a(lib_a-svfiprintf.o)
 .debug_loc     0x0000000000012163      0x24b c:/altera_lite/15.1/nios2eds/bin/gnu/h-x86_64-mingw32/bin/../lib/gcc/nios2-elf/4.9.2/../../../../../H-x86_64-mingw32/nios2-elf/lib/mhw-mulx\libc.a(lib_a-callocr.o)
 .debug_loc     0x00000000000123ae      0x4cf c:/altera_lite/15.1/nios2eds/bin/gnu/h-x86_64-mingw32/bin/../lib/gcc/nios2-elf/4.9.2/../../../../../H-x86_64-mingw32/nios2-elf/lib/mhw-mulx\libc.a(lib_a-freer.o)
 .debug_loc     0x000000000001287d      0x34f c:/altera_lite/15.1/nios2eds/bin/gnu/h-x86_64-mingw32/bin/../lib/gcc/nios2-elf/4.9.2/../../../../../H-x86_64-mingw32/nios2-elf/lib/mhw-mulx\libc.a(lib_a-memmove.o)
 .debug_loc     0x0000000000012bcc      0x190 c:/altera_lite/15.1/nios2eds/bin/gnu/h-x86_64-mingw32/bin/../lib/gcc/nios2-elf/4.9.2/../../../../../H-x86_64-mingw32/nios2-elf/lib/mhw-mulx\libc.a(lib_a-memset.o)
 .debug_loc     0x0000000000012d5c      0xd88 c:/altera_lite/15.1/nios2eds/bin/gnu/h-x86_64-mingw32/bin/../lib/gcc/nios2-elf/4.9.2/../../../../../H-x86_64-mingw32/nios2-elf/lib/mhw-mulx\libc.a(lib_a-reallocr.o)
 .debug_loc     0x0000000000013ae4     0x11a3 c:/altera_lite/15.1/nios2eds/bin/gnu/h-x86_64-mingw32/bin/../lib/gcc/nios2-elf/4.9.2/mhw-mulx\libgcc.a(_udivdi3.o)
 .debug_loc     0x0000000000014c87     0x118c c:/altera_lite/15.1/nios2eds/bin/gnu/h-x86_64-mingw32/bin/../lib/gcc/nios2-elf/4.9.2/mhw-mulx\libgcc.a(_umoddi3.o)
 .debug_loc     0x0000000000015e13      0x1b4 c:/altera_lite/15.1/nios2eds/bin/gnu/h-x86_64-mingw32/bin/../lib/gcc/nios2-elf/4.9.2/mhw-mulx\libgcc.a(floatunsidf.o)
 .debug_loc     0x0000000000015fc7       0x2c c:/altera_lite/15.1/nios2eds/bin/gnu/h-x86_64-mingw32/bin/../lib/gcc/nios2-elf/4.9.2/../../../../../H-x86_64-mingw32/nios2-elf/lib/mhw-mulx\libc.a(lib_a-atexit.o)
 .debug_loc     0x0000000000015ff3       0x1e c:/altera_lite/15.1/nios2eds/bin/gnu/h-x86_64-mingw32/bin/../lib/gcc/nios2-elf/4.9.2/../../../../../H-x86_64-mingw32/nios2-elf/lib/mhw-mulx\libc.a(lib_a-exit.o)
 .debug_loc     0x0000000000016011      0x126 c:/altera_lite/15.1/nios2eds/bin/gnu/h-x86_64-mingw32/bin/../lib/gcc/nios2-elf/4.9.2/../../../../../H-x86_64-mingw32/nios2-elf/lib/mhw-mulx\libc.a(lib_a-memcmp.o)
 .debug_loc     0x0000000000016137      0x185 c:/altera_lite/15.1/nios2eds/bin/gnu/h-x86_64-mingw32/bin/../lib/gcc/nios2-elf/4.9.2/../../../../../H-x86_64-mingw32/nios2-elf/lib/mhw-mulx\libc.a(lib_a-__atexit.o)
 .debug_loc     0x00000000000162bc      0x1a6 c:/altera_lite/15.1/nios2eds/bin/gnu/h-x86_64-mingw32/bin/../lib/gcc/nios2-elf/4.9.2/../../../../../H-x86_64-mingw32/nios2-elf/lib/mhw-mulx\libc.a(lib_a-__call_atexit.o)

.debug_macinfo
 *(.debug_macinfo)

.debug_weaknames
 *(.debug_weaknames)

.debug_funcnames
 *(.debug_funcnames)

.debug_typenames
 *(.debug_typenames)

.debug_varnames
 *(.debug_varnames)

.debug_alt_sim_info
                0x0000000000000000       0x20
 *(.debug_alt_sim_info)
 .debug_alt_sim_info
                0x0000000000000000       0x20 C:/Users/Eldin/Documents/GitHub/Neon3D/FPGA/Software/Neon3DSoftware_bsp//obj/HAL/src/crt0.o
                0x0000000004000000                __alt_data_end = 0x4000000
                0x0000000004000000                PROVIDE (__alt_stack_pointer, __alt_data_end)
                0x0000000000023214                PROVIDE (__alt_stack_limit, __alt_stack_base)
                0x0000000000023214                PROVIDE (__alt_heap_start, end)
                0x0000000004000000                PROVIDE (__alt_heap_limit, 0x4000000)
OUTPUT(Neon3DSoftware.elf elf32-littlenios2)

.debug_ranges   0x0000000000000000     0x1438
 .debug_ranges  0x0000000000000000       0x20 C:/Users/Eldin/Documents/GitHub/Neon3D/FPGA/Software/Neon3DSoftware_bsp//obj/HAL/src/crt0.o
 .debug_ranges  0x0000000000000020       0x10 c:/altera_lite/15.1/nios2eds/bin/gnu/h-x86_64-mingw32/bin/../lib/gcc/nios2-elf/4.9.2/../../../../../H-x86_64-mingw32/nios2-elf/lib/mhw-mulx\libm.a(lib_a-s_cos.o)
 .debug_ranges  0x0000000000000030       0x10 c:/altera_lite/15.1/nios2eds/bin/gnu/h-x86_64-mingw32/bin/../lib/gcc/nios2-elf/4.9.2/../../../../../H-x86_64-mingw32/nios2-elf/lib/mhw-mulx\libm.a(lib_a-s_sin.o)
 .debug_ranges  0x0000000000000040       0x30 c:/altera_lite/15.1/nios2eds/bin/gnu/h-x86_64-mingw32/bin/../lib/gcc/nios2-elf/4.9.2/../../../../../H-x86_64-mingw32/nios2-elf/lib/mhw-mulx\libm.a(lib_a-e_rem_pio2.o)
 .debug_ranges  0x0000000000000070       0x10 c:/altera_lite/15.1/nios2eds/bin/gnu/h-x86_64-mingw32/bin/../lib/gcc/nios2-elf/4.9.2/../../../../../H-x86_64-mingw32/nios2-elf/lib/mhw-mulx\libm.a(lib_a-k_cos.o)
 .debug_ranges  0x0000000000000080       0x10 c:/altera_lite/15.1/nios2eds/bin/gnu/h-x86_64-mingw32/bin/../lib/gcc/nios2-elf/4.9.2/../../../../../H-x86_64-mingw32/nios2-elf/lib/mhw-mulx\libm.a(lib_a-k_rem_pio2.o)
 .debug_ranges  0x0000000000000090       0x10 c:/altera_lite/15.1/nios2eds/bin/gnu/h-x86_64-mingw32/bin/../lib/gcc/nios2-elf/4.9.2/../../../../../H-x86_64-mingw32/nios2-elf/lib/mhw-mulx\libm.a(lib_a-k_sin.o)
 .debug_ranges  0x00000000000000a0       0x10 c:/altera_lite/15.1/nios2eds/bin/gnu/h-x86_64-mingw32/bin/../lib/gcc/nios2-elf/4.9.2/../../../../../H-x86_64-mingw32/nios2-elf/lib/mhw-mulx\libm.a(lib_a-s_fabs.o)
 .debug_ranges  0x00000000000000b0       0x10 c:/altera_lite/15.1/nios2eds/bin/gnu/h-x86_64-mingw32/bin/../lib/gcc/nios2-elf/4.9.2/../../../../../H-x86_64-mingw32/nios2-elf/lib/mhw-mulx\libm.a(lib_a-s_floor.o)
 .debug_ranges  0x00000000000000c0       0x10 c:/altera_lite/15.1/nios2eds/bin/gnu/h-x86_64-mingw32/bin/../lib/gcc/nios2-elf/4.9.2/../../../../../H-x86_64-mingw32/nios2-elf/lib/mhw-mulx\libm.a(lib_a-s_scalbn.o)
 .debug_ranges  0x00000000000000d0       0x10 c:/altera_lite/15.1/nios2eds/bin/gnu/h-x86_64-mingw32/bin/../lib/gcc/nios2-elf/4.9.2/../../../../../H-x86_64-mingw32/nios2-elf/lib/mhw-mulx\libm.a(lib_a-s_copysign.o)
 .debug_ranges  0x00000000000000e0       0x38 c:/altera_lite/15.1/nios2eds/bin/gnu/h-x86_64-mingw32/bin/../lib/gcc/nios2-elf/4.9.2/mhw-mulx\libgcc.a(floatsisf.o)
 .debug_ranges  0x0000000000000118      0x238 c:/altera_lite/15.1/nios2eds/bin/gnu/h-x86_64-mingw32/bin/../lib/gcc/nios2-elf/4.9.2/mhw-mulx\libgcc.a(adddf3.o)
 .debug_ranges  0x0000000000000350      0x140 c:/altera_lite/15.1/nios2eds/bin/gnu/h-x86_64-mingw32/bin/../lib/gcc/nios2-elf/4.9.2/mhw-mulx\libgcc.a(divdf3.o)
 .debug_ranges  0x0000000000000490       0x48 c:/altera_lite/15.1/nios2eds/bin/gnu/h-x86_64-mingw32/bin/../lib/gcc/nios2-elf/4.9.2/mhw-mulx\libgcc.a(eqdf2.o)
 .debug_ranges  0x00000000000004d8       0x90 c:/altera_lite/15.1/nios2eds/bin/gnu/h-x86_64-mingw32/bin/../lib/gcc/nios2-elf/4.9.2/mhw-mulx\libgcc.a(gedf2.o)
 .debug_ranges  0x0000000000000568       0x88 c:/altera_lite/15.1/nios2eds/bin/gnu/h-x86_64-mingw32/bin/../lib/gcc/nios2-elf/4.9.2/mhw-mulx\libgcc.a(ledf2.o)
 .debug_ranges  0x00000000000005f0      0x218 c:/altera_lite/15.1/nios2eds/bin/gnu/h-x86_64-mingw32/bin/../lib/gcc/nios2-elf/4.9.2/mhw-mulx\libgcc.a(muldf3.o)
 .debug_ranges  0x0000000000000808      0x258 c:/altera_lite/15.1/nios2eds/bin/gnu/h-x86_64-mingw32/bin/../lib/gcc/nios2-elf/4.9.2/mhw-mulx\libgcc.a(subdf3.o)
 .debug_ranges  0x0000000000000a60       0x38 c:/altera_lite/15.1/nios2eds/bin/gnu/h-x86_64-mingw32/bin/../lib/gcc/nios2-elf/4.9.2/mhw-mulx\libgcc.a(fixdfsi.o)
 .debug_ranges  0x0000000000000a98       0x30 c:/altera_lite/15.1/nios2eds/bin/gnu/h-x86_64-mingw32/bin/../lib/gcc/nios2-elf/4.9.2/mhw-mulx\libgcc.a(floatsidf.o)
 .debug_ranges  0x0000000000000ac8       0x48 c:/altera_lite/15.1/nios2eds/bin/gnu/h-x86_64-mingw32/bin/../lib/gcc/nios2-elf/4.9.2/mhw-mulx\libgcc.a(extendsfdf2.o)
 .debug_ranges  0x0000000000000b10       0x18 c:/altera_lite/15.1/nios2eds/bin/gnu/h-x86_64-mingw32/bin/../lib/gcc/nios2-elf/4.9.2/mhw-mulx\libgcc.a(_clzsi2.o)
 .debug_ranges  0x0000000000000b28       0x10 c:/altera_lite/15.1/nios2eds/bin/gnu/h-x86_64-mingw32/bin/../lib/gcc/nios2-elf/4.9.2/../../../../../H-x86_64-mingw32/nios2-elf/lib/mhw-mulx\libc.a(lib_a-memcpy.o)
 .debug_ranges  0x0000000000000b38       0x18 c:/altera_lite/15.1/nios2eds/bin/gnu/h-x86_64-mingw32/bin/../lib/gcc/nios2-elf/4.9.2/../../../../../H-x86_64-mingw32/nios2-elf/lib/mhw-mulx\libc.a(lib_a-sprintf.o)
 .debug_ranges  0x0000000000000b50      0x128 c:/altera_lite/15.1/nios2eds/bin/gnu/h-x86_64-mingw32/bin/../lib/gcc/nios2-elf/4.9.2/../../../../../H-x86_64-mingw32/nios2-elf/lib/mhw-mulx\libc.a(lib_a-svfprintf.o)
 .debug_ranges  0x0000000000000c78       0x18 c:/altera_lite/15.1/nios2eds/bin/gnu/h-x86_64-mingw32/bin/../lib/gcc/nios2-elf/4.9.2/../../../../../H-x86_64-mingw32/nios2-elf/lib/mhw-mulx\libc.a(lib_a-dtoa.o)
 .debug_ranges  0x0000000000000c90       0x60 c:/altera_lite/15.1/nios2eds/bin/gnu/h-x86_64-mingw32/bin/../lib/gcc/nios2-elf/4.9.2/../../../../../H-x86_64-mingw32/nios2-elf/lib/mhw-mulx\libc.a(lib_a-locale.o)
 .debug_ranges  0x0000000000000cf0       0x48 c:/altera_lite/15.1/nios2eds/bin/gnu/h-x86_64-mingw32/bin/../lib/gcc/nios2-elf/4.9.2/../../../../../H-x86_64-mingw32/nios2-elf/lib/mhw-mulx\libc.a(lib_a-mallocr.o)
 .debug_ranges  0x0000000000000d38       0x10 c:/altera_lite/15.1/nios2eds/bin/gnu/h-x86_64-mingw32/bin/../lib/gcc/nios2-elf/4.9.2/../../../../../H-x86_64-mingw32/nios2-elf/lib/mhw-mulx\libc.a(lib_a-memchr.o)
 .debug_ranges  0x0000000000000d48       0xb8 c:/altera_lite/15.1/nios2eds/bin/gnu/h-x86_64-mingw32/bin/../lib/gcc/nios2-elf/4.9.2/../../../../../H-x86_64-mingw32/nios2-elf/lib/mhw-mulx\libc.a(lib_a-mprec.o)
 .debug_ranges  0x0000000000000e00       0x10 c:/altera_lite/15.1/nios2eds/bin/gnu/h-x86_64-mingw32/bin/../lib/gcc/nios2-elf/4.9.2/../../../../../H-x86_64-mingw32/nios2-elf/lib/mhw-mulx\libc.a(lib_a-s_fpclassify.o)
 .debug_ranges  0x0000000000000e10       0x10 c:/altera_lite/15.1/nios2eds/bin/gnu/h-x86_64-mingw32/bin/../lib/gcc/nios2-elf/4.9.2/../../../../../H-x86_64-mingw32/nios2-elf/lib/mhw-mulx\libc.a(lib_a-sbrkr.o)
 .debug_ranges  0x0000000000000e20       0x10 c:/altera_lite/15.1/nios2eds/bin/gnu/h-x86_64-mingw32/bin/../lib/gcc/nios2-elf/4.9.2/../../../../../H-x86_64-mingw32/nios2-elf/lib/mhw-mulx\libc.a(lib_a-strcmp.o)
 .debug_ranges  0x0000000000000e30       0x10 c:/altera_lite/15.1/nios2eds/bin/gnu/h-x86_64-mingw32/bin/../lib/gcc/nios2-elf/4.9.2/../../../../../H-x86_64-mingw32/nios2-elf/lib/mhw-mulx\libc.a(lib_a-strlen.o)
 .debug_ranges  0x0000000000000e40       0x60 c:/altera_lite/15.1/nios2eds/bin/gnu/h-x86_64-mingw32/bin/../lib/gcc/nios2-elf/4.9.2/../../../../../H-x86_64-mingw32/nios2-elf/lib/mhw-mulx\libc.a(lib_a-svfiprintf.o)
 .debug_ranges  0x0000000000000ea0       0x58 c:/altera_lite/15.1/nios2eds/bin/gnu/h-x86_64-mingw32/bin/../lib/gcc/nios2-elf/4.9.2/../../../../../H-x86_64-mingw32/nios2-elf/lib/mhw-mulx\libc.a(lib_a-callocr.o)
 .debug_ranges  0x0000000000000ef8       0x18 c:/altera_lite/15.1/nios2eds/bin/gnu/h-x86_64-mingw32/bin/../lib/gcc/nios2-elf/4.9.2/../../../../../H-x86_64-mingw32/nios2-elf/lib/mhw-mulx\libc.a(lib_a-freer.o)
 .debug_ranges  0x0000000000000f10       0x10 c:/altera_lite/15.1/nios2eds/bin/gnu/h-x86_64-mingw32/bin/../lib/gcc/nios2-elf/4.9.2/../../../../../H-x86_64-mingw32/nios2-elf/lib/mhw-mulx\libc.a(lib_a-memmove.o)
 .debug_ranges  0x0000000000000f20       0x10 c:/altera_lite/15.1/nios2eds/bin/gnu/h-x86_64-mingw32/bin/../lib/gcc/nios2-elf/4.9.2/../../../../../H-x86_64-mingw32/nios2-elf/lib/mhw-mulx\libc.a(lib_a-memset.o)
 .debug_ranges  0x0000000000000f30      0x148 c:/altera_lite/15.1/nios2eds/bin/gnu/h-x86_64-mingw32/bin/../lib/gcc/nios2-elf/4.9.2/../../../../../H-x86_64-mingw32/nios2-elf/lib/mhw-mulx\libc.a(lib_a-reallocr.o)
 .debug_ranges  0x0000000000001078      0x170 c:/altera_lite/15.1/nios2eds/bin/gnu/h-x86_64-mingw32/bin/../lib/gcc/nios2-elf/4.9.2/mhw-mulx\libgcc.a(_udivdi3.o)
 .debug_ranges  0x00000000000011e8      0x150 c:/altera_lite/15.1/nios2eds/bin/gnu/h-x86_64-mingw32/bin/../lib/gcc/nios2-elf/4.9.2/mhw-mulx\libgcc.a(_umoddi3.o)
 .debug_ranges  0x0000000000001338       0x18 c:/altera_lite/15.1/nios2eds/bin/gnu/h-x86_64-mingw32/bin/../lib/gcc/nios2-elf/4.9.2/mhw-mulx\libgcc.a(floatunsidf.o)
 .debug_ranges  0x0000000000001350       0x28 C:/Users/Eldin/Documents/GitHub/Neon3D/FPGA/Software/Neon3DSoftware_bsp/\libucosii_bsp.a(alt_irq_entry.o)
 .debug_ranges  0x0000000000001378       0x10 C:/Users/Eldin/Documents/GitHub/Neon3D/FPGA/Software/Neon3DSoftware_bsp/\libucosii_bsp.a(alt_irq_handler.o)
 .debug_ranges  0x0000000000001388       0x30 C:/Users/Eldin/Documents/GitHub/Neon3D/FPGA/Software/Neon3DSoftware_bsp/\libucosii_bsp.a(alt_exception_entry.o)
 .debug_ranges  0x00000000000013b8       0x18 C:/Users/Eldin/Documents/GitHub/Neon3D/FPGA/Software/Neon3DSoftware_bsp/\libucosii_bsp.a(alt_instruction_exception_entry.o)
 .debug_ranges  0x00000000000013d0       0x10 c:/altera_lite/15.1/nios2eds/bin/gnu/h-x86_64-mingw32/bin/../lib/gcc/nios2-elf/4.9.2/../../../../../H-x86_64-mingw32/nios2-elf/lib/mhw-mulx\libc.a(lib_a-atexit.o)
 .debug_ranges  0x00000000000013e0       0x10 c:/altera_lite/15.1/nios2eds/bin/gnu/h-x86_64-mingw32/bin/../lib/gcc/nios2-elf/4.9.2/../../../../../H-x86_64-mingw32/nios2-elf/lib/mhw-mulx\libc.a(lib_a-exit.o)
 .debug_ranges  0x00000000000013f0       0x10 c:/altera_lite/15.1/nios2eds/bin/gnu/h-x86_64-mingw32/bin/../lib/gcc/nios2-elf/4.9.2/../../../../../H-x86_64-mingw32/nios2-elf/lib/mhw-mulx\libc.a(lib_a-memcmp.o)
 .debug_ranges  0x0000000000001400       0x10 c:/altera_lite/15.1/nios2eds/bin/gnu/h-x86_64-mingw32/bin/../lib/gcc/nios2-elf/4.9.2/../../../../../H-x86_64-mingw32/nios2-elf/lib/mhw-mulx\libc.a(lib_a-__atexit.o)
 .debug_ranges  0x0000000000001410       0x28 c:/altera_lite/15.1/nios2eds/bin/gnu/h-x86_64-mingw32/bin/../lib/gcc/nios2-elf/4.9.2/../../../../../H-x86_64-mingw32/nios2-elf/lib/mhw-mulx\libc.a(lib_a-__call_atexit.o)
